Archive member included to satisfy reference by file (symbol)

/usr/local/mcuxpressoide-11.6.1_8255/ide/plugins/com.nxp.mcuxpresso.tools.linux_11.6.1.202207200623/tools/bin/../lib/gcc/arm-none-eabi/10.3.1/../../../../arm-none-eabi/lib/thumb/v7e-m+dp/hard/libcr_nohost_nf.a(_cr__main.o)
                              ./startup/startup_mimxrt1021.o (__main)
/usr/local/mcuxpressoide-11.6.1_8255/ide/plugins/com.nxp.mcuxpresso.tools.linux_11.6.1.202207200623/tools/bin/../lib/gcc/arm-none-eabi/10.3.1/../../../../arm-none-eabi/lib/thumb/v7e-m+dp/hard/libcr_c.a(memcpy.o)
                              ./utilities/fsl_debug_console.o (memcpy)
/usr/local/mcuxpressoide-11.6.1_8255/ide/plugins/com.nxp.mcuxpresso.tools.linux_11.6.1.202207200623/tools/bin/../lib/gcc/arm-none-eabi/10.3.1/../../../../arm-none-eabi/lib/thumb/v7e-m+dp/hard/libcr_c.a(memset.o)
                              ./drivers/fsl_lpuart.o (memset)
/usr/local/mcuxpressoide-11.6.1_8255/ide/plugins/com.nxp.mcuxpresso.tools.linux_11.6.1.202207200623/tools/bin/../lib/gcc/arm-none-eabi/10.3.1/../../../../arm-none-eabi/lib/thumb/v7e-m+dp/hard/libcr_c.a(alloc.o)
                              ./drivers/fsl_common.o (malloc)
/usr/local/mcuxpressoide-11.6.1_8255/ide/plugins/com.nxp.mcuxpresso.tools.linux_11.6.1.202207200623/tools/bin/../lib/gcc/arm-none-eabi/10.3.1/../../../../arm-none-eabi/lib/thumb/v7e-m+dp/hard/libcr_c.a(initio.o)
                              /usr/local/mcuxpressoide-11.6.1_8255/ide/plugins/com.nxp.mcuxpresso.tools.linux_11.6.1.202207200623/tools/bin/../lib/gcc/arm-none-eabi/10.3.1/../../../../arm-none-eabi/lib/thumb/v7e-m+dp/hard/libcr_nohost_nf.a(_cr__main.o) (_initio)
/usr/local/mcuxpressoide-11.6.1_8255/ide/plugins/com.nxp.mcuxpresso.tools.linux_11.6.1.202207200623/tools/bin/../lib/gcc/arm-none-eabi/10.3.1/../../../../arm-none-eabi/lib/thumb/v7e-m+dp/hard/libcr_c.a(setvbuf.o)
                              /usr/local/mcuxpressoide-11.6.1_8255/ide/plugins/com.nxp.mcuxpresso.tools.linux_11.6.1.202207200623/tools/bin/../lib/gcc/arm-none-eabi/10.3.1/../../../../arm-none-eabi/lib/thumb/v7e-m+dp/hard/libcr_c.a(initio.o) (setvbuf)
/usr/local/mcuxpressoide-11.6.1_8255/ide/plugins/com.nxp.mcuxpresso.tools.linux_11.6.1.202207200623/tools/bin/../lib/gcc/arm-none-eabi/10.3.1/../../../../arm-none-eabi/lib/thumb/v7e-m+dp/hard/libcr_c.a(strlen.o)
                              ./utilities/fsl_debug_console.o (strlen)
/usr/local/mcuxpressoide-11.6.1_8255/ide/plugins/com.nxp.mcuxpresso.tools.linux_11.6.1.202207200623/tools/bin/../lib/gcc/arm-none-eabi/10.3.1/../../../../arm-none-eabi/lib/thumb/v7e-m+dp/hard/libcr_c.a(__init_alloc.o)
                              /usr/local/mcuxpressoide-11.6.1_8255/ide/plugins/com.nxp.mcuxpresso.tools.linux_11.6.1.202207200623/tools/bin/../lib/gcc/arm-none-eabi/10.3.1/../../../../arm-none-eabi/lib/thumb/v7e-m+dp/hard/libcr_c.a(alloc.o) (__heaps)
/usr/local/mcuxpressoide-11.6.1_8255/ide/plugins/com.nxp.mcuxpresso.tools.linux_11.6.1.202207200623/tools/bin/../lib/gcc/arm-none-eabi/10.3.1/../../../../arm-none-eabi/lib/thumb/v7e-m+dp/hard/libcr_c.a(_cr_sbrk.o)
                              /usr/local/mcuxpressoide-11.6.1_8255/ide/plugins/com.nxp.mcuxpresso.tools.linux_11.6.1.202207200623/tools/bin/../lib/gcc/arm-none-eabi/10.3.1/../../../../arm-none-eabi/lib/thumb/v7e-m+dp/hard/libcr_c.a(alloc.o) (_sbrk)
/usr/local/mcuxpressoide-11.6.1_8255/ide/plugins/com.nxp.mcuxpresso.tools.linux_11.6.1.202207200623/tools/bin/../lib/gcc/arm-none-eabi/10.3.1/../../../../arm-none-eabi/lib/thumb/v7e-m+dp/hard/libcr_c.a(_fdopen.o)
                              /usr/local/mcuxpressoide-11.6.1_8255/ide/plugins/com.nxp.mcuxpresso.tools.linux_11.6.1.202207200623/tools/bin/../lib/gcc/arm-none-eabi/10.3.1/../../../../arm-none-eabi/lib/thumb/v7e-m+dp/hard/libcr_c.a(initio.o) (_fdopen)
/usr/local/mcuxpressoide-11.6.1_8255/ide/plugins/com.nxp.mcuxpresso.tools.linux_11.6.1.202207200623/tools/bin/../lib/gcc/arm-none-eabi/10.3.1/../../../../arm-none-eabi/lib/thumb/v7e-m+dp/hard/libcr_c.a(errno.o)
                              /usr/local/mcuxpressoide-11.6.1_8255/ide/plugins/com.nxp.mcuxpresso.tools.linux_11.6.1.202207200623/tools/bin/../lib/gcc/arm-none-eabi/10.3.1/../../../../arm-none-eabi/lib/thumb/v7e-m+dp/hard/libcr_c.a(_cr_sbrk.o) (errno)
/usr/local/mcuxpressoide-11.6.1_8255/ide/plugins/com.nxp.mcuxpresso.tools.linux_11.6.1.202207200623/tools/bin/../lib/gcc/arm-none-eabi/10.3.1/../../../../arm-none-eabi/lib/thumb/v7e-m+dp/hard/libcr_c.a(fclose.o)
                              /usr/local/mcuxpressoide-11.6.1_8255/ide/plugins/com.nxp.mcuxpresso.tools.linux_11.6.1.202207200623/tools/bin/../lib/gcc/arm-none-eabi/10.3.1/../../../../arm-none-eabi/lib/thumb/v7e-m+dp/hard/libcr_c.a(initio.o) (fclose)
/usr/local/mcuxpressoide-11.6.1_8255/ide/plugins/com.nxp.mcuxpresso.tools.linux_11.6.1.202207200623/tools/bin/../lib/gcc/arm-none-eabi/10.3.1/../../../../arm-none-eabi/lib/thumb/v7e-m+dp/hard/libcr_c.a(fflush.o)
                              /usr/local/mcuxpressoide-11.6.1_8255/ide/plugins/com.nxp.mcuxpresso.tools.linux_11.6.1.202207200623/tools/bin/../lib/gcc/arm-none-eabi/10.3.1/../../../../arm-none-eabi/lib/thumb/v7e-m+dp/hard/libcr_c.a(fclose.o) (fflush)
/usr/local/mcuxpressoide-11.6.1_8255/ide/plugins/com.nxp.mcuxpresso.tools.linux_11.6.1.202207200623/tools/bin/../lib/gcc/arm-none-eabi/10.3.1/../../../../arm-none-eabi/lib/thumb/v7e-m+dp/hard/libcr_c.a(fseek.o)
                              /usr/local/mcuxpressoide-11.6.1_8255/ide/plugins/com.nxp.mcuxpresso.tools.linux_11.6.1.202207200623/tools/bin/../lib/gcc/arm-none-eabi/10.3.1/../../../../arm-none-eabi/lib/thumb/v7e-m+dp/hard/libcr_c.a(_fdopen.o) (fseek)
/usr/local/mcuxpressoide-11.6.1_8255/ide/plugins/com.nxp.mcuxpresso.tools.linux_11.6.1.202207200623/tools/bin/../lib/gcc/arm-none-eabi/10.3.1/../../../../arm-none-eabi/lib/thumb/v7e-m+dp/hard/libcr_c.a(ftell.o)
                              /usr/local/mcuxpressoide-11.6.1_8255/ide/plugins/com.nxp.mcuxpresso.tools.linux_11.6.1.202207200623/tools/bin/../lib/gcc/arm-none-eabi/10.3.1/../../../../arm-none-eabi/lib/thumb/v7e-m+dp/hard/libcr_c.a(fseek.o) (ftell)
/usr/local/mcuxpressoide-11.6.1_8255/ide/plugins/com.nxp.mcuxpresso.tools.linux_11.6.1.202207200623/tools/bin/../lib/gcc/arm-none-eabi/10.3.1/../../../../arm-none-eabi/lib/thumb/v7e-m+dp/hard/libcr_c.a(remove.o)
                              /usr/local/mcuxpressoide-11.6.1_8255/ide/plugins/com.nxp.mcuxpresso.tools.linux_11.6.1.202207200623/tools/bin/../lib/gcc/arm-none-eabi/10.3.1/../../../../arm-none-eabi/lib/thumb/v7e-m+dp/hard/libcr_c.a(fclose.o) (remove)
/usr/local/mcuxpressoide-11.6.1_8255/ide/plugins/com.nxp.mcuxpresso.tools.linux_11.6.1.202207200623/tools/bin/../lib/gcc/arm-none-eabi/10.3.1/../../../../arm-none-eabi/lib/thumb/v7e-m+dp/hard/libcr_c.a(_cr_check_heap.o)
                              /usr/local/mcuxpressoide-11.6.1_8255/ide/plugins/com.nxp.mcuxpresso.tools.linux_11.6.1.202207200623/tools/bin/../lib/gcc/arm-none-eabi/10.3.1/../../../../arm-none-eabi/lib/thumb/v7e-m+dp/hard/libcr_c.a(_cr_sbrk.o) (__check_heap_overflow)
/usr/local/mcuxpressoide-11.6.1_8255/ide/plugins/com.nxp.mcuxpresso.tools.linux_11.6.1.202207200623/tools/bin/../lib/gcc/arm-none-eabi/10.3.1/../../../../arm-none-eabi/lib/thumb/v7e-m+dp/hard/libcr_c.a(_do_fflush.o)
                              /usr/local/mcuxpressoide-11.6.1_8255/ide/plugins/com.nxp.mcuxpresso.tools.linux_11.6.1.202207200623/tools/bin/../lib/gcc/arm-none-eabi/10.3.1/../../../../arm-none-eabi/lib/thumb/v7e-m+dp/hard/libcr_c.a(fflush.o) (_do_fflush)
/usr/local/mcuxpressoide-11.6.1_8255/ide/plugins/com.nxp.mcuxpresso.tools.linux_11.6.1.202207200623/tools/bin/../lib/gcc/arm-none-eabi/10.3.1/../../../../arm-none-eabi/lib/thumb/v7e-m+dp/hard/libcr_c.a(_fflush.o)
                              /usr/local/mcuxpressoide-11.6.1_8255/ide/plugins/com.nxp.mcuxpresso.tools.linux_11.6.1.202207200623/tools/bin/../lib/gcc/arm-none-eabi/10.3.1/../../../../arm-none-eabi/lib/thumb/v7e-m+dp/hard/libcr_c.a(_do_fflush.o) (_fflush)
/usr/local/mcuxpressoide-11.6.1_8255/ide/plugins/com.nxp.mcuxpresso.tools.linux_11.6.1.202207200623/tools/bin/../lib/gcc/arm-none-eabi/10.3.1/../../../../arm-none-eabi/lib/thumb/v7e-m+dp/hard/libcr_c.a(_writebuf.o)
                              /usr/local/mcuxpressoide-11.6.1_8255/ide/plugins/com.nxp.mcuxpresso.tools.linux_11.6.1.202207200623/tools/bin/../lib/gcc/arm-none-eabi/10.3.1/../../../../arm-none-eabi/lib/thumb/v7e-m+dp/hard/libcr_c.a(_fflush.o) (_Cwritebuf)
/usr/local/mcuxpressoide-11.6.1_8255/ide/plugins/com.nxp.mcuxpresso.tools.linux_11.6.1.202207200623/tools/bin/../lib/gcc/arm-none-eabi/10.3.1/../../../../arm-none-eabi/lib/thumb/v7e-m+dp/hard/libcr_c.a(_deferredlazyseek.o)
                              /usr/local/mcuxpressoide-11.6.1_8255/ide/plugins/com.nxp.mcuxpresso.tools.linux_11.6.1.202207200623/tools/bin/../lib/gcc/arm-none-eabi/10.3.1/../../../../arm-none-eabi/lib/thumb/v7e-m+dp/hard/libcr_c.a(_do_fflush.o) (_deferredlazyseek)
/usr/local/mcuxpressoide-11.6.1_8255/ide/plugins/com.nxp.mcuxpresso.tools.linux_11.6.1.202207200623/tools/bin/../lib/gcc/arm-none-eabi/10.3.1/thumb/v7e-m+dp/hard/libcr_eabihelpers.a(division_64.o)
                              ./drivers/fsl_common_arm.o (__aeabi_uldivmod)
/usr/local/mcuxpressoide-11.6.1_8255/ide/plugins/com.nxp.mcuxpresso.tools.linux_11.6.1.202207200623/tools/bin/../lib/gcc/arm-none-eabi/10.3.1/thumb/v7e-m+dp/hard/libcr_eabihelpers.a(division_idiv0.o)
                              /usr/local/mcuxpressoide-11.6.1_8255/ide/plugins/com.nxp.mcuxpresso.tools.linux_11.6.1.202207200623/tools/bin/../lib/gcc/arm-none-eabi/10.3.1/thumb/v7e-m+dp/hard/libcr_eabihelpers.a(division_64.o) (__aeabi_idiv0)
/usr/local/mcuxpressoide-11.6.1_8255/ide/plugins/com.nxp.mcuxpresso.tools.linux_11.6.1.202207200623/tools/bin/../lib/gcc/arm-none-eabi/10.3.1/thumb/v7e-m+dp/hard/libcr_eabihelpers.a(memcpy.o)
                              /usr/local/mcuxpressoide-11.6.1_8255/ide/plugins/com.nxp.mcuxpresso.tools.linux_11.6.1.202207200623/tools/bin/../lib/gcc/arm-none-eabi/10.3.1/../../../../arm-none-eabi/lib/thumb/v7e-m+dp/hard/libcr_c.a(memcpy.o) (__aeabi_memcpy)
/usr/local/mcuxpressoide-11.6.1_8255/ide/plugins/com.nxp.mcuxpresso.tools.linux_11.6.1.202207200623/tools/bin/../lib/gcc/arm-none-eabi/10.3.1/../../../../arm-none-eabi/lib/thumb/v7e-m+dp/hard/libcr_nohost_nf.a(__ciob.o)
                              /usr/local/mcuxpressoide-11.6.1_8255/ide/plugins/com.nxp.mcuxpresso.tools.linux_11.6.1.202207200623/tools/bin/../lib/gcc/arm-none-eabi/10.3.1/../../../../arm-none-eabi/lib/thumb/v7e-m+dp/hard/libcr_c.a(initio.o) (__Ciob)
/usr/local/mcuxpressoide-11.6.1_8255/ide/plugins/com.nxp.mcuxpresso.tools.linux_11.6.1.202207200623/tools/bin/../lib/gcc/arm-none-eabi/10.3.1/../../../../arm-none-eabi/lib/thumb/v7e-m+dp/hard/libcr_nohost_nf.a(__sys_appexit.o)
                              /usr/local/mcuxpressoide-11.6.1_8255/ide/plugins/com.nxp.mcuxpresso.tools.linux_11.6.1.202207200623/tools/bin/../lib/gcc/arm-none-eabi/10.3.1/../../../../arm-none-eabi/lib/thumb/v7e-m+dp/hard/libcr_c.a(alloc.o) (__sys_appexit)
/usr/local/mcuxpressoide-11.6.1_8255/ide/plugins/com.nxp.mcuxpresso.tools.linux_11.6.1.202207200623/tools/bin/../lib/gcc/arm-none-eabi/10.3.1/../../../../arm-none-eabi/lib/thumb/v7e-m+dp/hard/libcr_nohost_nf.a(__sys_close.o)
                              /usr/local/mcuxpressoide-11.6.1_8255/ide/plugins/com.nxp.mcuxpresso.tools.linux_11.6.1.202207200623/tools/bin/../lib/gcc/arm-none-eabi/10.3.1/../../../../arm-none-eabi/lib/thumb/v7e-m+dp/hard/libcr_c.a(fclose.o) (__sys_close)
/usr/local/mcuxpressoide-11.6.1_8255/ide/plugins/com.nxp.mcuxpresso.tools.linux_11.6.1.202207200623/tools/bin/../lib/gcc/arm-none-eabi/10.3.1/../../../../arm-none-eabi/lib/thumb/v7e-m+dp/hard/libcr_nohost_nf.a(__sys_flen.o)
                              /usr/local/mcuxpressoide-11.6.1_8255/ide/plugins/com.nxp.mcuxpresso.tools.linux_11.6.1.202207200623/tools/bin/../lib/gcc/arm-none-eabi/10.3.1/../../../../arm-none-eabi/lib/thumb/v7e-m+dp/hard/libcr_c.a(fseek.o) (__sys_flen)
/usr/local/mcuxpressoide-11.6.1_8255/ide/plugins/com.nxp.mcuxpresso.tools.linux_11.6.1.202207200623/tools/bin/../lib/gcc/arm-none-eabi/10.3.1/../../../../arm-none-eabi/lib/thumb/v7e-m+dp/hard/libcr_nohost_nf.a(__sys_istty.o)
                              /usr/local/mcuxpressoide-11.6.1_8255/ide/plugins/com.nxp.mcuxpresso.tools.linux_11.6.1.202207200623/tools/bin/../lib/gcc/arm-none-eabi/10.3.1/../../../../arm-none-eabi/lib/thumb/v7e-m+dp/hard/libcr_c.a(fseek.o) (__sys_istty)
/usr/local/mcuxpressoide-11.6.1_8255/ide/plugins/com.nxp.mcuxpresso.tools.linux_11.6.1.202207200623/tools/bin/../lib/gcc/arm-none-eabi/10.3.1/../../../../arm-none-eabi/lib/thumb/v7e-m+dp/hard/libcr_nohost_nf.a(__sys_remove.o)
                              /usr/local/mcuxpressoide-11.6.1_8255/ide/plugins/com.nxp.mcuxpresso.tools.linux_11.6.1.202207200623/tools/bin/../lib/gcc/arm-none-eabi/10.3.1/../../../../arm-none-eabi/lib/thumb/v7e-m+dp/hard/libcr_c.a(remove.o) (__sys_remove)
/usr/local/mcuxpressoide-11.6.1_8255/ide/plugins/com.nxp.mcuxpresso.tools.linux_11.6.1.202207200623/tools/bin/../lib/gcc/arm-none-eabi/10.3.1/../../../../arm-none-eabi/lib/thumb/v7e-m+dp/hard/libcr_nohost_nf.a(__sys_rename.o)
                              /usr/local/mcuxpressoide-11.6.1_8255/ide/plugins/com.nxp.mcuxpresso.tools.linux_11.6.1.202207200623/tools/bin/../lib/gcc/arm-none-eabi/10.3.1/../../../../arm-none-eabi/lib/thumb/v7e-m+dp/hard/libcr_c.a(remove.o) (__sys_rename)
/usr/local/mcuxpressoide-11.6.1_8255/ide/plugins/com.nxp.mcuxpresso.tools.linux_11.6.1.202207200623/tools/bin/../lib/gcc/arm-none-eabi/10.3.1/../../../../arm-none-eabi/lib/thumb/v7e-m+dp/hard/libcr_nohost_nf.a(__sys_seek.o)
                              /usr/local/mcuxpressoide-11.6.1_8255/ide/plugins/com.nxp.mcuxpresso.tools.linux_11.6.1.202207200623/tools/bin/../lib/gcc/arm-none-eabi/10.3.1/../../../../arm-none-eabi/lib/thumb/v7e-m+dp/hard/libcr_c.a(_writebuf.o) (__sys_seek)
/usr/local/mcuxpressoide-11.6.1_8255/ide/plugins/com.nxp.mcuxpresso.tools.linux_11.6.1.202207200623/tools/bin/../lib/gcc/arm-none-eabi/10.3.1/../../../../arm-none-eabi/lib/thumb/v7e-m+dp/hard/libcr_nohost_nf.a(__sys_tmpnam.o)
                              /usr/local/mcuxpressoide-11.6.1_8255/ide/plugins/com.nxp.mcuxpresso.tools.linux_11.6.1.202207200623/tools/bin/../lib/gcc/arm-none-eabi/10.3.1/../../../../arm-none-eabi/lib/thumb/v7e-m+dp/hard/libcr_c.a(fclose.o) (__sys_tmpnam)
/usr/local/mcuxpressoide-11.6.1_8255/ide/plugins/com.nxp.mcuxpresso.tools.linux_11.6.1.202207200623/tools/bin/../lib/gcc/arm-none-eabi/10.3.1/../../../../arm-none-eabi/lib/thumb/v7e-m+dp/hard/libcr_nohost_nf.a(__sys_write.o)
                              /usr/local/mcuxpressoide-11.6.1_8255/ide/plugins/com.nxp.mcuxpresso.tools.linux_11.6.1.202207200623/tools/bin/../lib/gcc/arm-none-eabi/10.3.1/../../../../arm-none-eabi/lib/thumb/v7e-m+dp/hard/libcr_c.a(alloc.o) (__sys_write)

Discarded input sections

 .group         0x0000000000000000        0xc ./xip/evkmimxrt1020_flexspi_nor_config.o
 .group         0x0000000000000000        0xc ./xip/evkmimxrt1020_flexspi_nor_config.o
 .group         0x0000000000000000        0xc ./xip/evkmimxrt1020_flexspi_nor_config.o
 .group         0x0000000000000000        0xc ./xip/evkmimxrt1020_flexspi_nor_config.o
 .group         0x0000000000000000        0xc ./xip/evkmimxrt1020_flexspi_nor_config.o
 .group         0x0000000000000000        0xc ./xip/evkmimxrt1020_flexspi_nor_config.o
 .group         0x0000000000000000        0xc ./xip/evkmimxrt1020_flexspi_nor_config.o
 .group         0x0000000000000000        0xc ./xip/evkmimxrt1020_flexspi_nor_config.o
 .group         0x0000000000000000        0xc ./xip/evkmimxrt1020_flexspi_nor_config.o
 .group         0x0000000000000000        0xc ./xip/evkmimxrt1020_flexspi_nor_config.o
 .group         0x0000000000000000        0xc ./xip/evkmimxrt1020_flexspi_nor_config.o
 .group         0x0000000000000000        0xc ./xip/evkmimxrt1020_flexspi_nor_config.o
 .group         0x0000000000000000        0xc ./xip/evkmimxrt1020_flexspi_nor_config.o
 .group         0x0000000000000000        0xc ./xip/evkmimxrt1020_flexspi_nor_config.o
 .group         0x0000000000000000        0xc ./xip/evkmimxrt1020_flexspi_nor_config.o
 .group         0x0000000000000000        0xc ./xip/evkmimxrt1020_flexspi_nor_config.o
 .group         0x0000000000000000        0xc ./xip/evkmimxrt1020_flexspi_nor_config.o
 .group         0x0000000000000000        0xc ./xip/evkmimxrt1020_flexspi_nor_config.o
 .group         0x0000000000000000        0xc ./xip/evkmimxrt1020_flexspi_nor_config.o
 .group         0x0000000000000000        0xc ./xip/evkmimxrt1020_flexspi_nor_config.o
 .group         0x0000000000000000        0xc ./xip/evkmimxrt1020_flexspi_nor_config.o
 .group         0x0000000000000000        0xc ./xip/evkmimxrt1020_flexspi_nor_config.o
 .text          0x0000000000000000        0x0 ./xip/evkmimxrt1020_flexspi_nor_config.o
 .data          0x0000000000000000        0x0 ./xip/evkmimxrt1020_flexspi_nor_config.o
 .bss           0x0000000000000000        0x0 ./xip/evkmimxrt1020_flexspi_nor_config.o
 .group         0x0000000000000000        0xc ./xip/fsl_flexspi_nor_boot.o
 .group         0x0000000000000000        0xc ./xip/fsl_flexspi_nor_boot.o
 .group         0x0000000000000000        0xc ./xip/fsl_flexspi_nor_boot.o
 .group         0x0000000000000000        0xc ./xip/fsl_flexspi_nor_boot.o
 .group         0x0000000000000000        0xc ./xip/fsl_flexspi_nor_boot.o
 .group         0x0000000000000000        0xc ./xip/fsl_flexspi_nor_boot.o
 .group         0x0000000000000000        0xc ./xip/fsl_flexspi_nor_boot.o
 .group         0x0000000000000000        0xc ./xip/fsl_flexspi_nor_boot.o
 .group         0x0000000000000000        0xc ./xip/fsl_flexspi_nor_boot.o
 .group         0x0000000000000000        0xc ./xip/fsl_flexspi_nor_boot.o
 .group         0x0000000000000000        0xc ./xip/fsl_flexspi_nor_boot.o
 .group         0x0000000000000000        0xc ./xip/fsl_flexspi_nor_boot.o
 .group         0x0000000000000000        0xc ./xip/fsl_flexspi_nor_boot.o
 .group         0x0000000000000000        0xc ./xip/fsl_flexspi_nor_boot.o
 .group         0x0000000000000000        0xc ./xip/fsl_flexspi_nor_boot.o
 .group         0x0000000000000000        0xc ./xip/fsl_flexspi_nor_boot.o
 .group         0x0000000000000000        0xc ./xip/fsl_flexspi_nor_boot.o
 .group         0x0000000000000000        0xc ./xip/fsl_flexspi_nor_boot.o
 .group         0x0000000000000000        0xc ./xip/fsl_flexspi_nor_boot.o
 .group         0x0000000000000000        0xc ./xip/fsl_flexspi_nor_boot.o
 .group         0x0000000000000000        0xc ./xip/fsl_flexspi_nor_boot.o
 .group         0x0000000000000000        0xc ./xip/fsl_flexspi_nor_boot.o
 .group         0x0000000000000000        0xc ./xip/fsl_flexspi_nor_boot.o
 .group         0x0000000000000000        0xc ./xip/fsl_flexspi_nor_boot.o
 .group         0x0000000000000000        0xc ./xip/fsl_flexspi_nor_boot.o
 .text          0x0000000000000000        0x0 ./xip/fsl_flexspi_nor_boot.o
 .data          0x0000000000000000        0x0 ./xip/fsl_flexspi_nor_boot.o
 .bss           0x0000000000000000        0x0 ./xip/fsl_flexspi_nor_boot.o
 .debug_macro   0x0000000000000000      0xacc ./xip/fsl_flexspi_nor_boot.o
 .debug_macro   0x0000000000000000       0x10 ./xip/fsl_flexspi_nor_boot.o
 .debug_macro   0x0000000000000000      0x12e ./xip/fsl_flexspi_nor_boot.o
 .debug_macro   0x0000000000000000      0x5b3 ./xip/fsl_flexspi_nor_boot.o
 .debug_macro   0x0000000000000000       0x16 ./xip/fsl_flexspi_nor_boot.o
 .debug_macro   0x0000000000000000       0x22 ./xip/fsl_flexspi_nor_boot.o
 .debug_macro   0x0000000000000000       0x22 ./xip/fsl_flexspi_nor_boot.o
 .debug_macro   0x0000000000000000       0x10 ./xip/fsl_flexspi_nor_boot.o
 .debug_macro   0x0000000000000000       0x4d ./xip/fsl_flexspi_nor_boot.o
 .debug_macro   0x0000000000000000       0x1c ./xip/fsl_flexspi_nor_boot.o
 .debug_macro   0x0000000000000000       0x22 ./xip/fsl_flexspi_nor_boot.o
 .debug_macro   0x0000000000000000       0xfb ./xip/fsl_flexspi_nor_boot.o
 .debug_macro   0x0000000000000000     0x1313 ./xip/fsl_flexspi_nor_boot.o
 .debug_macro   0x0000000000000000      0x11f ./xip/fsl_flexspi_nor_boot.o
 .debug_macro   0x0000000000000000       0x22 ./xip/fsl_flexspi_nor_boot.o
 .debug_macro   0x0000000000000000       0x1c ./xip/fsl_flexspi_nor_boot.o
 .debug_macro   0x0000000000000000    0x201e7 ./xip/fsl_flexspi_nor_boot.o
 .debug_macro   0x0000000000000000      0x80e ./xip/fsl_flexspi_nor_boot.o
 .debug_macro   0x0000000000000000       0x7a ./xip/fsl_flexspi_nor_boot.o
 .debug_macro   0x0000000000000000       0xaf ./xip/fsl_flexspi_nor_boot.o
 .debug_macro   0x0000000000000000      0x21e ./xip/fsl_flexspi_nor_boot.o
 .group         0x0000000000000000        0xc ./utilities/fsl_assert.o
 .group         0x0000000000000000        0xc ./utilities/fsl_assert.o
 .group         0x0000000000000000        0xc ./utilities/fsl_assert.o
 .group         0x0000000000000000        0xc ./utilities/fsl_assert.o
 .group         0x0000000000000000        0xc ./utilities/fsl_assert.o
 .group         0x0000000000000000        0xc ./utilities/fsl_assert.o
 .group         0x0000000000000000        0xc ./utilities/fsl_assert.o
 .group         0x0000000000000000        0xc ./utilities/fsl_assert.o
 .group         0x0000000000000000        0xc ./utilities/fsl_assert.o
 .group         0x0000000000000000        0xc ./utilities/fsl_assert.o
 .group         0x0000000000000000        0xc ./utilities/fsl_assert.o
 .group         0x0000000000000000        0xc ./utilities/fsl_assert.o
 .group         0x0000000000000000        0xc ./utilities/fsl_assert.o
 .group         0x0000000000000000        0xc ./utilities/fsl_assert.o
 .group         0x0000000000000000        0xc ./utilities/fsl_assert.o
 .group         0x0000000000000000        0xc ./utilities/fsl_assert.o
 .group         0x0000000000000000        0xc ./utilities/fsl_assert.o
 .group         0x0000000000000000        0xc ./utilities/fsl_assert.o
 .group         0x0000000000000000        0xc ./utilities/fsl_assert.o
 .group         0x0000000000000000        0xc ./utilities/fsl_assert.o
 .group         0x0000000000000000        0xc ./utilities/fsl_assert.o
 .group         0x0000000000000000        0xc ./utilities/fsl_assert.o
 .group         0x0000000000000000        0xc ./utilities/fsl_assert.o
 .group         0x0000000000000000        0xc ./utilities/fsl_assert.o
 .text          0x0000000000000000        0x0 ./utilities/fsl_assert.o
 .data          0x0000000000000000        0x0 ./utilities/fsl_assert.o
 .bss           0x0000000000000000        0x0 ./utilities/fsl_assert.o
 .debug_macro   0x0000000000000000      0xacc ./utilities/fsl_assert.o
 .debug_macro   0x0000000000000000       0x10 ./utilities/fsl_assert.o
 .debug_macro   0x0000000000000000       0x22 ./utilities/fsl_assert.o
 .debug_macro   0x0000000000000000      0x12e ./utilities/fsl_assert.o
 .debug_macro   0x0000000000000000      0x5b3 ./utilities/fsl_assert.o
 .debug_macro   0x0000000000000000       0x22 ./utilities/fsl_assert.o
 .debug_macro   0x0000000000000000       0x10 ./utilities/fsl_assert.o
 .debug_macro   0x0000000000000000       0x4d ./utilities/fsl_assert.o
 .debug_macro   0x0000000000000000       0x1c ./utilities/fsl_assert.o
 .debug_macro   0x0000000000000000       0x22 ./utilities/fsl_assert.o
 .debug_macro   0x0000000000000000       0xfb ./utilities/fsl_assert.o
 .debug_macro   0x0000000000000000     0x1313 ./utilities/fsl_assert.o
 .debug_macro   0x0000000000000000      0x11f ./utilities/fsl_assert.o
 .debug_macro   0x0000000000000000       0x22 ./utilities/fsl_assert.o
 .debug_macro   0x0000000000000000       0x1c ./utilities/fsl_assert.o
 .debug_macro   0x0000000000000000    0x201e7 ./utilities/fsl_assert.o
 .debug_macro   0x0000000000000000      0x80e ./utilities/fsl_assert.o
 .debug_macro   0x0000000000000000       0x7a ./utilities/fsl_assert.o
 .debug_macro   0x0000000000000000       0xaf ./utilities/fsl_assert.o
 .debug_macro   0x0000000000000000      0x21e ./utilities/fsl_assert.o
 .group         0x0000000000000000        0xc ./utilities/fsl_debug_console.o
 .group         0x0000000000000000        0xc ./utilities/fsl_debug_console.o
 .group         0x0000000000000000        0xc ./utilities/fsl_debug_console.o
 .group         0x0000000000000000        0xc ./utilities/fsl_debug_console.o
 .group         0x0000000000000000        0xc ./utilities/fsl_debug_console.o
 .group         0x0000000000000000        0xc ./utilities/fsl_debug_console.o
 .group         0x0000000000000000        0xc ./utilities/fsl_debug_console.o
 .group         0x0000000000000000        0xc ./utilities/fsl_debug_console.o
 .group         0x0000000000000000        0xc ./utilities/fsl_debug_console.o
 .group         0x0000000000000000        0xc ./utilities/fsl_debug_console.o
 .group         0x0000000000000000        0xc ./utilities/fsl_debug_console.o
 .group         0x0000000000000000        0xc ./utilities/fsl_debug_console.o
 .group         0x0000000000000000        0xc ./utilities/fsl_debug_console.o
 .group         0x0000000000000000        0xc ./utilities/fsl_debug_console.o
 .group         0x0000000000000000        0xc ./utilities/fsl_debug_console.o
 .group         0x0000000000000000        0xc ./utilities/fsl_debug_console.o
 .group         0x0000000000000000        0xc ./utilities/fsl_debug_console.o
 .group         0x0000000000000000        0xc ./utilities/fsl_debug_console.o
 .group         0x0000000000000000        0xc ./utilities/fsl_debug_console.o
 .group         0x0000000000000000        0xc ./utilities/fsl_debug_console.o
 .group         0x0000000000000000        0xc ./utilities/fsl_debug_console.o
 .group         0x0000000000000000        0xc ./utilities/fsl_debug_console.o
 .group         0x0000000000000000        0xc ./utilities/fsl_debug_console.o
 .group         0x0000000000000000        0xc ./utilities/fsl_debug_console.o
 .group         0x0000000000000000        0xc ./utilities/fsl_debug_console.o
 .group         0x0000000000000000        0xc ./utilities/fsl_debug_console.o
 .group         0x0000000000000000        0xc ./utilities/fsl_debug_console.o
 .text          0x0000000000000000        0x0 ./utilities/fsl_debug_console.o
 .data          0x0000000000000000        0x0 ./utilities/fsl_debug_console.o
 .bss           0x0000000000000000        0x0 ./utilities/fsl_debug_console.o
 .text.DbgConsole_Deinit
                0x0000000000000000       0x28 ./utilities/fsl_debug_console.o
 .text.DbgConsole_Scanf
                0x0000000000000000       0xb0 ./utilities/fsl_debug_console.o
 .text.DbgConsole_Getchar
                0x0000000000000000       0x3c ./utilities/fsl_debug_console.o
 .text.DbgConsole_ScanIgnoreWhiteSpace
                0x0000000000000000       0x60 ./utilities/fsl_debug_console.o
 .text.DbgConsole_ScanfFormattedData
                0x0000000000000000      0x624 ./utilities/fsl_debug_console.o
 .debug_macro   0x0000000000000000      0xacc ./utilities/fsl_debug_console.o
 .debug_macro   0x0000000000000000       0x10 ./utilities/fsl_debug_console.o
 .debug_macro   0x0000000000000000      0x12e ./utilities/fsl_debug_console.o
 .debug_macro   0x0000000000000000       0x16 ./utilities/fsl_debug_console.o
 .debug_macro   0x0000000000000000       0x22 ./utilities/fsl_debug_console.o
 .debug_macro   0x0000000000000000      0x5b3 ./utilities/fsl_debug_console.o
 .debug_macro   0x0000000000000000       0x10 ./utilities/fsl_debug_console.o
 .debug_macro   0x0000000000000000       0x4d ./utilities/fsl_debug_console.o
 .debug_macro   0x0000000000000000       0x1c ./utilities/fsl_debug_console.o
 .debug_macro   0x0000000000000000       0x22 ./utilities/fsl_debug_console.o
 .debug_macro   0x0000000000000000       0xfb ./utilities/fsl_debug_console.o
 .debug_macro   0x0000000000000000     0x1313 ./utilities/fsl_debug_console.o
 .debug_macro   0x0000000000000000      0x11f ./utilities/fsl_debug_console.o
 .debug_macro   0x0000000000000000       0x22 ./utilities/fsl_debug_console.o
 .debug_macro   0x0000000000000000       0x1c ./utilities/fsl_debug_console.o
 .debug_macro   0x0000000000000000    0x201e7 ./utilities/fsl_debug_console.o
 .debug_macro   0x0000000000000000      0x80e ./utilities/fsl_debug_console.o
 .debug_macro   0x0000000000000000       0x7a ./utilities/fsl_debug_console.o
 .debug_macro   0x0000000000000000       0xaf ./utilities/fsl_debug_console.o
 .debug_macro   0x0000000000000000      0x21e ./utilities/fsl_debug_console.o
 .debug_macro   0x0000000000000000       0x34 ./utilities/fsl_debug_console.o
 .group         0x0000000000000000        0xc ./startup/startup_mimxrt1021.o
 .text          0x0000000000000000        0x0 ./startup/startup_mimxrt1021.o
 .data          0x0000000000000000        0x0 ./startup/startup_mimxrt1021.o
 .bss           0x0000000000000000        0x0 ./startup/startup_mimxrt1021.o
 .debug_macro   0x0000000000000000      0xacc ./startup/startup_mimxrt1021.o
 .group         0x0000000000000000        0xc ./source/gpio_led_output.o
 .group         0x0000000000000000        0xc ./source/gpio_led_output.o
 .group         0x0000000000000000        0xc ./source/gpio_led_output.o
 .group         0x0000000000000000        0xc ./source/gpio_led_output.o
 .group         0x0000000000000000        0xc ./source/gpio_led_output.o
 .group         0x0000000000000000        0xc ./source/gpio_led_output.o
 .group         0x0000000000000000        0xc ./source/gpio_led_output.o
 .group         0x0000000000000000        0xc ./source/gpio_led_output.o
 .group         0x0000000000000000        0xc ./source/gpio_led_output.o
 .group         0x0000000000000000        0xc ./source/gpio_led_output.o
 .group         0x0000000000000000        0xc ./source/gpio_led_output.o
 .group         0x0000000000000000        0xc ./source/gpio_led_output.o
 .group         0x0000000000000000        0xc ./source/gpio_led_output.o
 .group         0x0000000000000000        0xc ./source/gpio_led_output.o
 .group         0x0000000000000000        0xc ./source/gpio_led_output.o
 .group         0x0000000000000000        0xc ./source/gpio_led_output.o
 .group         0x0000000000000000        0xc ./source/gpio_led_output.o
 .group         0x0000000000000000        0xc ./source/gpio_led_output.o
 .group         0x0000000000000000        0xc ./source/gpio_led_output.o
 .group         0x0000000000000000        0xc ./source/gpio_led_output.o
 .group         0x0000000000000000        0xc ./source/gpio_led_output.o
 .group         0x0000000000000000        0xc ./source/gpio_led_output.o
 .group         0x0000000000000000        0xc ./source/gpio_led_output.o
 .group         0x0000000000000000        0xc ./source/gpio_led_output.o
 .group         0x0000000000000000        0xc ./source/gpio_led_output.o
 .group         0x0000000000000000        0xc ./source/gpio_led_output.o
 .group         0x0000000000000000        0xc ./source/gpio_led_output.o
 .text          0x0000000000000000        0x0 ./source/gpio_led_output.o
 .data          0x0000000000000000        0x0 ./source/gpio_led_output.o
 .bss           0x0000000000000000        0x0 ./source/gpio_led_output.o
 .bss.g_pinSet  0x0000000000000000        0x1 ./source/gpio_led_output.o
 .debug_macro   0x0000000000000000      0xacc ./source/gpio_led_output.o
 .debug_macro   0x0000000000000000       0x10 ./source/gpio_led_output.o
 .debug_macro   0x0000000000000000       0x1c ./source/gpio_led_output.o
 .debug_macro   0x0000000000000000       0x22 ./source/gpio_led_output.o
 .debug_macro   0x0000000000000000      0x12e ./source/gpio_led_output.o
 .debug_macro   0x0000000000000000      0x5b3 ./source/gpio_led_output.o
 .debug_macro   0x0000000000000000       0x22 ./source/gpio_led_output.o
 .debug_macro   0x0000000000000000       0x10 ./source/gpio_led_output.o
 .debug_macro   0x0000000000000000       0x4d ./source/gpio_led_output.o
 .debug_macro   0x0000000000000000       0x1c ./source/gpio_led_output.o
 .debug_macro   0x0000000000000000       0x22 ./source/gpio_led_output.o
 .debug_macro   0x0000000000000000       0xfb ./source/gpio_led_output.o
 .debug_macro   0x0000000000000000     0x1313 ./source/gpio_led_output.o
 .debug_macro   0x0000000000000000      0x11f ./source/gpio_led_output.o
 .debug_macro   0x0000000000000000       0x22 ./source/gpio_led_output.o
 .debug_macro   0x0000000000000000       0x1c ./source/gpio_led_output.o
 .debug_macro   0x0000000000000000    0x201e7 ./source/gpio_led_output.o
 .debug_macro   0x0000000000000000      0x80e ./source/gpio_led_output.o
 .debug_macro   0x0000000000000000       0x7a ./source/gpio_led_output.o
 .debug_macro   0x0000000000000000       0xaf ./source/gpio_led_output.o
 .debug_macro   0x0000000000000000      0x21e ./source/gpio_led_output.o
 .debug_macro   0x0000000000000000       0x10 ./source/gpio_led_output.o
 .debug_macro   0x0000000000000000      0x136 ./source/gpio_led_output.o
 .debug_macro   0x0000000000000000       0x1c ./source/gpio_led_output.o
 .debug_macro   0x0000000000000000       0x1c ./source/gpio_led_output.o
 .debug_macro   0x0000000000000000       0x34 ./source/gpio_led_output.o
 .group         0x0000000000000000        0xc ./source/semihost_hardfault.o
 .text          0x0000000000000000        0x0 ./source/semihost_hardfault.o
 .data          0x0000000000000000        0x0 ./source/semihost_hardfault.o
 .bss           0x0000000000000000        0x0 ./source/semihost_hardfault.o
 .debug_macro   0x0000000000000000      0xacc ./source/semihost_hardfault.o
 .group         0x0000000000000000        0xc ./drivers/fsl_clock.o
 .group         0x0000000000000000        0xc ./drivers/fsl_clock.o
 .group         0x0000000000000000        0xc ./drivers/fsl_clock.o
 .group         0x0000000000000000        0xc ./drivers/fsl_clock.o
 .group         0x0000000000000000        0xc ./drivers/fsl_clock.o
 .group         0x0000000000000000        0xc ./drivers/fsl_clock.o
 .group         0x0000000000000000        0xc ./drivers/fsl_clock.o
 .group         0x0000000000000000        0xc ./drivers/fsl_clock.o
 .group         0x0000000000000000        0xc ./drivers/fsl_clock.o
 .group         0x0000000000000000        0xc ./drivers/fsl_clock.o
 .group         0x0000000000000000        0xc ./drivers/fsl_clock.o
 .group         0x0000000000000000        0xc ./drivers/fsl_clock.o
 .group         0x0000000000000000        0xc ./drivers/fsl_clock.o
 .group         0x0000000000000000        0xc ./drivers/fsl_clock.o
 .group         0x0000000000000000        0xc ./drivers/fsl_clock.o
 .group         0x0000000000000000        0xc ./drivers/fsl_clock.o
 .group         0x0000000000000000        0xc ./drivers/fsl_clock.o
 .group         0x0000000000000000        0xc ./drivers/fsl_clock.o
 .group         0x0000000000000000        0xc ./drivers/fsl_clock.o
 .group         0x0000000000000000        0xc ./drivers/fsl_clock.o
 .group         0x0000000000000000        0xc ./drivers/fsl_clock.o
 .text          0x0000000000000000        0x0 ./drivers/fsl_clock.o
 .data          0x0000000000000000        0x0 ./drivers/fsl_clock.o
 .bss           0x0000000000000000        0x0 ./drivers/fsl_clock.o
 .text.CLOCK_GetRtcFreq
                0x0000000000000000       0x12 ./drivers/fsl_clock.o
 .text.CLOCK_GetPeriphClkFreq
                0x0000000000000000       0xdc ./drivers/fsl_clock.o
 .text.CLOCK_GetPllUsb1SWFreq
                0x0000000000000000       0x44 ./drivers/fsl_clock.o
 .text.CLOCK_DeinitExternalClk
                0x0000000000000000       0x1c ./drivers/fsl_clock.o
 .text.CLOCK_DeinitRcOsc24M
                0x0000000000000000       0x24 ./drivers/fsl_clock.o
 .text.CLOCK_GetAhbFreq
                0x0000000000000000       0x24 ./drivers/fsl_clock.o
 .text.CLOCK_GetSemcFreq
                0x0000000000000000       0x5c ./drivers/fsl_clock.o
 .text.CLOCK_GetIpgFreq
                0x0000000000000000       0x24 ./drivers/fsl_clock.o
 .text.CLOCK_GetPerClkFreq
                0x0000000000000000       0x40 ./drivers/fsl_clock.o
 .text.CLOCK_GetFreq
                0x0000000000000000      0x198 ./drivers/fsl_clock.o
 .rodata.CLOCK_GetClockRootFreq.str1.4
                0x0000000000000000       0x35 ./drivers/fsl_clock.o
 .text.CLOCK_GetClockRootFreq
                0x0000000000000000      0x114 ./drivers/fsl_clock.o
 .text.CLOCK_EnableUsbhs0Clock
                0x0000000000000000       0x7c ./drivers/fsl_clock.o
 .text.CLOCK_EnableUsbhs0PhyPllClock
                0x0000000000000000       0x6c ./drivers/fsl_clock.o
 .text.CLOCK_DisableUsbhs0PhyPllClock
                0x0000000000000000       0x30 ./drivers/fsl_clock.o
 .text.CLOCK_DeinitSysPll
                0x0000000000000000       0x1c ./drivers/fsl_clock.o
 .text.CLOCK_InitUsb1Pll
                0x0000000000000000       0x68 ./drivers/fsl_clock.o
 .text.CLOCK_DeinitUsb1Pll
                0x0000000000000000       0x18 ./drivers/fsl_clock.o
 .text.CLOCK_InitAudioPll
                0x0000000000000000      0x12c ./drivers/fsl_clock.o
 .text.CLOCK_DeinitEnetPll
                0x0000000000000000       0x1c ./drivers/fsl_clock.o
 .text.CLOCK_DeinitSysPfd
                0x0000000000000000       0x34 ./drivers/fsl_clock.o
 .text.CLOCK_IsSysPfdEnabled
                0x0000000000000000       0x38 ./drivers/fsl_clock.o
 .text.CLOCK_InitUsb1Pfd
                0x0000000000000000       0x64 ./drivers/fsl_clock.o
 .text.CLOCK_DeinitUsb1Pfd
                0x0000000000000000       0x34 ./drivers/fsl_clock.o
 .text.CLOCK_IsUsb1PfdEnabled
                0x0000000000000000       0x38 ./drivers/fsl_clock.o
 .text.CLOCK_GetSysPfdFreq
                0x0000000000000000       0xac ./drivers/fsl_clock.o
 .text.CLOCK_GetUsb1PfdFreq
                0x0000000000000000       0xac ./drivers/fsl_clock.o
 .text.CLOCK_SetClockOutput1
                0x0000000000000000       0x64 ./drivers/fsl_clock.o
 .text.CLOCK_SetClockOutput2
                0x0000000000000000       0x64 ./drivers/fsl_clock.o
 .text.CLOCK_GetClockOutCLKO1Freq
                0x0000000000000000       0xf4 ./drivers/fsl_clock.o
 .text.CLOCK_GetClockOutClkO2Freq
                0x0000000000000000      0x144 ./drivers/fsl_clock.o
 .rodata.clockRootMuxTupleArray.4
                0x0000000000000000       0x34 ./drivers/fsl_clock.o
 .rodata.clockRootDivTupleArray.3
                0x0000000000000000       0x68 ./drivers/fsl_clock.o
 .rodata.clockRootSourceArray.2
                0x0000000000000000       0x34 ./drivers/fsl_clock.o
 .rodata.g_ccmConfigUsbPll.1
                0x0000000000000000        0x2 ./drivers/fsl_clock.o
 .debug_macro   0x0000000000000000      0xacc ./drivers/fsl_clock.o
 .debug_macro   0x0000000000000000       0x10 ./drivers/fsl_clock.o
 .debug_macro   0x0000000000000000       0x1c ./drivers/fsl_clock.o
 .debug_macro   0x0000000000000000       0x22 ./drivers/fsl_clock.o
 .debug_macro   0x0000000000000000      0x12e ./drivers/fsl_clock.o
 .debug_macro   0x0000000000000000      0x5b3 ./drivers/fsl_clock.o
 .debug_macro   0x0000000000000000       0x22 ./drivers/fsl_clock.o
 .debug_macro   0x0000000000000000       0x10 ./drivers/fsl_clock.o
 .debug_macro   0x0000000000000000       0x4d ./drivers/fsl_clock.o
 .debug_macro   0x0000000000000000       0x1c ./drivers/fsl_clock.o
 .debug_macro   0x0000000000000000       0x22 ./drivers/fsl_clock.o
 .debug_macro   0x0000000000000000       0xfb ./drivers/fsl_clock.o
 .debug_macro   0x0000000000000000     0x1313 ./drivers/fsl_clock.o
 .debug_macro   0x0000000000000000      0x11f ./drivers/fsl_clock.o
 .debug_macro   0x0000000000000000       0x22 ./drivers/fsl_clock.o
 .debug_macro   0x0000000000000000       0x1c ./drivers/fsl_clock.o
 .debug_macro   0x0000000000000000    0x201e7 ./drivers/fsl_clock.o
 .debug_macro   0x0000000000000000      0x80e ./drivers/fsl_clock.o
 .debug_macro   0x0000000000000000       0x7a ./drivers/fsl_clock.o
 .debug_macro   0x0000000000000000       0xaf ./drivers/fsl_clock.o
 .debug_macro   0x0000000000000000      0x21e ./drivers/fsl_clock.o
 .group         0x0000000000000000        0xc ./drivers/fsl_common.o
 .group         0x0000000000000000        0xc ./drivers/fsl_common.o
 .group         0x0000000000000000        0xc ./drivers/fsl_common.o
 .group         0x0000000000000000        0xc ./drivers/fsl_common.o
 .group         0x0000000000000000        0xc ./drivers/fsl_common.o
 .group         0x0000000000000000        0xc ./drivers/fsl_common.o
 .group         0x0000000000000000        0xc ./drivers/fsl_common.o
 .group         0x0000000000000000        0xc ./drivers/fsl_common.o
 .group         0x0000000000000000        0xc ./drivers/fsl_common.o
 .group         0x0000000000000000        0xc ./drivers/fsl_common.o
 .group         0x0000000000000000        0xc ./drivers/fsl_common.o
 .group         0x0000000000000000        0xc ./drivers/fsl_common.o
 .group         0x0000000000000000        0xc ./drivers/fsl_common.o
 .group         0x0000000000000000        0xc ./drivers/fsl_common.o
 .group         0x0000000000000000        0xc ./drivers/fsl_common.o
 .group         0x0000000000000000        0xc ./drivers/fsl_common.o
 .group         0x0000000000000000        0xc ./drivers/fsl_common.o
 .group         0x0000000000000000        0xc ./drivers/fsl_common.o
 .group         0x0000000000000000        0xc ./drivers/fsl_common.o
 .group         0x0000000000000000        0xc ./drivers/fsl_common.o
 .group         0x0000000000000000        0xc ./drivers/fsl_common.o
 .text          0x0000000000000000        0x0 ./drivers/fsl_common.o
 .data          0x0000000000000000        0x0 ./drivers/fsl_common.o
 .bss           0x0000000000000000        0x0 ./drivers/fsl_common.o
 .text.SDK_Malloc
                0x0000000000000000       0x92 ./drivers/fsl_common.o
 .text.SDK_Free
                0x0000000000000000       0x3a ./drivers/fsl_common.o
 .debug_info    0x0000000000000000      0x1dc ./drivers/fsl_common.o
 .debug_abbrev  0x0000000000000000       0xf7 ./drivers/fsl_common.o
 .debug_aranges
                0x0000000000000000       0x28 ./drivers/fsl_common.o
 .debug_ranges  0x0000000000000000       0x18 ./drivers/fsl_common.o
 .debug_macro   0x0000000000000000      0x133 ./drivers/fsl_common.o
 .debug_macro   0x0000000000000000      0xacc ./drivers/fsl_common.o
 .debug_macro   0x0000000000000000       0x10 ./drivers/fsl_common.o
 .debug_macro   0x0000000000000000       0x1c ./drivers/fsl_common.o
 .debug_macro   0x0000000000000000       0x22 ./drivers/fsl_common.o
 .debug_macro   0x0000000000000000      0x12e ./drivers/fsl_common.o
 .debug_macro   0x0000000000000000      0x5b3 ./drivers/fsl_common.o
 .debug_macro   0x0000000000000000       0x22 ./drivers/fsl_common.o
 .debug_macro   0x0000000000000000       0x10 ./drivers/fsl_common.o
 .debug_macro   0x0000000000000000       0x4d ./drivers/fsl_common.o
 .debug_macro   0x0000000000000000       0x1c ./drivers/fsl_common.o
 .debug_macro   0x0000000000000000       0x22 ./drivers/fsl_common.o
 .debug_macro   0x0000000000000000       0xfb ./drivers/fsl_common.o
 .debug_macro   0x0000000000000000     0x1313 ./drivers/fsl_common.o
 .debug_macro   0x0000000000000000      0x11f ./drivers/fsl_common.o
 .debug_macro   0x0000000000000000       0x22 ./drivers/fsl_common.o
 .debug_macro   0x0000000000000000       0x1c ./drivers/fsl_common.o
 .debug_macro   0x0000000000000000    0x201e7 ./drivers/fsl_common.o
 .debug_macro   0x0000000000000000      0x80e ./drivers/fsl_common.o
 .debug_macro   0x0000000000000000       0x7a ./drivers/fsl_common.o
 .debug_macro   0x0000000000000000       0xaf ./drivers/fsl_common.o
 .debug_macro   0x0000000000000000      0x21e ./drivers/fsl_common.o
 .debug_line    0x0000000000000000      0x3f6 ./drivers/fsl_common.o
 .debug_str     0x0000000000000000   0x1178dc ./drivers/fsl_common.o
 .comment       0x0000000000000000       0x4a ./drivers/fsl_common.o
 .debug_frame   0x0000000000000000       0x58 ./drivers/fsl_common.o
 .ARM.attributes
                0x0000000000000000       0x32 ./drivers/fsl_common.o
 .group         0x0000000000000000        0xc ./drivers/fsl_common_arm.o
 .group         0x0000000000000000        0xc ./drivers/fsl_common_arm.o
 .group         0x0000000000000000        0xc ./drivers/fsl_common_arm.o
 .group         0x0000000000000000        0xc ./drivers/fsl_common_arm.o
 .group         0x0000000000000000        0xc ./drivers/fsl_common_arm.o
 .group         0x0000000000000000        0xc ./drivers/fsl_common_arm.o
 .group         0x0000000000000000        0xc ./drivers/fsl_common_arm.o
 .group         0x0000000000000000        0xc ./drivers/fsl_common_arm.o
 .group         0x0000000000000000        0xc ./drivers/fsl_common_arm.o
 .group         0x0000000000000000        0xc ./drivers/fsl_common_arm.o
 .group         0x0000000000000000        0xc ./drivers/fsl_common_arm.o
 .group         0x0000000000000000        0xc ./drivers/fsl_common_arm.o
 .group         0x0000000000000000        0xc ./drivers/fsl_common_arm.o
 .group         0x0000000000000000        0xc ./drivers/fsl_common_arm.o
 .group         0x0000000000000000        0xc ./drivers/fsl_common_arm.o
 .group         0x0000000000000000        0xc ./drivers/fsl_common_arm.o
 .group         0x0000000000000000        0xc ./drivers/fsl_common_arm.o
 .group         0x0000000000000000        0xc ./drivers/fsl_common_arm.o
 .group         0x0000000000000000        0xc ./drivers/fsl_common_arm.o
 .group         0x0000000000000000        0xc ./drivers/fsl_common_arm.o
 .group         0x0000000000000000        0xc ./drivers/fsl_common_arm.o
 .text          0x0000000000000000        0x0 ./drivers/fsl_common_arm.o
 .data          0x0000000000000000        0x0 ./drivers/fsl_common_arm.o
 .bss           0x0000000000000000        0x0 ./drivers/fsl_common_arm.o
 .debug_macro   0x0000000000000000      0xacc ./drivers/fsl_common_arm.o
 .debug_macro   0x0000000000000000       0x10 ./drivers/fsl_common_arm.o
 .debug_macro   0x0000000000000000       0x1c ./drivers/fsl_common_arm.o
 .debug_macro   0x0000000000000000       0x22 ./drivers/fsl_common_arm.o
 .debug_macro   0x0000000000000000      0x12e ./drivers/fsl_common_arm.o
 .debug_macro   0x0000000000000000      0x5b3 ./drivers/fsl_common_arm.o
 .debug_macro   0x0000000000000000       0x22 ./drivers/fsl_common_arm.o
 .debug_macro   0x0000000000000000       0x10 ./drivers/fsl_common_arm.o
 .debug_macro   0x0000000000000000       0x4d ./drivers/fsl_common_arm.o
 .debug_macro   0x0000000000000000       0x1c ./drivers/fsl_common_arm.o
 .debug_macro   0x0000000000000000       0x22 ./drivers/fsl_common_arm.o
 .debug_macro   0x0000000000000000       0xfb ./drivers/fsl_common_arm.o
 .debug_macro   0x0000000000000000     0x1313 ./drivers/fsl_common_arm.o
 .debug_macro   0x0000000000000000      0x11f ./drivers/fsl_common_arm.o
 .debug_macro   0x0000000000000000       0x22 ./drivers/fsl_common_arm.o
 .debug_macro   0x0000000000000000       0x1c ./drivers/fsl_common_arm.o
 .debug_macro   0x0000000000000000    0x201e7 ./drivers/fsl_common_arm.o
 .debug_macro   0x0000000000000000      0x80e ./drivers/fsl_common_arm.o
 .debug_macro   0x0000000000000000       0x7a ./drivers/fsl_common_arm.o
 .debug_macro   0x0000000000000000       0xaf ./drivers/fsl_common_arm.o
 .debug_macro   0x0000000000000000      0x21e ./drivers/fsl_common_arm.o
 .group         0x0000000000000000        0xc ./drivers/fsl_gpio.o
 .group         0x0000000000000000        0xc ./drivers/fsl_gpio.o
 .group         0x0000000000000000        0xc ./drivers/fsl_gpio.o
 .group         0x0000000000000000        0xc ./drivers/fsl_gpio.o
 .group         0x0000000000000000        0xc ./drivers/fsl_gpio.o
 .group         0x0000000000000000        0xc ./drivers/fsl_gpio.o
 .group         0x0000000000000000        0xc ./drivers/fsl_gpio.o
 .group         0x0000000000000000        0xc ./drivers/fsl_gpio.o
 .group         0x0000000000000000        0xc ./drivers/fsl_gpio.o
 .group         0x0000000000000000        0xc ./drivers/fsl_gpio.o
 .group         0x0000000000000000        0xc ./drivers/fsl_gpio.o
 .group         0x0000000000000000        0xc ./drivers/fsl_gpio.o
 .group         0x0000000000000000        0xc ./drivers/fsl_gpio.o
 .group         0x0000000000000000        0xc ./drivers/fsl_gpio.o
 .group         0x0000000000000000        0xc ./drivers/fsl_gpio.o
 .group         0x0000000000000000        0xc ./drivers/fsl_gpio.o
 .group         0x0000000000000000        0xc ./drivers/fsl_gpio.o
 .group         0x0000000000000000        0xc ./drivers/fsl_gpio.o
 .group         0x0000000000000000        0xc ./drivers/fsl_gpio.o
 .group         0x0000000000000000        0xc ./drivers/fsl_gpio.o
 .group         0x0000000000000000        0xc ./drivers/fsl_gpio.o
 .text          0x0000000000000000        0x0 ./drivers/fsl_gpio.o
 .data          0x0000000000000000        0x0 ./drivers/fsl_gpio.o
 .bss           0x0000000000000000        0x0 ./drivers/fsl_gpio.o
 .debug_macro   0x0000000000000000      0xacc ./drivers/fsl_gpio.o
 .debug_macro   0x0000000000000000       0x10 ./drivers/fsl_gpio.o
 .debug_macro   0x0000000000000000       0x1c ./drivers/fsl_gpio.o
 .debug_macro   0x0000000000000000       0x22 ./drivers/fsl_gpio.o
 .debug_macro   0x0000000000000000      0x12e ./drivers/fsl_gpio.o
 .debug_macro   0x0000000000000000      0x5b3 ./drivers/fsl_gpio.o
 .debug_macro   0x0000000000000000       0x22 ./drivers/fsl_gpio.o
 .debug_macro   0x0000000000000000       0x10 ./drivers/fsl_gpio.o
 .debug_macro   0x0000000000000000       0x4d ./drivers/fsl_gpio.o
 .debug_macro   0x0000000000000000       0x1c ./drivers/fsl_gpio.o
 .debug_macro   0x0000000000000000       0x22 ./drivers/fsl_gpio.o
 .debug_macro   0x0000000000000000       0xfb ./drivers/fsl_gpio.o
 .debug_macro   0x0000000000000000     0x1313 ./drivers/fsl_gpio.o
 .debug_macro   0x0000000000000000      0x11f ./drivers/fsl_gpio.o
 .debug_macro   0x0000000000000000       0x22 ./drivers/fsl_gpio.o
 .debug_macro   0x0000000000000000       0x1c ./drivers/fsl_gpio.o
 .debug_macro   0x0000000000000000    0x201e7 ./drivers/fsl_gpio.o
 .debug_macro   0x0000000000000000      0x80e ./drivers/fsl_gpio.o
 .debug_macro   0x0000000000000000       0x7a ./drivers/fsl_gpio.o
 .debug_macro   0x0000000000000000       0xaf ./drivers/fsl_gpio.o
 .debug_macro   0x0000000000000000      0x21e ./drivers/fsl_gpio.o
 .group         0x0000000000000000        0xc ./drivers/fsl_lpuart.o
 .group         0x0000000000000000        0xc ./drivers/fsl_lpuart.o
 .group         0x0000000000000000        0xc ./drivers/fsl_lpuart.o
 .group         0x0000000000000000        0xc ./drivers/fsl_lpuart.o
 .group         0x0000000000000000        0xc ./drivers/fsl_lpuart.o
 .group         0x0000000000000000        0xc ./drivers/fsl_lpuart.o
 .group         0x0000000000000000        0xc ./drivers/fsl_lpuart.o
 .group         0x0000000000000000        0xc ./drivers/fsl_lpuart.o
 .group         0x0000000000000000        0xc ./drivers/fsl_lpuart.o
 .group         0x0000000000000000        0xc ./drivers/fsl_lpuart.o
 .group         0x0000000000000000        0xc ./drivers/fsl_lpuart.o
 .group         0x0000000000000000        0xc ./drivers/fsl_lpuart.o
 .group         0x0000000000000000        0xc ./drivers/fsl_lpuart.o
 .group         0x0000000000000000        0xc ./drivers/fsl_lpuart.o
 .group         0x0000000000000000        0xc ./drivers/fsl_lpuart.o
 .group         0x0000000000000000        0xc ./drivers/fsl_lpuart.o
 .group         0x0000000000000000        0xc ./drivers/fsl_lpuart.o
 .group         0x0000000000000000        0xc ./drivers/fsl_lpuart.o
 .group         0x0000000000000000        0xc ./drivers/fsl_lpuart.o
 .group         0x0000000000000000        0xc ./drivers/fsl_lpuart.o
 .group         0x0000000000000000        0xc ./drivers/fsl_lpuart.o
 .group         0x0000000000000000        0xc ./drivers/fsl_lpuart.o
 .text          0x0000000000000000        0x0 ./drivers/fsl_lpuart.o
 .data          0x0000000000000000        0x0 ./drivers/fsl_lpuart.o
 .bss           0x0000000000000000        0x0 ./drivers/fsl_lpuart.o
 .text.__NVIC_EnableIRQ
                0x0000000000000000       0x3c ./drivers/fsl_lpuart.o
 .text.CLOCK_DisableClock
                0x0000000000000000       0x1e ./drivers/fsl_lpuart.o
 .text.EnableIRQ
                0x0000000000000000       0x32 ./drivers/fsl_lpuart.o
 .text.DisableGlobalIRQ
                0x0000000000000000       0x22 ./drivers/fsl_lpuart.o
 .text.EnableGlobalIRQ
                0x0000000000000000       0x20 ./drivers/fsl_lpuart.o
 .rodata.s_lpuartIRQ
                0x0000000000000000       0x12 ./drivers/fsl_lpuart.o
 .rodata.LPUART_TransferGetRxRingBufferLength.str1.4
                0x0000000000000000       0x22 ./drivers/fsl_lpuart.o
 .text.LPUART_TransferGetRxRingBufferLength
                0x0000000000000000       0x54 ./drivers/fsl_lpuart.o
 .rodata.LPUART_TransferIsRxRingBufferFull.str1.4
                0x0000000000000000       0x22 ./drivers/fsl_lpuart.o
 .text.LPUART_TransferIsRxRingBufferFull
                0x0000000000000000       0x44 ./drivers/fsl_lpuart.o
 .rodata.LPUART_WriteNonBlocking.str1.4
                0x0000000000000000       0x20 ./drivers/fsl_lpuart.o
 .text.LPUART_WriteNonBlocking
                0x0000000000000000       0x48 ./drivers/fsl_lpuart.o
 .rodata.LPUART_ReadNonBlocking.str1.4
                0x0000000000000000       0x20 ./drivers/fsl_lpuart.o
 .text.LPUART_ReadNonBlocking
                0x0000000000000000       0x98 ./drivers/fsl_lpuart.o
 .text.LPUART_Deinit
                0x0000000000000000       0x70 ./drivers/fsl_lpuart.o
 .rodata.LPUART_SetBaudRate.str1.4
                0x0000000000000000       0x25 ./drivers/fsl_lpuart.o
 .text.LPUART_SetBaudRate
                0x0000000000000000      0x154 ./drivers/fsl_lpuart.o
 .rodata.LPUART_Enable9bitMode.str1.4
                0x0000000000000000       0x20 ./drivers/fsl_lpuart.o
 .text.LPUART_Enable9bitMode
                0x0000000000000000       0x6c ./drivers/fsl_lpuart.o
 .rodata.LPUART_SendAddress.str1.4
                0x0000000000000000       0x20 ./drivers/fsl_lpuart.o
 .text.LPUART_SendAddress
                0x0000000000000000       0x44 ./drivers/fsl_lpuart.o
 .text.LPUART_EnableInterrupts
                0x0000000000000000       0x84 ./drivers/fsl_lpuart.o
 .text.LPUART_DisableInterrupts
                0x0000000000000000       0x8c ./drivers/fsl_lpuart.o
 .text.LPUART_GetEnabledInterrupts
                0x0000000000000000       0x60 ./drivers/fsl_lpuart.o
 .rodata.LPUART_TransferCreateHandle.str1.4
                0x0000000000000000       0x23 ./drivers/fsl_lpuart.o
 .text.LPUART_TransferCreateHandle
                0x0000000000000000       0xc0 ./drivers/fsl_lpuart.o
 .rodata.LPUART_TransferStartRingBuffer.str1.4
                0x0000000000000000       0x4b ./drivers/fsl_lpuart.o
 .text.LPUART_TransferStartRingBuffer
                0x0000000000000000       0x68 ./drivers/fsl_lpuart.o
 .rodata.LPUART_TransferStopRingBuffer.str1.4
                0x0000000000000000       0x23 ./drivers/fsl_lpuart.o
 .text.LPUART_TransferStopRingBuffer
                0x0000000000000000       0x60 ./drivers/fsl_lpuart.o
 .rodata.LPUART_TransferSendNonBlocking.str1.4
                0x0000000000000000       0x9d ./drivers/fsl_lpuart.o
 .text.LPUART_TransferSendNonBlocking
                0x0000000000000000       0xac ./drivers/fsl_lpuart.o
 .rodata.LPUART_TransferAbortSend.str1.4
                0x0000000000000000       0x23 ./drivers/fsl_lpuart.o
 .text.LPUART_TransferAbortSend
                0x0000000000000000       0x48 ./drivers/fsl_lpuart.o
 .rodata.LPUART_TransferGetSendCount.str1.4
                0x0000000000000000       0x46 ./drivers/fsl_lpuart.o
 .text.LPUART_TransferGetSendCount
                0x0000000000000000       0x6c ./drivers/fsl_lpuart.o
 .rodata.LPUART_TransferReceiveNonBlocking.str1.4
                0x0000000000000000       0x9d ./drivers/fsl_lpuart.o
 .text.LPUART_TransferReceiveNonBlocking
                0x0000000000000000      0x1c4 ./drivers/fsl_lpuart.o
 .rodata.LPUART_TransferAbortReceive.str1.4
                0x0000000000000000       0x23 ./drivers/fsl_lpuart.o
 .text.LPUART_TransferAbortReceive
                0x0000000000000000       0x50 ./drivers/fsl_lpuart.o
 .rodata.LPUART_TransferGetReceiveCount.str1.4
                0x0000000000000000       0x46 ./drivers/fsl_lpuart.o
 .text.LPUART_TransferGetReceiveCount
                0x0000000000000000       0x60 ./drivers/fsl_lpuart.o
 .rodata.LPUART_TransferHandleIRQ.str1.4
                0x0000000000000000       0x26 ./drivers/fsl_lpuart.o
 .text.LPUART_TransferHandleIRQ
                0x0000000000000000      0x408 ./drivers/fsl_lpuart.o
 .text.LPUART_TransferHandleErrorIRQ
                0x0000000000000000       0x16 ./drivers/fsl_lpuart.o
 .debug_macro   0x0000000000000000      0xacc ./drivers/fsl_lpuart.o
 .debug_macro   0x0000000000000000       0x10 ./drivers/fsl_lpuart.o
 .debug_macro   0x0000000000000000       0x1c ./drivers/fsl_lpuart.o
 .debug_macro   0x0000000000000000       0x22 ./drivers/fsl_lpuart.o
 .debug_macro   0x0000000000000000      0x12e ./drivers/fsl_lpuart.o
 .debug_macro   0x0000000000000000      0x5b3 ./drivers/fsl_lpuart.o
 .debug_macro   0x0000000000000000       0x22 ./drivers/fsl_lpuart.o
 .debug_macro   0x0000000000000000       0x10 ./drivers/fsl_lpuart.o
 .debug_macro   0x0000000000000000       0x4d ./drivers/fsl_lpuart.o
 .debug_macro   0x0000000000000000       0x1c ./drivers/fsl_lpuart.o
 .debug_macro   0x0000000000000000       0x22 ./drivers/fsl_lpuart.o
 .debug_macro   0x0000000000000000       0xfb ./drivers/fsl_lpuart.o
 .debug_macro   0x0000000000000000     0x1313 ./drivers/fsl_lpuart.o
 .debug_macro   0x0000000000000000      0x11f ./drivers/fsl_lpuart.o
 .debug_macro   0x0000000000000000       0x22 ./drivers/fsl_lpuart.o
 .debug_macro   0x0000000000000000       0x1c ./drivers/fsl_lpuart.o
 .debug_macro   0x0000000000000000    0x201e7 ./drivers/fsl_lpuart.o
 .debug_macro   0x0000000000000000      0x80e ./drivers/fsl_lpuart.o
 .debug_macro   0x0000000000000000       0x7a ./drivers/fsl_lpuart.o
 .debug_macro   0x0000000000000000       0xaf ./drivers/fsl_lpuart.o
 .debug_macro   0x0000000000000000      0x21e ./drivers/fsl_lpuart.o
 .group         0x0000000000000000        0xc ./device/system_MIMXRT1021.o
 .group         0x0000000000000000        0xc ./device/system_MIMXRT1021.o
 .group         0x0000000000000000        0xc ./device/system_MIMXRT1021.o
 .group         0x0000000000000000        0xc ./device/system_MIMXRT1021.o
 .group         0x0000000000000000        0xc ./device/system_MIMXRT1021.o
 .group         0x0000000000000000        0xc ./device/system_MIMXRT1021.o
 .group         0x0000000000000000        0xc ./device/system_MIMXRT1021.o
 .group         0x0000000000000000        0xc ./device/system_MIMXRT1021.o
 .group         0x0000000000000000        0xc ./device/system_MIMXRT1021.o
 .group         0x0000000000000000        0xc ./device/system_MIMXRT1021.o
 .group         0x0000000000000000        0xc ./device/system_MIMXRT1021.o
 .group         0x0000000000000000        0xc ./device/system_MIMXRT1021.o
 .group         0x0000000000000000        0xc ./device/system_MIMXRT1021.o
 .group         0x0000000000000000        0xc ./device/system_MIMXRT1021.o
 .group         0x0000000000000000        0xc ./device/system_MIMXRT1021.o
 .text          0x0000000000000000        0x0 ./device/system_MIMXRT1021.o
 .data          0x0000000000000000        0x0 ./device/system_MIMXRT1021.o
 .bss           0x0000000000000000        0x0 ./device/system_MIMXRT1021.o
 .text.SystemCoreClockUpdate
                0x0000000000000000      0x1b0 ./device/system_MIMXRT1021.o
 .debug_macro   0x0000000000000000      0xacc ./device/system_MIMXRT1021.o
 .debug_macro   0x0000000000000000       0x10 ./device/system_MIMXRT1021.o
 .debug_macro   0x0000000000000000      0x12e ./device/system_MIMXRT1021.o
 .debug_macro   0x0000000000000000      0x5b3 ./device/system_MIMXRT1021.o
 .debug_macro   0x0000000000000000       0x10 ./device/system_MIMXRT1021.o
 .debug_macro   0x0000000000000000       0x4d ./device/system_MIMXRT1021.o
 .debug_macro   0x0000000000000000       0x1c ./device/system_MIMXRT1021.o
 .debug_macro   0x0000000000000000       0x22 ./device/system_MIMXRT1021.o
 .debug_macro   0x0000000000000000       0xfb ./device/system_MIMXRT1021.o
 .debug_macro   0x0000000000000000     0x1313 ./device/system_MIMXRT1021.o
 .debug_macro   0x0000000000000000      0x11f ./device/system_MIMXRT1021.o
 .debug_macro   0x0000000000000000       0x22 ./device/system_MIMXRT1021.o
 .debug_macro   0x0000000000000000       0x1c ./device/system_MIMXRT1021.o
 .debug_macro   0x0000000000000000    0x201e7 ./device/system_MIMXRT1021.o
 .debug_macro   0x0000000000000000      0x80e ./device/system_MIMXRT1021.o
 .group         0x0000000000000000        0xc ./component/uart/fsl_adapter_lpuart.o
 .group         0x0000000000000000        0xc ./component/uart/fsl_adapter_lpuart.o
 .group         0x0000000000000000        0xc ./component/uart/fsl_adapter_lpuart.o
 .group         0x0000000000000000        0xc ./component/uart/fsl_adapter_lpuart.o
 .group         0x0000000000000000        0xc ./component/uart/fsl_adapter_lpuart.o
 .group         0x0000000000000000        0xc ./component/uart/fsl_adapter_lpuart.o
 .group         0x0000000000000000        0xc ./component/uart/fsl_adapter_lpuart.o
 .group         0x0000000000000000        0xc ./component/uart/fsl_adapter_lpuart.o
 .group         0x0000000000000000        0xc ./component/uart/fsl_adapter_lpuart.o
 .group         0x0000000000000000        0xc ./component/uart/fsl_adapter_lpuart.o
 .group         0x0000000000000000        0xc ./component/uart/fsl_adapter_lpuart.o
 .group         0x0000000000000000        0xc ./component/uart/fsl_adapter_lpuart.o
 .group         0x0000000000000000        0xc ./component/uart/fsl_adapter_lpuart.o
 .group         0x0000000000000000        0xc ./component/uart/fsl_adapter_lpuart.o
 .group         0x0000000000000000        0xc ./component/uart/fsl_adapter_lpuart.o
 .group         0x0000000000000000        0xc ./component/uart/fsl_adapter_lpuart.o
 .group         0x0000000000000000        0xc ./component/uart/fsl_adapter_lpuart.o
 .group         0x0000000000000000        0xc ./component/uart/fsl_adapter_lpuart.o
 .group         0x0000000000000000        0xc ./component/uart/fsl_adapter_lpuart.o
 .group         0x0000000000000000        0xc ./component/uart/fsl_adapter_lpuart.o
 .group         0x0000000000000000        0xc ./component/uart/fsl_adapter_lpuart.o
 .group         0x0000000000000000        0xc ./component/uart/fsl_adapter_lpuart.o
 .group         0x0000000000000000        0xc ./component/uart/fsl_adapter_lpuart.o
 .text          0x0000000000000000        0x0 ./component/uart/fsl_adapter_lpuart.o
 .data          0x0000000000000000        0x0 ./component/uart/fsl_adapter_lpuart.o
 .bss           0x0000000000000000        0x0 ./component/uart/fsl_adapter_lpuart.o
 .rodata.HAL_UartDeinit.str1.4
                0x0000000000000000       0x2a ./component/uart/fsl_adapter_lpuart.o
 .text.HAL_UartDeinit
                0x0000000000000000       0x3c ./component/uart/fsl_adapter_lpuart.o
 .rodata.HAL_UartEnterLowpower.str1.4
                0x0000000000000000       0x2a ./component/uart/fsl_adapter_lpuart.o
 .text.HAL_UartEnterLowpower
                0x0000000000000000       0x24 ./component/uart/fsl_adapter_lpuart.o
 .text.HAL_UartExitLowpower
                0x0000000000000000       0x16 ./component/uart/fsl_adapter_lpuart.o
 .debug_macro   0x0000000000000000      0xacc ./component/uart/fsl_adapter_lpuart.o
 .debug_macro   0x0000000000000000       0x10 ./component/uart/fsl_adapter_lpuart.o
 .debug_macro   0x0000000000000000       0x1c ./component/uart/fsl_adapter_lpuart.o
 .debug_macro   0x0000000000000000       0x22 ./component/uart/fsl_adapter_lpuart.o
 .debug_macro   0x0000000000000000      0x12e ./component/uart/fsl_adapter_lpuart.o
 .debug_macro   0x0000000000000000      0x5b3 ./component/uart/fsl_adapter_lpuart.o
 .debug_macro   0x0000000000000000       0x22 ./component/uart/fsl_adapter_lpuart.o
 .debug_macro   0x0000000000000000       0x10 ./component/uart/fsl_adapter_lpuart.o
 .debug_macro   0x0000000000000000       0x4d ./component/uart/fsl_adapter_lpuart.o
 .debug_macro   0x0000000000000000       0x1c ./component/uart/fsl_adapter_lpuart.o
 .debug_macro   0x0000000000000000       0x22 ./component/uart/fsl_adapter_lpuart.o
 .debug_macro   0x0000000000000000       0xfb ./component/uart/fsl_adapter_lpuart.o
 .debug_macro   0x0000000000000000     0x1313 ./component/uart/fsl_adapter_lpuart.o
 .debug_macro   0x0000000000000000      0x11f ./component/uart/fsl_adapter_lpuart.o
 .debug_macro   0x0000000000000000       0x22 ./component/uart/fsl_adapter_lpuart.o
 .debug_macro   0x0000000000000000       0x1c ./component/uart/fsl_adapter_lpuart.o
 .debug_macro   0x0000000000000000    0x201e7 ./component/uart/fsl_adapter_lpuart.o
 .debug_macro   0x0000000000000000      0x80e ./component/uart/fsl_adapter_lpuart.o
 .debug_macro   0x0000000000000000       0x7a ./component/uart/fsl_adapter_lpuart.o
 .debug_macro   0x0000000000000000       0xaf ./component/uart/fsl_adapter_lpuart.o
 .debug_macro   0x0000000000000000      0x21e ./component/uart/fsl_adapter_lpuart.o
 .debug_macro   0x0000000000000000       0x10 ./component/uart/fsl_adapter_lpuart.o
 .group         0x0000000000000000        0xc ./component/silicon_id/fsl_silicon_id.o
 .group         0x0000000000000000        0xc ./component/silicon_id/fsl_silicon_id.o
 .group         0x0000000000000000        0xc ./component/silicon_id/fsl_silicon_id.o
 .group         0x0000000000000000        0xc ./component/silicon_id/fsl_silicon_id.o
 .group         0x0000000000000000        0xc ./component/silicon_id/fsl_silicon_id.o
 .group         0x0000000000000000        0xc ./component/silicon_id/fsl_silicon_id.o
 .group         0x0000000000000000        0xc ./component/silicon_id/fsl_silicon_id.o
 .group         0x0000000000000000        0xc ./component/silicon_id/fsl_silicon_id.o
 .group         0x0000000000000000        0xc ./component/silicon_id/fsl_silicon_id.o
 .group         0x0000000000000000        0xc ./component/silicon_id/fsl_silicon_id.o
 .group         0x0000000000000000        0xc ./component/silicon_id/fsl_silicon_id.o
 .group         0x0000000000000000        0xc ./component/silicon_id/fsl_silicon_id.o
 .group         0x0000000000000000        0xc ./component/silicon_id/fsl_silicon_id.o
 .group         0x0000000000000000        0xc ./component/silicon_id/fsl_silicon_id.o
 .group         0x0000000000000000        0xc ./component/silicon_id/fsl_silicon_id.o
 .group         0x0000000000000000        0xc ./component/silicon_id/fsl_silicon_id.o
 .group         0x0000000000000000        0xc ./component/silicon_id/fsl_silicon_id.o
 .group         0x0000000000000000        0xc ./component/silicon_id/fsl_silicon_id.o
 .group         0x0000000000000000        0xc ./component/silicon_id/fsl_silicon_id.o
 .group         0x0000000000000000        0xc ./component/silicon_id/fsl_silicon_id.o
 .group         0x0000000000000000        0xc ./component/silicon_id/fsl_silicon_id.o
 .text          0x0000000000000000        0x0 ./component/silicon_id/fsl_silicon_id.o
 .data          0x0000000000000000        0x0 ./component/silicon_id/fsl_silicon_id.o
 .bss           0x0000000000000000        0x0 ./component/silicon_id/fsl_silicon_id.o
 .text.SILICONID_GetID
                0x0000000000000000       0x40 ./component/silicon_id/fsl_silicon_id.o
 .rodata.SILICONID_ConvertToMacAddr.str1.4
                0x0000000000000000       0x23 ./component/silicon_id/fsl_silicon_id.o
 .text.SILICONID_ConvertToMacAddr
                0x0000000000000000       0x64 ./component/silicon_id/fsl_silicon_id.o
 .debug_info    0x0000000000000000      0x814 ./component/silicon_id/fsl_silicon_id.o
 .debug_abbrev  0x0000000000000000      0x14a ./component/silicon_id/fsl_silicon_id.o
 .debug_aranges
                0x0000000000000000       0x28 ./component/silicon_id/fsl_silicon_id.o
 .debug_ranges  0x0000000000000000       0x18 ./component/silicon_id/fsl_silicon_id.o
 .debug_macro   0x0000000000000000      0x13d ./component/silicon_id/fsl_silicon_id.o
 .debug_macro   0x0000000000000000      0xacc ./component/silicon_id/fsl_silicon_id.o
 .debug_macro   0x0000000000000000       0x10 ./component/silicon_id/fsl_silicon_id.o
 .debug_macro   0x0000000000000000       0x1c ./component/silicon_id/fsl_silicon_id.o
 .debug_macro   0x0000000000000000       0x22 ./component/silicon_id/fsl_silicon_id.o
 .debug_macro   0x0000000000000000      0x12e ./component/silicon_id/fsl_silicon_id.o
 .debug_macro   0x0000000000000000      0x5b3 ./component/silicon_id/fsl_silicon_id.o
 .debug_macro   0x0000000000000000       0x22 ./component/silicon_id/fsl_silicon_id.o
 .debug_macro   0x0000000000000000       0x10 ./component/silicon_id/fsl_silicon_id.o
 .debug_macro   0x0000000000000000       0x4d ./component/silicon_id/fsl_silicon_id.o
 .debug_macro   0x0000000000000000       0x1c ./component/silicon_id/fsl_silicon_id.o
 .debug_macro   0x0000000000000000       0x22 ./component/silicon_id/fsl_silicon_id.o
 .debug_macro   0x0000000000000000       0xfb ./component/silicon_id/fsl_silicon_id.o
 .debug_macro   0x0000000000000000     0x1313 ./component/silicon_id/fsl_silicon_id.o
 .debug_macro   0x0000000000000000      0x11f ./component/silicon_id/fsl_silicon_id.o
 .debug_macro   0x0000000000000000       0x22 ./component/silicon_id/fsl_silicon_id.o
 .debug_macro   0x0000000000000000       0x1c ./component/silicon_id/fsl_silicon_id.o
 .debug_macro   0x0000000000000000    0x201e7 ./component/silicon_id/fsl_silicon_id.o
 .debug_macro   0x0000000000000000      0x80e ./component/silicon_id/fsl_silicon_id.o
 .debug_macro   0x0000000000000000       0x7a ./component/silicon_id/fsl_silicon_id.o
 .debug_macro   0x0000000000000000       0xaf ./component/silicon_id/fsl_silicon_id.o
 .debug_macro   0x0000000000000000      0x21e ./component/silicon_id/fsl_silicon_id.o
 .debug_line    0x0000000000000000      0x455 ./component/silicon_id/fsl_silicon_id.o
 .debug_str     0x0000000000000000   0x117cc7 ./component/silicon_id/fsl_silicon_id.o
 .comment       0x0000000000000000       0x4a ./component/silicon_id/fsl_silicon_id.o
 .debug_frame   0x0000000000000000       0x5c ./component/silicon_id/fsl_silicon_id.o
 .ARM.attributes
                0x0000000000000000       0x32 ./component/silicon_id/fsl_silicon_id.o
 .group         0x0000000000000000        0xc ./component/lists/fsl_component_generic_list.o
 .group         0x0000000000000000        0xc ./component/lists/fsl_component_generic_list.o
 .group         0x0000000000000000        0xc ./component/lists/fsl_component_generic_list.o
 .group         0x0000000000000000        0xc ./component/lists/fsl_component_generic_list.o
 .group         0x0000000000000000        0xc ./component/lists/fsl_component_generic_list.o
 .group         0x0000000000000000        0xc ./component/lists/fsl_component_generic_list.o
 .group         0x0000000000000000        0xc ./component/lists/fsl_component_generic_list.o
 .group         0x0000000000000000        0xc ./component/lists/fsl_component_generic_list.o
 .group         0x0000000000000000        0xc ./component/lists/fsl_component_generic_list.o
 .group         0x0000000000000000        0xc ./component/lists/fsl_component_generic_list.o
 .group         0x0000000000000000        0xc ./component/lists/fsl_component_generic_list.o
 .group         0x0000000000000000        0xc ./component/lists/fsl_component_generic_list.o
 .group         0x0000000000000000        0xc ./component/lists/fsl_component_generic_list.o
 .group         0x0000000000000000        0xc ./component/lists/fsl_component_generic_list.o
 .group         0x0000000000000000        0xc ./component/lists/fsl_component_generic_list.o
 .group         0x0000000000000000        0xc ./component/lists/fsl_component_generic_list.o
 .group         0x0000000000000000        0xc ./component/lists/fsl_component_generic_list.o
 .group         0x0000000000000000        0xc ./component/lists/fsl_component_generic_list.o
 .group         0x0000000000000000        0xc ./component/lists/fsl_component_generic_list.o
 .group         0x0000000000000000        0xc ./component/lists/fsl_component_generic_list.o
 .group         0x0000000000000000        0xc ./component/lists/fsl_component_generic_list.o
 .group         0x0000000000000000        0xc ./component/lists/fsl_component_generic_list.o
 .group         0x0000000000000000        0xc ./component/lists/fsl_component_generic_list.o
 .text          0x0000000000000000        0x0 ./component/lists/fsl_component_generic_list.o
 .data          0x0000000000000000        0x0 ./component/lists/fsl_component_generic_list.o
 .bss           0x0000000000000000        0x0 ./component/lists/fsl_component_generic_list.o
 .text.DisableGlobalIRQ
                0x0000000000000000       0x22 ./component/lists/fsl_component_generic_list.o
 .text.EnableGlobalIRQ
                0x0000000000000000       0x20 ./component/lists/fsl_component_generic_list.o
 .text.LIST_Error_Check
                0x0000000000000000       0x36 ./component/lists/fsl_component_generic_list.o
 .text.LIST_Init
                0x0000000000000000       0x2e ./component/lists/fsl_component_generic_list.o
 .text.LIST_GetList
                0x0000000000000000       0x18 ./component/lists/fsl_component_generic_list.o
 .text.LIST_AddTail
                0x0000000000000000       0x6a ./component/lists/fsl_component_generic_list.o
 .text.LIST_AddHead
                0x0000000000000000       0x62 ./component/lists/fsl_component_generic_list.o
 .text.LIST_RemoveHead
                0x0000000000000000       0x5e ./component/lists/fsl_component_generic_list.o
 .text.LIST_GetHead
                0x0000000000000000       0x18 ./component/lists/fsl_component_generic_list.o
 .text.LIST_GetNext
                0x0000000000000000       0x18 ./component/lists/fsl_component_generic_list.o
 .text.LIST_GetPrev
                0x0000000000000000       0x16 ./component/lists/fsl_component_generic_list.o
 .text.LIST_RemoveElement
                0x0000000000000000       0x84 ./component/lists/fsl_component_generic_list.o
 .text.LIST_AddPrevElement
                0x0000000000000000       0xa4 ./component/lists/fsl_component_generic_list.o
 .text.LIST_GetSize
                0x0000000000000000       0x18 ./component/lists/fsl_component_generic_list.o
 .text.LIST_GetAvailableSize
                0x0000000000000000       0x1e ./component/lists/fsl_component_generic_list.o
 .debug_info    0x0000000000000000      0x591 ./component/lists/fsl_component_generic_list.o
 .debug_abbrev  0x0000000000000000      0x281 ./component/lists/fsl_component_generic_list.o
 .debug_aranges
                0x0000000000000000       0x90 ./component/lists/fsl_component_generic_list.o
 .debug_ranges  0x0000000000000000       0x80 ./component/lists/fsl_component_generic_list.o
 .debug_macro   0x0000000000000000      0x141 ./component/lists/fsl_component_generic_list.o
 .debug_macro   0x0000000000000000      0xacc ./component/lists/fsl_component_generic_list.o
 .debug_macro   0x0000000000000000       0x10 ./component/lists/fsl_component_generic_list.o
 .debug_macro   0x0000000000000000       0x10 ./component/lists/fsl_component_generic_list.o
 .debug_macro   0x0000000000000000       0x1c ./component/lists/fsl_component_generic_list.o
 .debug_macro   0x0000000000000000       0x22 ./component/lists/fsl_component_generic_list.o
 .debug_macro   0x0000000000000000      0x12e ./component/lists/fsl_component_generic_list.o
 .debug_macro   0x0000000000000000      0x5b3 ./component/lists/fsl_component_generic_list.o
 .debug_macro   0x0000000000000000       0x22 ./component/lists/fsl_component_generic_list.o
 .debug_macro   0x0000000000000000       0x10 ./component/lists/fsl_component_generic_list.o
 .debug_macro   0x0000000000000000       0x4d ./component/lists/fsl_component_generic_list.o
 .debug_macro   0x0000000000000000       0x1c ./component/lists/fsl_component_generic_list.o
 .debug_macro   0x0000000000000000       0x22 ./component/lists/fsl_component_generic_list.o
 .debug_macro   0x0000000000000000       0xfb ./component/lists/fsl_component_generic_list.o
 .debug_macro   0x0000000000000000     0x1313 ./component/lists/fsl_component_generic_list.o
 .debug_macro   0x0000000000000000      0x11f ./component/lists/fsl_component_generic_list.o
 .debug_macro   0x0000000000000000       0x22 ./component/lists/fsl_component_generic_list.o
 .debug_macro   0x0000000000000000       0x1c ./component/lists/fsl_component_generic_list.o
 .debug_macro   0x0000000000000000    0x201e7 ./component/lists/fsl_component_generic_list.o
 .debug_macro   0x0000000000000000      0x80e ./component/lists/fsl_component_generic_list.o
 .debug_macro   0x0000000000000000       0x7a ./component/lists/fsl_component_generic_list.o
 .debug_macro   0x0000000000000000       0xaf ./component/lists/fsl_component_generic_list.o
 .debug_macro   0x0000000000000000      0x21e ./component/lists/fsl_component_generic_list.o
 .debug_macro   0x0000000000000000       0x10 ./component/lists/fsl_component_generic_list.o
 .debug_line    0x0000000000000000      0x6fe ./component/lists/fsl_component_generic_list.o
 .debug_str     0x0000000000000000   0x117afe ./component/lists/fsl_component_generic_list.o
 .comment       0x0000000000000000       0x4a ./component/lists/fsl_component_generic_list.o
 .debug_frame   0x0000000000000000      0x254 ./component/lists/fsl_component_generic_list.o
 .ARM.attributes
                0x0000000000000000       0x32 ./component/lists/fsl_component_generic_list.o
 .group         0x0000000000000000        0xc ./board/board.o
 .group         0x0000000000000000        0xc ./board/board.o
 .group         0x0000000000000000        0xc ./board/board.o
 .group         0x0000000000000000        0xc ./board/board.o
 .group         0x0000000000000000        0xc ./board/board.o
 .group         0x0000000000000000        0xc ./board/board.o
 .group         0x0000000000000000        0xc ./board/board.o
 .group         0x0000000000000000        0xc ./board/board.o
 .group         0x0000000000000000        0xc ./board/board.o
 .group         0x0000000000000000        0xc ./board/board.o
 .group         0x0000000000000000        0xc ./board/board.o
 .group         0x0000000000000000        0xc ./board/board.o
 .group         0x0000000000000000        0xc ./board/board.o
 .group         0x0000000000000000        0xc ./board/board.o
 .group         0x0000000000000000        0xc ./board/board.o
 .group         0x0000000000000000        0xc ./board/board.o
 .group         0x0000000000000000        0xc ./board/board.o
 .group         0x0000000000000000        0xc ./board/board.o
 .group         0x0000000000000000        0xc ./board/board.o
 .group         0x0000000000000000        0xc ./board/board.o
 .group         0x0000000000000000        0xc ./board/board.o
 .group         0x0000000000000000        0xc ./board/board.o
 .group         0x0000000000000000        0xc ./board/board.o
 .group         0x0000000000000000        0xc ./board/board.o
 .group         0x0000000000000000        0xc ./board/board.o
 .group         0x0000000000000000        0xc ./board/board.o
 .group         0x0000000000000000        0xc ./board/board.o
 .group         0x0000000000000000        0xc ./board/board.o
 .text          0x0000000000000000        0x0 ./board/board.o
 .data          0x0000000000000000        0x0 ./board/board.o
 .bss           0x0000000000000000        0x0 ./board/board.o
 .debug_macro   0x0000000000000000      0xacc ./board/board.o
 .debug_macro   0x0000000000000000       0x10 ./board/board.o
 .debug_macro   0x0000000000000000       0x1c ./board/board.o
 .debug_macro   0x0000000000000000       0x22 ./board/board.o
 .debug_macro   0x0000000000000000      0x12e ./board/board.o
 .debug_macro   0x0000000000000000      0x5b3 ./board/board.o
 .debug_macro   0x0000000000000000       0x22 ./board/board.o
 .debug_macro   0x0000000000000000       0x10 ./board/board.o
 .debug_macro   0x0000000000000000       0x4d ./board/board.o
 .debug_macro   0x0000000000000000       0x1c ./board/board.o
 .debug_macro   0x0000000000000000       0x22 ./board/board.o
 .debug_macro   0x0000000000000000       0xfb ./board/board.o
 .debug_macro   0x0000000000000000     0x1313 ./board/board.o
 .debug_macro   0x0000000000000000      0x11f ./board/board.o
 .debug_macro   0x0000000000000000       0x22 ./board/board.o
 .debug_macro   0x0000000000000000       0x1c ./board/board.o
 .debug_macro   0x0000000000000000    0x201e7 ./board/board.o
 .debug_macro   0x0000000000000000      0x80e ./board/board.o
 .debug_macro   0x0000000000000000       0x7a ./board/board.o
 .debug_macro   0x0000000000000000       0xaf ./board/board.o
 .debug_macro   0x0000000000000000      0x21e ./board/board.o
 .debug_macro   0x0000000000000000       0x1c ./board/board.o
 .debug_macro   0x0000000000000000       0x1c ./board/board.o
 .debug_macro   0x0000000000000000       0x34 ./board/board.o
 .debug_macro   0x0000000000000000      0x112 ./board/board.o
 .debug_macro   0x0000000000000000       0x10 ./board/board.o
 .debug_macro   0x0000000000000000      0x136 ./board/board.o
 .group         0x0000000000000000        0xc ./board/clock_config.o
 .group         0x0000000000000000        0xc ./board/clock_config.o
 .group         0x0000000000000000        0xc ./board/clock_config.o
 .group         0x0000000000000000        0xc ./board/clock_config.o
 .group         0x0000000000000000        0xc ./board/clock_config.o
 .group         0x0000000000000000        0xc ./board/clock_config.o
 .group         0x0000000000000000        0xc ./board/clock_config.o
 .group         0x0000000000000000        0xc ./board/clock_config.o
 .group         0x0000000000000000        0xc ./board/clock_config.o
 .group         0x0000000000000000        0xc ./board/clock_config.o
 .group         0x0000000000000000        0xc ./board/clock_config.o
 .group         0x0000000000000000        0xc ./board/clock_config.o
 .group         0x0000000000000000        0xc ./board/clock_config.o
 .group         0x0000000000000000        0xc ./board/clock_config.o
 .group         0x0000000000000000        0xc ./board/clock_config.o
 .group         0x0000000000000000        0xc ./board/clock_config.o
 .group         0x0000000000000000        0xc ./board/clock_config.o
 .group         0x0000000000000000        0xc ./board/clock_config.o
 .group         0x0000000000000000        0xc ./board/clock_config.o
 .group         0x0000000000000000        0xc ./board/clock_config.o
 .group         0x0000000000000000        0xc ./board/clock_config.o
 .group         0x0000000000000000        0xc ./board/clock_config.o
 .group         0x0000000000000000        0xc ./board/clock_config.o
 .text          0x0000000000000000        0x0 ./board/clock_config.o
 .data          0x0000000000000000        0x0 ./board/clock_config.o
 .bss           0x0000000000000000        0x0 ./board/clock_config.o
 .rodata.usb1PllConfig_BOARD_BootClockRUN
                0x0000000000000000        0x2 ./board/clock_config.o
 .debug_macro   0x0000000000000000      0xacc ./board/clock_config.o
 .debug_macro   0x0000000000000000       0x10 ./board/clock_config.o
 .debug_macro   0x0000000000000000       0x1c ./board/clock_config.o
 .debug_macro   0x0000000000000000       0x22 ./board/clock_config.o
 .debug_macro   0x0000000000000000      0x12e ./board/clock_config.o
 .debug_macro   0x0000000000000000      0x5b3 ./board/clock_config.o
 .debug_macro   0x0000000000000000       0x22 ./board/clock_config.o
 .debug_macro   0x0000000000000000       0x10 ./board/clock_config.o
 .debug_macro   0x0000000000000000       0x4d ./board/clock_config.o
 .debug_macro   0x0000000000000000       0x1c ./board/clock_config.o
 .debug_macro   0x0000000000000000       0x22 ./board/clock_config.o
 .debug_macro   0x0000000000000000       0xfb ./board/clock_config.o
 .debug_macro   0x0000000000000000     0x1313 ./board/clock_config.o
 .debug_macro   0x0000000000000000      0x11f ./board/clock_config.o
 .debug_macro   0x0000000000000000       0x22 ./board/clock_config.o
 .debug_macro   0x0000000000000000       0x1c ./board/clock_config.o
 .debug_macro   0x0000000000000000    0x201e7 ./board/clock_config.o
 .debug_macro   0x0000000000000000      0x80e ./board/clock_config.o
 .debug_macro   0x0000000000000000       0x7a ./board/clock_config.o
 .debug_macro   0x0000000000000000       0xaf ./board/clock_config.o
 .debug_macro   0x0000000000000000      0x21e ./board/clock_config.o
 .debug_macro   0x0000000000000000      0x10c ./board/clock_config.o
 .debug_macro   0x0000000000000000     0x11dd ./board/clock_config.o
 .group         0x0000000000000000        0xc ./board/dcd.o
 .group         0x0000000000000000        0xc ./board/dcd.o
 .group         0x0000000000000000        0xc ./board/dcd.o
 .group         0x0000000000000000        0xc ./board/dcd.o
 .group         0x0000000000000000        0xc ./board/dcd.o
 .text          0x0000000000000000        0x0 ./board/dcd.o
 .data          0x0000000000000000        0x0 ./board/dcd.o
 .bss           0x0000000000000000        0x0 ./board/dcd.o
 .rodata.dcd_data
                0x0000000000000000        0x1 ./board/dcd.o
 .debug_info    0x0000000000000000       0xa1 ./board/dcd.o
 .debug_abbrev  0x0000000000000000       0x64 ./board/dcd.o
 .debug_aranges
                0x0000000000000000       0x18 ./board/dcd.o
 .debug_macro   0x0000000000000000       0x51 ./board/dcd.o
 .debug_macro   0x0000000000000000      0xacc ./board/dcd.o
 .debug_macro   0x0000000000000000       0x10 ./board/dcd.o
 .debug_macro   0x0000000000000000      0x12e ./board/dcd.o
 .debug_macro   0x0000000000000000      0x5b3 ./board/dcd.o
 .debug_macro   0x0000000000000000       0x22 ./board/dcd.o
 .debug_line    0x0000000000000000      0x170 ./board/dcd.o
 .debug_str     0x0000000000000000     0x45c0 ./board/dcd.o
 .comment       0x0000000000000000       0x4a ./board/dcd.o
 .ARM.attributes
                0x0000000000000000       0x32 ./board/dcd.o
 .group         0x0000000000000000        0xc ./board/pin_mux.o
 .group         0x0000000000000000        0xc ./board/pin_mux.o
 .group         0x0000000000000000        0xc ./board/pin_mux.o
 .group         0x0000000000000000        0xc ./board/pin_mux.o
 .group         0x0000000000000000        0xc ./board/pin_mux.o
 .group         0x0000000000000000        0xc ./board/pin_mux.o
 .group         0x0000000000000000        0xc ./board/pin_mux.o
 .group         0x0000000000000000        0xc ./board/pin_mux.o
 .group         0x0000000000000000        0xc ./board/pin_mux.o
 .group         0x0000000000000000        0xc ./board/pin_mux.o
 .group         0x0000000000000000        0xc ./board/pin_mux.o
 .group         0x0000000000000000        0xc ./board/pin_mux.o
 .group         0x0000000000000000        0xc ./board/pin_mux.o
 .group         0x0000000000000000        0xc ./board/pin_mux.o
 .group         0x0000000000000000        0xc ./board/pin_mux.o
 .group         0x0000000000000000        0xc ./board/pin_mux.o
 .group         0x0000000000000000        0xc ./board/pin_mux.o
 .group         0x0000000000000000        0xc ./board/pin_mux.o
 .group         0x0000000000000000        0xc ./board/pin_mux.o
 .group         0x0000000000000000        0xc ./board/pin_mux.o
 .group         0x0000000000000000        0xc ./board/pin_mux.o
 .group         0x0000000000000000        0xc ./board/pin_mux.o
 .text          0x0000000000000000        0x0 ./board/pin_mux.o
 .data          0x0000000000000000        0x0 ./board/pin_mux.o
 .bss           0x0000000000000000        0x0 ./board/pin_mux.o
 .debug_macro   0x0000000000000000      0xacc ./board/pin_mux.o
 .debug_macro   0x0000000000000000       0x10 ./board/pin_mux.o
 .debug_macro   0x0000000000000000       0x1c ./board/pin_mux.o
 .debug_macro   0x0000000000000000       0x22 ./board/pin_mux.o
 .debug_macro   0x0000000000000000      0x12e ./board/pin_mux.o
 .debug_macro   0x0000000000000000      0x5b3 ./board/pin_mux.o
 .debug_macro   0x0000000000000000       0x22 ./board/pin_mux.o
 .debug_macro   0x0000000000000000       0x10 ./board/pin_mux.o
 .debug_macro   0x0000000000000000       0x4d ./board/pin_mux.o
 .debug_macro   0x0000000000000000       0x1c ./board/pin_mux.o
 .debug_macro   0x0000000000000000       0x22 ./board/pin_mux.o
 .debug_macro   0x0000000000000000       0xfb ./board/pin_mux.o
 .debug_macro   0x0000000000000000     0x1313 ./board/pin_mux.o
 .debug_macro   0x0000000000000000      0x11f ./board/pin_mux.o
 .debug_macro   0x0000000000000000       0x22 ./board/pin_mux.o
 .debug_macro   0x0000000000000000       0x1c ./board/pin_mux.o
 .debug_macro   0x0000000000000000    0x201e7 ./board/pin_mux.o
 .debug_macro   0x0000000000000000      0x80e ./board/pin_mux.o
 .debug_macro   0x0000000000000000       0x7a ./board/pin_mux.o
 .debug_macro   0x0000000000000000       0xaf ./board/pin_mux.o
 .debug_macro   0x0000000000000000      0x21e ./board/pin_mux.o
 .debug_macro   0x0000000000000000     0x11dd ./board/pin_mux.o
 .text          0x0000000000000000        0x0 /usr/local/mcuxpressoide-11.6.1_8255/ide/plugins/com.nxp.mcuxpresso.tools.linux_11.6.1.202207200623/tools/bin/../lib/gcc/arm-none-eabi/10.3.1/../../../../arm-none-eabi/lib/thumb/v7e-m+dp/hard/libcr_nohost_nf.a(_cr__main.o)
 .data          0x0000000000000000        0x0 /usr/local/mcuxpressoide-11.6.1_8255/ide/plugins/com.nxp.mcuxpresso.tools.linux_11.6.1.202207200623/tools/bin/../lib/gcc/arm-none-eabi/10.3.1/../../../../arm-none-eabi/lib/thumb/v7e-m+dp/hard/libcr_nohost_nf.a(_cr__main.o)
 .bss           0x0000000000000000        0x0 /usr/local/mcuxpressoide-11.6.1_8255/ide/plugins/com.nxp.mcuxpresso.tools.linux_11.6.1.202207200623/tools/bin/../lib/gcc/arm-none-eabi/10.3.1/../../../../arm-none-eabi/lib/thumb/v7e-m+dp/hard/libcr_nohost_nf.a(_cr__main.o)
 .text          0x0000000000000000        0x0 /usr/local/mcuxpressoide-11.6.1_8255/ide/plugins/com.nxp.mcuxpresso.tools.linux_11.6.1.202207200623/tools/bin/../lib/gcc/arm-none-eabi/10.3.1/../../../../arm-none-eabi/lib/thumb/v7e-m+dp/hard/libcr_c.a(memcpy.o)
 .data          0x0000000000000000        0x0 /usr/local/mcuxpressoide-11.6.1_8255/ide/plugins/com.nxp.mcuxpresso.tools.linux_11.6.1.202207200623/tools/bin/../lib/gcc/arm-none-eabi/10.3.1/../../../../arm-none-eabi/lib/thumb/v7e-m+dp/hard/libcr_c.a(memcpy.o)
 .bss           0x0000000000000000        0x0 /usr/local/mcuxpressoide-11.6.1_8255/ide/plugins/com.nxp.mcuxpresso.tools.linux_11.6.1.202207200623/tools/bin/../lib/gcc/arm-none-eabi/10.3.1/../../../../arm-none-eabi/lib/thumb/v7e-m+dp/hard/libcr_c.a(memcpy.o)
 .text          0x0000000000000000        0x0 /usr/local/mcuxpressoide-11.6.1_8255/ide/plugins/com.nxp.mcuxpresso.tools.linux_11.6.1.202207200623/tools/bin/../lib/gcc/arm-none-eabi/10.3.1/../../../../arm-none-eabi/lib/thumb/v7e-m+dp/hard/libcr_c.a(memset.o)
 .data          0x0000000000000000        0x0 /usr/local/mcuxpressoide-11.6.1_8255/ide/plugins/com.nxp.mcuxpresso.tools.linux_11.6.1.202207200623/tools/bin/../lib/gcc/arm-none-eabi/10.3.1/../../../../arm-none-eabi/lib/thumb/v7e-m+dp/hard/libcr_c.a(memset.o)
 .bss           0x0000000000000000        0x0 /usr/local/mcuxpressoide-11.6.1_8255/ide/plugins/com.nxp.mcuxpresso.tools.linux_11.6.1.202207200623/tools/bin/../lib/gcc/arm-none-eabi/10.3.1/../../../../arm-none-eabi/lib/thumb/v7e-m+dp/hard/libcr_c.a(memset.o)
 .text          0x0000000000000000        0x0 /usr/local/mcuxpressoide-11.6.1_8255/ide/plugins/com.nxp.mcuxpresso.tools.linux_11.6.1.202207200623/tools/bin/../lib/gcc/arm-none-eabi/10.3.1/../../../../arm-none-eabi/lib/thumb/v7e-m+dp/hard/libcr_c.a(alloc.o)
 .data          0x0000000000000000        0x0 /usr/local/mcuxpressoide-11.6.1_8255/ide/plugins/com.nxp.mcuxpresso.tools.linux_11.6.1.202207200623/tools/bin/../lib/gcc/arm-none-eabi/10.3.1/../../../../arm-none-eabi/lib/thumb/v7e-m+dp/hard/libcr_c.a(alloc.o)
 .bss           0x0000000000000000        0x0 /usr/local/mcuxpressoide-11.6.1_8255/ide/plugins/com.nxp.mcuxpresso.tools.linux_11.6.1.202207200623/tools/bin/../lib/gcc/arm-none-eabi/10.3.1/../../../../arm-none-eabi/lib/thumb/v7e-m+dp/hard/libcr_c.a(alloc.o)
 .text.malloc   0x0000000000000000       0xc8 /usr/local/mcuxpressoide-11.6.1_8255/ide/plugins/com.nxp.mcuxpresso.tools.linux_11.6.1.202207200623/tools/bin/../lib/gcc/arm-none-eabi/10.3.1/../../../../arm-none-eabi/lib/thumb/v7e-m+dp/hard/libcr_c.a(alloc.o)
 .text.calloc   0x0000000000000000       0x54 /usr/local/mcuxpressoide-11.6.1_8255/ide/plugins/com.nxp.mcuxpresso.tools.linux_11.6.1.202207200623/tools/bin/../lib/gcc/arm-none-eabi/10.3.1/../../../../arm-none-eabi/lib/thumb/v7e-m+dp/hard/libcr_c.a(alloc.o)
 .rodata._Csys_alloc.str1.1
                0x0000000000000000       0x18 /usr/local/mcuxpressoide-11.6.1_8255/ide/plugins/com.nxp.mcuxpresso.tools.linux_11.6.1.202207200623/tools/bin/../lib/gcc/arm-none-eabi/10.3.1/../../../../arm-none-eabi/lib/thumb/v7e-m+dp/hard/libcr_c.a(alloc.o)
 .text._Csys_alloc
                0x0000000000000000       0x20 /usr/local/mcuxpressoide-11.6.1_8255/ide/plugins/com.nxp.mcuxpresso.tools.linux_11.6.1.202207200623/tools/bin/../lib/gcc/arm-none-eabi/10.3.1/../../../../arm-none-eabi/lib/thumb/v7e-m+dp/hard/libcr_c.a(alloc.o)
 .text.realloc  0x0000000000000000       0x26 /usr/local/mcuxpressoide-11.6.1_8255/ide/plugins/com.nxp.mcuxpresso.tools.linux_11.6.1.202207200623/tools/bin/../lib/gcc/arm-none-eabi/10.3.1/../../../../arm-none-eabi/lib/thumb/v7e-m+dp/hard/libcr_c.a(alloc.o)
 .text          0x0000000000000000        0x0 /usr/local/mcuxpressoide-11.6.1_8255/ide/plugins/com.nxp.mcuxpresso.tools.linux_11.6.1.202207200623/tools/bin/../lib/gcc/arm-none-eabi/10.3.1/../../../../arm-none-eabi/lib/thumb/v7e-m+dp/hard/libcr_c.a(initio.o)
 .data          0x0000000000000000        0x0 /usr/local/mcuxpressoide-11.6.1_8255/ide/plugins/com.nxp.mcuxpresso.tools.linux_11.6.1.202207200623/tools/bin/../lib/gcc/arm-none-eabi/10.3.1/../../../../arm-none-eabi/lib/thumb/v7e-m+dp/hard/libcr_c.a(initio.o)
 .bss           0x0000000000000000        0x0 /usr/local/mcuxpressoide-11.6.1_8255/ide/plugins/com.nxp.mcuxpresso.tools.linux_11.6.1.202207200623/tools/bin/../lib/gcc/arm-none-eabi/10.3.1/../../../../arm-none-eabi/lib/thumb/v7e-m+dp/hard/libcr_c.a(initio.o)
 .text._terminateio
                0x0000000000000000       0x50 /usr/local/mcuxpressoide-11.6.1_8255/ide/plugins/com.nxp.mcuxpresso.tools.linux_11.6.1.202207200623/tools/bin/../lib/gcc/arm-none-eabi/10.3.1/../../../../arm-none-eabi/lib/thumb/v7e-m+dp/hard/libcr_c.a(initio.o)
 .text          0x0000000000000000        0x0 /usr/local/mcuxpressoide-11.6.1_8255/ide/plugins/com.nxp.mcuxpresso.tools.linux_11.6.1.202207200623/tools/bin/../lib/gcc/arm-none-eabi/10.3.1/../../../../arm-none-eabi/lib/thumb/v7e-m+dp/hard/libcr_c.a(setvbuf.o)
 .data          0x0000000000000000        0x0 /usr/local/mcuxpressoide-11.6.1_8255/ide/plugins/com.nxp.mcuxpresso.tools.linux_11.6.1.202207200623/tools/bin/../lib/gcc/arm-none-eabi/10.3.1/../../../../arm-none-eabi/lib/thumb/v7e-m+dp/hard/libcr_c.a(setvbuf.o)
 .bss           0x0000000000000000        0x0 /usr/local/mcuxpressoide-11.6.1_8255/ide/plugins/com.nxp.mcuxpresso.tools.linux_11.6.1.202207200623/tools/bin/../lib/gcc/arm-none-eabi/10.3.1/../../../../arm-none-eabi/lib/thumb/v7e-m+dp/hard/libcr_c.a(setvbuf.o)
 .text          0x0000000000000000        0x0 /usr/local/mcuxpressoide-11.6.1_8255/ide/plugins/com.nxp.mcuxpresso.tools.linux_11.6.1.202207200623/tools/bin/../lib/gcc/arm-none-eabi/10.3.1/../../../../arm-none-eabi/lib/thumb/v7e-m+dp/hard/libcr_c.a(strlen.o)
 .data          0x0000000000000000        0x0 /usr/local/mcuxpressoide-11.6.1_8255/ide/plugins/com.nxp.mcuxpresso.tools.linux_11.6.1.202207200623/tools/bin/../lib/gcc/arm-none-eabi/10.3.1/../../../../arm-none-eabi/lib/thumb/v7e-m+dp/hard/libcr_c.a(strlen.o)
 .bss           0x0000000000000000        0x0 /usr/local/mcuxpressoide-11.6.1_8255/ide/plugins/com.nxp.mcuxpresso.tools.linux_11.6.1.202207200623/tools/bin/../lib/gcc/arm-none-eabi/10.3.1/../../../../arm-none-eabi/lib/thumb/v7e-m+dp/hard/libcr_c.a(strlen.o)
 .text          0x0000000000000000        0x0 /usr/local/mcuxpressoide-11.6.1_8255/ide/plugins/com.nxp.mcuxpresso.tools.linux_11.6.1.202207200623/tools/bin/../lib/gcc/arm-none-eabi/10.3.1/../../../../arm-none-eabi/lib/thumb/v7e-m+dp/hard/libcr_c.a(__init_alloc.o)
 .data          0x0000000000000000        0x0 /usr/local/mcuxpressoide-11.6.1_8255/ide/plugins/com.nxp.mcuxpresso.tools.linux_11.6.1.202207200623/tools/bin/../lib/gcc/arm-none-eabi/10.3.1/../../../../arm-none-eabi/lib/thumb/v7e-m+dp/hard/libcr_c.a(__init_alloc.o)
 .bss           0x0000000000000000        0x0 /usr/local/mcuxpressoide-11.6.1_8255/ide/plugins/com.nxp.mcuxpresso.tools.linux_11.6.1.202207200623/tools/bin/../lib/gcc/arm-none-eabi/10.3.1/../../../../arm-none-eabi/lib/thumb/v7e-m+dp/hard/libcr_c.a(__init_alloc.o)
 .text._init_alloc
                0x0000000000000000       0x14 /usr/local/mcuxpressoide-11.6.1_8255/ide/plugins/com.nxp.mcuxpresso.tools.linux_11.6.1.202207200623/tools/bin/../lib/gcc/arm-none-eabi/10.3.1/../../../../arm-none-eabi/lib/thumb/v7e-m+dp/hard/libcr_c.a(__init_alloc.o)
 .bss.__end_of_heap
                0x0000000000000000        0x4 /usr/local/mcuxpressoide-11.6.1_8255/ide/plugins/com.nxp.mcuxpresso.tools.linux_11.6.1.202207200623/tools/bin/../lib/gcc/arm-none-eabi/10.3.1/../../../../arm-none-eabi/lib/thumb/v7e-m+dp/hard/libcr_c.a(__init_alloc.o)
 .bss.__heaps   0x0000000000000000        0x4 /usr/local/mcuxpressoide-11.6.1_8255/ide/plugins/com.nxp.mcuxpresso.tools.linux_11.6.1.202207200623/tools/bin/../lib/gcc/arm-none-eabi/10.3.1/../../../../arm-none-eabi/lib/thumb/v7e-m+dp/hard/libcr_c.a(__init_alloc.o)
 .comment       0x0000000000000000       0x4a /usr/local/mcuxpressoide-11.6.1_8255/ide/plugins/com.nxp.mcuxpresso.tools.linux_11.6.1.202207200623/tools/bin/../lib/gcc/arm-none-eabi/10.3.1/../../../../arm-none-eabi/lib/thumb/v7e-m+dp/hard/libcr_c.a(__init_alloc.o)
 .ARM.attributes
                0x0000000000000000       0x32 /usr/local/mcuxpressoide-11.6.1_8255/ide/plugins/com.nxp.mcuxpresso.tools.linux_11.6.1.202207200623/tools/bin/../lib/gcc/arm-none-eabi/10.3.1/../../../../arm-none-eabi/lib/thumb/v7e-m+dp/hard/libcr_c.a(__init_alloc.o)
 .text          0x0000000000000000        0x0 /usr/local/mcuxpressoide-11.6.1_8255/ide/plugins/com.nxp.mcuxpresso.tools.linux_11.6.1.202207200623/tools/bin/../lib/gcc/arm-none-eabi/10.3.1/../../../../arm-none-eabi/lib/thumb/v7e-m+dp/hard/libcr_c.a(_cr_sbrk.o)
 .data          0x0000000000000000        0x0 /usr/local/mcuxpressoide-11.6.1_8255/ide/plugins/com.nxp.mcuxpresso.tools.linux_11.6.1.202207200623/tools/bin/../lib/gcc/arm-none-eabi/10.3.1/../../../../arm-none-eabi/lib/thumb/v7e-m+dp/hard/libcr_c.a(_cr_sbrk.o)
 .bss           0x0000000000000000        0x0 /usr/local/mcuxpressoide-11.6.1_8255/ide/plugins/com.nxp.mcuxpresso.tools.linux_11.6.1.202207200623/tools/bin/../lib/gcc/arm-none-eabi/10.3.1/../../../../arm-none-eabi/lib/thumb/v7e-m+dp/hard/libcr_c.a(_cr_sbrk.o)
 .text._sbrk    0x0000000000000000       0x3c /usr/local/mcuxpressoide-11.6.1_8255/ide/plugins/com.nxp.mcuxpresso.tools.linux_11.6.1.202207200623/tools/bin/../lib/gcc/arm-none-eabi/10.3.1/../../../../arm-none-eabi/lib/thumb/v7e-m+dp/hard/libcr_c.a(_cr_sbrk.o)
 .comment       0x0000000000000000       0x4a /usr/local/mcuxpressoide-11.6.1_8255/ide/plugins/com.nxp.mcuxpresso.tools.linux_11.6.1.202207200623/tools/bin/../lib/gcc/arm-none-eabi/10.3.1/../../../../arm-none-eabi/lib/thumb/v7e-m+dp/hard/libcr_c.a(_cr_sbrk.o)
 .ARM.attributes
                0x0000000000000000       0x32 /usr/local/mcuxpressoide-11.6.1_8255/ide/plugins/com.nxp.mcuxpresso.tools.linux_11.6.1.202207200623/tools/bin/../lib/gcc/arm-none-eabi/10.3.1/../../../../arm-none-eabi/lib/thumb/v7e-m+dp/hard/libcr_c.a(_cr_sbrk.o)
 .text          0x0000000000000000        0x0 /usr/local/mcuxpressoide-11.6.1_8255/ide/plugins/com.nxp.mcuxpresso.tools.linux_11.6.1.202207200623/tools/bin/../lib/gcc/arm-none-eabi/10.3.1/../../../../arm-none-eabi/lib/thumb/v7e-m+dp/hard/libcr_c.a(_fdopen.o)
 .data          0x0000000000000000        0x0 /usr/local/mcuxpressoide-11.6.1_8255/ide/plugins/com.nxp.mcuxpresso.tools.linux_11.6.1.202207200623/tools/bin/../lib/gcc/arm-none-eabi/10.3.1/../../../../arm-none-eabi/lib/thumb/v7e-m+dp/hard/libcr_c.a(_fdopen.o)
 .bss           0x0000000000000000        0x0 /usr/local/mcuxpressoide-11.6.1_8255/ide/plugins/com.nxp.mcuxpresso.tools.linux_11.6.1.202207200623/tools/bin/../lib/gcc/arm-none-eabi/10.3.1/../../../../arm-none-eabi/lib/thumb/v7e-m+dp/hard/libcr_c.a(_fdopen.o)
 .text          0x0000000000000000        0x0 /usr/local/mcuxpressoide-11.6.1_8255/ide/plugins/com.nxp.mcuxpresso.tools.linux_11.6.1.202207200623/tools/bin/../lib/gcc/arm-none-eabi/10.3.1/../../../../arm-none-eabi/lib/thumb/v7e-m+dp/hard/libcr_c.a(errno.o)
 .data          0x0000000000000000        0x0 /usr/local/mcuxpressoide-11.6.1_8255/ide/plugins/com.nxp.mcuxpresso.tools.linux_11.6.1.202207200623/tools/bin/../lib/gcc/arm-none-eabi/10.3.1/../../../../arm-none-eabi/lib/thumb/v7e-m+dp/hard/libcr_c.a(errno.o)
 .bss           0x0000000000000000        0x0 /usr/local/mcuxpressoide-11.6.1_8255/ide/plugins/com.nxp.mcuxpresso.tools.linux_11.6.1.202207200623/tools/bin/../lib/gcc/arm-none-eabi/10.3.1/../../../../arm-none-eabi/lib/thumb/v7e-m+dp/hard/libcr_c.a(errno.o)
 .text          0x0000000000000000        0x0 /usr/local/mcuxpressoide-11.6.1_8255/ide/plugins/com.nxp.mcuxpresso.tools.linux_11.6.1.202207200623/tools/bin/../lib/gcc/arm-none-eabi/10.3.1/../../../../arm-none-eabi/lib/thumb/v7e-m+dp/hard/libcr_c.a(fclose.o)
 .data          0x0000000000000000        0x0 /usr/local/mcuxpressoide-11.6.1_8255/ide/plugins/com.nxp.mcuxpresso.tools.linux_11.6.1.202207200623/tools/bin/../lib/gcc/arm-none-eabi/10.3.1/../../../../arm-none-eabi/lib/thumb/v7e-m+dp/hard/libcr_c.a(fclose.o)
 .bss           0x0000000000000000        0x0 /usr/local/mcuxpressoide-11.6.1_8255/ide/plugins/com.nxp.mcuxpresso.tools.linux_11.6.1.202207200623/tools/bin/../lib/gcc/arm-none-eabi/10.3.1/../../../../arm-none-eabi/lib/thumb/v7e-m+dp/hard/libcr_c.a(fclose.o)
 .text          0x0000000000000000        0x0 /usr/local/mcuxpressoide-11.6.1_8255/ide/plugins/com.nxp.mcuxpresso.tools.linux_11.6.1.202207200623/tools/bin/../lib/gcc/arm-none-eabi/10.3.1/../../../../arm-none-eabi/lib/thumb/v7e-m+dp/hard/libcr_c.a(fflush.o)
 .data          0x0000000000000000        0x0 /usr/local/mcuxpressoide-11.6.1_8255/ide/plugins/com.nxp.mcuxpresso.tools.linux_11.6.1.202207200623/tools/bin/../lib/gcc/arm-none-eabi/10.3.1/../../../../arm-none-eabi/lib/thumb/v7e-m+dp/hard/libcr_c.a(fflush.o)
 .bss           0x0000000000000000        0x0 /usr/local/mcuxpressoide-11.6.1_8255/ide/plugins/com.nxp.mcuxpresso.tools.linux_11.6.1.202207200623/tools/bin/../lib/gcc/arm-none-eabi/10.3.1/../../../../arm-none-eabi/lib/thumb/v7e-m+dp/hard/libcr_c.a(fflush.o)
 .text          0x0000000000000000        0x0 /usr/local/mcuxpressoide-11.6.1_8255/ide/plugins/com.nxp.mcuxpresso.tools.linux_11.6.1.202207200623/tools/bin/../lib/gcc/arm-none-eabi/10.3.1/../../../../arm-none-eabi/lib/thumb/v7e-m+dp/hard/libcr_c.a(fseek.o)
 .data          0x0000000000000000        0x0 /usr/local/mcuxpressoide-11.6.1_8255/ide/plugins/com.nxp.mcuxpresso.tools.linux_11.6.1.202207200623/tools/bin/../lib/gcc/arm-none-eabi/10.3.1/../../../../arm-none-eabi/lib/thumb/v7e-m+dp/hard/libcr_c.a(fseek.o)
 .bss           0x0000000000000000        0x0 /usr/local/mcuxpressoide-11.6.1_8255/ide/plugins/com.nxp.mcuxpresso.tools.linux_11.6.1.202207200623/tools/bin/../lib/gcc/arm-none-eabi/10.3.1/../../../../arm-none-eabi/lib/thumb/v7e-m+dp/hard/libcr_c.a(fseek.o)
 .text          0x0000000000000000        0x0 /usr/local/mcuxpressoide-11.6.1_8255/ide/plugins/com.nxp.mcuxpresso.tools.linux_11.6.1.202207200623/tools/bin/../lib/gcc/arm-none-eabi/10.3.1/../../../../arm-none-eabi/lib/thumb/v7e-m+dp/hard/libcr_c.a(ftell.o)
 .data          0x0000000000000000        0x0 /usr/local/mcuxpressoide-11.6.1_8255/ide/plugins/com.nxp.mcuxpresso.tools.linux_11.6.1.202207200623/tools/bin/../lib/gcc/arm-none-eabi/10.3.1/../../../../arm-none-eabi/lib/thumb/v7e-m+dp/hard/libcr_c.a(ftell.o)
 .bss           0x0000000000000000        0x0 /usr/local/mcuxpressoide-11.6.1_8255/ide/plugins/com.nxp.mcuxpresso.tools.linux_11.6.1.202207200623/tools/bin/../lib/gcc/arm-none-eabi/10.3.1/../../../../arm-none-eabi/lib/thumb/v7e-m+dp/hard/libcr_c.a(ftell.o)
 .text          0x0000000000000000        0x0 /usr/local/mcuxpressoide-11.6.1_8255/ide/plugins/com.nxp.mcuxpresso.tools.linux_11.6.1.202207200623/tools/bin/../lib/gcc/arm-none-eabi/10.3.1/../../../../arm-none-eabi/lib/thumb/v7e-m+dp/hard/libcr_c.a(remove.o)
 .data          0x0000000000000000        0x0 /usr/local/mcuxpressoide-11.6.1_8255/ide/plugins/com.nxp.mcuxpresso.tools.linux_11.6.1.202207200623/tools/bin/../lib/gcc/arm-none-eabi/10.3.1/../../../../arm-none-eabi/lib/thumb/v7e-m+dp/hard/libcr_c.a(remove.o)
 .bss           0x0000000000000000        0x0 /usr/local/mcuxpressoide-11.6.1_8255/ide/plugins/com.nxp.mcuxpresso.tools.linux_11.6.1.202207200623/tools/bin/../lib/gcc/arm-none-eabi/10.3.1/../../../../arm-none-eabi/lib/thumb/v7e-m+dp/hard/libcr_c.a(remove.o)
 .text.rename   0x0000000000000000       0x2a /usr/local/mcuxpressoide-11.6.1_8255/ide/plugins/com.nxp.mcuxpresso.tools.linux_11.6.1.202207200623/tools/bin/../lib/gcc/arm-none-eabi/10.3.1/../../../../arm-none-eabi/lib/thumb/v7e-m+dp/hard/libcr_c.a(remove.o)
 .text          0x0000000000000000        0x0 /usr/local/mcuxpressoide-11.6.1_8255/ide/plugins/com.nxp.mcuxpresso.tools.linux_11.6.1.202207200623/tools/bin/../lib/gcc/arm-none-eabi/10.3.1/../../../../arm-none-eabi/lib/thumb/v7e-m+dp/hard/libcr_c.a(_cr_check_heap.o)
 .data          0x0000000000000000        0x0 /usr/local/mcuxpressoide-11.6.1_8255/ide/plugins/com.nxp.mcuxpresso.tools.linux_11.6.1.202207200623/tools/bin/../lib/gcc/arm-none-eabi/10.3.1/../../../../arm-none-eabi/lib/thumb/v7e-m+dp/hard/libcr_c.a(_cr_check_heap.o)
 .bss           0x0000000000000000        0x0 /usr/local/mcuxpressoide-11.6.1_8255/ide/plugins/com.nxp.mcuxpresso.tools.linux_11.6.1.202207200623/tools/bin/../lib/gcc/arm-none-eabi/10.3.1/../../../../arm-none-eabi/lib/thumb/v7e-m+dp/hard/libcr_c.a(_cr_check_heap.o)
 .text.__check_heap_overflow
                0x0000000000000000       0x18 /usr/local/mcuxpressoide-11.6.1_8255/ide/plugins/com.nxp.mcuxpresso.tools.linux_11.6.1.202207200623/tools/bin/../lib/gcc/arm-none-eabi/10.3.1/../../../../arm-none-eabi/lib/thumb/v7e-m+dp/hard/libcr_c.a(_cr_check_heap.o)
 .comment       0x0000000000000000       0x4a /usr/local/mcuxpressoide-11.6.1_8255/ide/plugins/com.nxp.mcuxpresso.tools.linux_11.6.1.202207200623/tools/bin/../lib/gcc/arm-none-eabi/10.3.1/../../../../arm-none-eabi/lib/thumb/v7e-m+dp/hard/libcr_c.a(_cr_check_heap.o)
 .ARM.attributes
                0x0000000000000000       0x32 /usr/local/mcuxpressoide-11.6.1_8255/ide/plugins/com.nxp.mcuxpresso.tools.linux_11.6.1.202207200623/tools/bin/../lib/gcc/arm-none-eabi/10.3.1/../../../../arm-none-eabi/lib/thumb/v7e-m+dp/hard/libcr_c.a(_cr_check_heap.o)
 .text          0x0000000000000000        0x0 /usr/local/mcuxpressoide-11.6.1_8255/ide/plugins/com.nxp.mcuxpresso.tools.linux_11.6.1.202207200623/tools/bin/../lib/gcc/arm-none-eabi/10.3.1/../../../../arm-none-eabi/lib/thumb/v7e-m+dp/hard/libcr_c.a(_do_fflush.o)
 .data          0x0000000000000000        0x0 /usr/local/mcuxpressoide-11.6.1_8255/ide/plugins/com.nxp.mcuxpresso.tools.linux_11.6.1.202207200623/tools/bin/../lib/gcc/arm-none-eabi/10.3.1/../../../../arm-none-eabi/lib/thumb/v7e-m+dp/hard/libcr_c.a(_do_fflush.o)
 .bss           0x0000000000000000        0x0 /usr/local/mcuxpressoide-11.6.1_8255/ide/plugins/com.nxp.mcuxpresso.tools.linux_11.6.1.202207200623/tools/bin/../lib/gcc/arm-none-eabi/10.3.1/../../../../arm-none-eabi/lib/thumb/v7e-m+dp/hard/libcr_c.a(_do_fflush.o)
 .text          0x0000000000000000        0x0 /usr/local/mcuxpressoide-11.6.1_8255/ide/plugins/com.nxp.mcuxpresso.tools.linux_11.6.1.202207200623/tools/bin/../lib/gcc/arm-none-eabi/10.3.1/../../../../arm-none-eabi/lib/thumb/v7e-m+dp/hard/libcr_c.a(_fflush.o)
 .data          0x0000000000000000        0x0 /usr/local/mcuxpressoide-11.6.1_8255/ide/plugins/com.nxp.mcuxpresso.tools.linux_11.6.1.202207200623/tools/bin/../lib/gcc/arm-none-eabi/10.3.1/../../../../arm-none-eabi/lib/thumb/v7e-m+dp/hard/libcr_c.a(_fflush.o)
 .bss           0x0000000000000000        0x0 /usr/local/mcuxpressoide-11.6.1_8255/ide/plugins/com.nxp.mcuxpresso.tools.linux_11.6.1.202207200623/tools/bin/../lib/gcc/arm-none-eabi/10.3.1/../../../../arm-none-eabi/lib/thumb/v7e-m+dp/hard/libcr_c.a(_fflush.o)
 .text          0x0000000000000000        0x0 /usr/local/mcuxpressoide-11.6.1_8255/ide/plugins/com.nxp.mcuxpresso.tools.linux_11.6.1.202207200623/tools/bin/../lib/gcc/arm-none-eabi/10.3.1/../../../../arm-none-eabi/lib/thumb/v7e-m+dp/hard/libcr_c.a(_writebuf.o)
 .data          0x0000000000000000        0x0 /usr/local/mcuxpressoide-11.6.1_8255/ide/plugins/com.nxp.mcuxpresso.tools.linux_11.6.1.202207200623/tools/bin/../lib/gcc/arm-none-eabi/10.3.1/../../../../arm-none-eabi/lib/thumb/v7e-m+dp/hard/libcr_c.a(_writebuf.o)
 .bss           0x0000000000000000        0x0 /usr/local/mcuxpressoide-11.6.1_8255/ide/plugins/com.nxp.mcuxpresso.tools.linux_11.6.1.202207200623/tools/bin/../lib/gcc/arm-none-eabi/10.3.1/../../../../arm-none-eabi/lib/thumb/v7e-m+dp/hard/libcr_c.a(_writebuf.o)
 .text          0x0000000000000000        0x0 /usr/local/mcuxpressoide-11.6.1_8255/ide/plugins/com.nxp.mcuxpresso.tools.linux_11.6.1.202207200623/tools/bin/../lib/gcc/arm-none-eabi/10.3.1/../../../../arm-none-eabi/lib/thumb/v7e-m+dp/hard/libcr_c.a(_deferredlazyseek.o)
 .data          0x0000000000000000        0x0 /usr/local/mcuxpressoide-11.6.1_8255/ide/plugins/com.nxp.mcuxpresso.tools.linux_11.6.1.202207200623/tools/bin/../lib/gcc/arm-none-eabi/10.3.1/../../../../arm-none-eabi/lib/thumb/v7e-m+dp/hard/libcr_c.a(_deferredlazyseek.o)
 .bss           0x0000000000000000        0x0 /usr/local/mcuxpressoide-11.6.1_8255/ide/plugins/com.nxp.mcuxpresso.tools.linux_11.6.1.202207200623/tools/bin/../lib/gcc/arm-none-eabi/10.3.1/../../../../arm-none-eabi/lib/thumb/v7e-m+dp/hard/libcr_c.a(_deferredlazyseek.o)
 .text.__flsbuf
                0x0000000000000000      0x140 /usr/local/mcuxpressoide-11.6.1_8255/ide/plugins/com.nxp.mcuxpresso.tools.linux_11.6.1.202207200623/tools/bin/../lib/gcc/arm-none-eabi/10.3.1/../../../../arm-none-eabi/lib/thumb/v7e-m+dp/hard/libcr_c.a(_deferredlazyseek.o)
 .text          0x0000000000000000        0x0 /usr/local/mcuxpressoide-11.6.1_8255/ide/plugins/com.nxp.mcuxpresso.tools.linux_11.6.1.202207200623/tools/bin/../lib/gcc/arm-none-eabi/10.3.1/thumb/v7e-m+dp/hard/libcr_eabihelpers.a(division_64.o)
 .data          0x0000000000000000        0x0 /usr/local/mcuxpressoide-11.6.1_8255/ide/plugins/com.nxp.mcuxpresso.tools.linux_11.6.1.202207200623/tools/bin/../lib/gcc/arm-none-eabi/10.3.1/thumb/v7e-m+dp/hard/libcr_eabihelpers.a(division_64.o)
 .bss           0x0000000000000000        0x0 /usr/local/mcuxpressoide-11.6.1_8255/ide/plugins/com.nxp.mcuxpresso.tools.linux_11.6.1.202207200623/tools/bin/../lib/gcc/arm-none-eabi/10.3.1/thumb/v7e-m+dp/hard/libcr_eabihelpers.a(division_64.o)
 .text.__aeabi_division_ldivmod
                0x0000000000000000       0x26 /usr/local/mcuxpressoide-11.6.1_8255/ide/plugins/com.nxp.mcuxpresso.tools.linux_11.6.1.202207200623/tools/bin/../lib/gcc/arm-none-eabi/10.3.1/thumb/v7e-m+dp/hard/libcr_eabihelpers.a(division_64.o)
 .text          0x0000000000000000        0x0 /usr/local/mcuxpressoide-11.6.1_8255/ide/plugins/com.nxp.mcuxpresso.tools.linux_11.6.1.202207200623/tools/bin/../lib/gcc/arm-none-eabi/10.3.1/thumb/v7e-m+dp/hard/libcr_eabihelpers.a(division_idiv0.o)
 .data          0x0000000000000000        0x0 /usr/local/mcuxpressoide-11.6.1_8255/ide/plugins/com.nxp.mcuxpresso.tools.linux_11.6.1.202207200623/tools/bin/../lib/gcc/arm-none-eabi/10.3.1/thumb/v7e-m+dp/hard/libcr_eabihelpers.a(division_idiv0.o)
 .bss           0x0000000000000000        0x0 /usr/local/mcuxpressoide-11.6.1_8255/ide/plugins/com.nxp.mcuxpresso.tools.linux_11.6.1.202207200623/tools/bin/../lib/gcc/arm-none-eabi/10.3.1/thumb/v7e-m+dp/hard/libcr_eabihelpers.a(division_idiv0.o)
 .text          0x0000000000000000        0x0 /usr/local/mcuxpressoide-11.6.1_8255/ide/plugins/com.nxp.mcuxpresso.tools.linux_11.6.1.202207200623/tools/bin/../lib/gcc/arm-none-eabi/10.3.1/thumb/v7e-m+dp/hard/libcr_eabihelpers.a(memcpy.o)
 .data          0x0000000000000000        0x0 /usr/local/mcuxpressoide-11.6.1_8255/ide/plugins/com.nxp.mcuxpresso.tools.linux_11.6.1.202207200623/tools/bin/../lib/gcc/arm-none-eabi/10.3.1/thumb/v7e-m+dp/hard/libcr_eabihelpers.a(memcpy.o)
 .bss           0x0000000000000000        0x0 /usr/local/mcuxpressoide-11.6.1_8255/ide/plugins/com.nxp.mcuxpresso.tools.linux_11.6.1.202207200623/tools/bin/../lib/gcc/arm-none-eabi/10.3.1/thumb/v7e-m+dp/hard/libcr_eabihelpers.a(memcpy.o)
 .text.__aeabi_memmove
                0x0000000000000000       0x1c /usr/local/mcuxpressoide-11.6.1_8255/ide/plugins/com.nxp.mcuxpresso.tools.linux_11.6.1.202207200623/tools/bin/../lib/gcc/arm-none-eabi/10.3.1/thumb/v7e-m+dp/hard/libcr_eabihelpers.a(memcpy.o)
 .text.__aeabi_memclr
                0x0000000000000000        0x8 /usr/local/mcuxpressoide-11.6.1_8255/ide/plugins/com.nxp.mcuxpresso.tools.linux_11.6.1.202207200623/tools/bin/../lib/gcc/arm-none-eabi/10.3.1/thumb/v7e-m+dp/hard/libcr_eabihelpers.a(memcpy.o)
 .text.__aeabi_memset
                0x0000000000000000        0xa /usr/local/mcuxpressoide-11.6.1_8255/ide/plugins/com.nxp.mcuxpresso.tools.linux_11.6.1.202207200623/tools/bin/../lib/gcc/arm-none-eabi/10.3.1/thumb/v7e-m+dp/hard/libcr_eabihelpers.a(memcpy.o)
 .text          0x0000000000000000        0x0 /usr/local/mcuxpressoide-11.6.1_8255/ide/plugins/com.nxp.mcuxpresso.tools.linux_11.6.1.202207200623/tools/bin/../lib/gcc/arm-none-eabi/10.3.1/../../../../arm-none-eabi/lib/thumb/v7e-m+dp/hard/libcr_nohost_nf.a(__ciob.o)
 .data          0x0000000000000000        0x0 /usr/local/mcuxpressoide-11.6.1_8255/ide/plugins/com.nxp.mcuxpresso.tools.linux_11.6.1.202207200623/tools/bin/../lib/gcc/arm-none-eabi/10.3.1/../../../../arm-none-eabi/lib/thumb/v7e-m+dp/hard/libcr_nohost_nf.a(__ciob.o)
 .bss           0x0000000000000000        0x0 /usr/local/mcuxpressoide-11.6.1_8255/ide/plugins/com.nxp.mcuxpresso.tools.linux_11.6.1.202207200623/tools/bin/../lib/gcc/arm-none-eabi/10.3.1/../../../../arm-none-eabi/lib/thumb/v7e-m+dp/hard/libcr_nohost_nf.a(__ciob.o)
 .text          0x0000000000000000        0x0 /usr/local/mcuxpressoide-11.6.1_8255/ide/plugins/com.nxp.mcuxpresso.tools.linux_11.6.1.202207200623/tools/bin/../lib/gcc/arm-none-eabi/10.3.1/../../../../arm-none-eabi/lib/thumb/v7e-m+dp/hard/libcr_nohost_nf.a(__sys_appexit.o)
 .data          0x0000000000000000        0x0 /usr/local/mcuxpressoide-11.6.1_8255/ide/plugins/com.nxp.mcuxpresso.tools.linux_11.6.1.202207200623/tools/bin/../lib/gcc/arm-none-eabi/10.3.1/../../../../arm-none-eabi/lib/thumb/v7e-m+dp/hard/libcr_nohost_nf.a(__sys_appexit.o)
 .bss           0x0000000000000000        0x0 /usr/local/mcuxpressoide-11.6.1_8255/ide/plugins/com.nxp.mcuxpresso.tools.linux_11.6.1.202207200623/tools/bin/../lib/gcc/arm-none-eabi/10.3.1/../../../../arm-none-eabi/lib/thumb/v7e-m+dp/hard/libcr_nohost_nf.a(__sys_appexit.o)
 .text.__sys_appexit
                0x0000000000000000        0x2 /usr/local/mcuxpressoide-11.6.1_8255/ide/plugins/com.nxp.mcuxpresso.tools.linux_11.6.1.202207200623/tools/bin/../lib/gcc/arm-none-eabi/10.3.1/../../../../arm-none-eabi/lib/thumb/v7e-m+dp/hard/libcr_nohost_nf.a(__sys_appexit.o)
 .comment       0x0000000000000000       0x4a /usr/local/mcuxpressoide-11.6.1_8255/ide/plugins/com.nxp.mcuxpresso.tools.linux_11.6.1.202207200623/tools/bin/../lib/gcc/arm-none-eabi/10.3.1/../../../../arm-none-eabi/lib/thumb/v7e-m+dp/hard/libcr_nohost_nf.a(__sys_appexit.o)
 .ARM.attributes
                0x0000000000000000       0x32 /usr/local/mcuxpressoide-11.6.1_8255/ide/plugins/com.nxp.mcuxpresso.tools.linux_11.6.1.202207200623/tools/bin/../lib/gcc/arm-none-eabi/10.3.1/../../../../arm-none-eabi/lib/thumb/v7e-m+dp/hard/libcr_nohost_nf.a(__sys_appexit.o)
 .text          0x0000000000000000        0x0 /usr/local/mcuxpressoide-11.6.1_8255/ide/plugins/com.nxp.mcuxpresso.tools.linux_11.6.1.202207200623/tools/bin/../lib/gcc/arm-none-eabi/10.3.1/../../../../arm-none-eabi/lib/thumb/v7e-m+dp/hard/libcr_nohost_nf.a(__sys_close.o)
 .data          0x0000000000000000        0x0 /usr/local/mcuxpressoide-11.6.1_8255/ide/plugins/com.nxp.mcuxpresso.tools.linux_11.6.1.202207200623/tools/bin/../lib/gcc/arm-none-eabi/10.3.1/../../../../arm-none-eabi/lib/thumb/v7e-m+dp/hard/libcr_nohost_nf.a(__sys_close.o)
 .bss           0x0000000000000000        0x0 /usr/local/mcuxpressoide-11.6.1_8255/ide/plugins/com.nxp.mcuxpresso.tools.linux_11.6.1.202207200623/tools/bin/../lib/gcc/arm-none-eabi/10.3.1/../../../../arm-none-eabi/lib/thumb/v7e-m+dp/hard/libcr_nohost_nf.a(__sys_close.o)
 .text          0x0000000000000000        0x0 /usr/local/mcuxpressoide-11.6.1_8255/ide/plugins/com.nxp.mcuxpresso.tools.linux_11.6.1.202207200623/tools/bin/../lib/gcc/arm-none-eabi/10.3.1/../../../../arm-none-eabi/lib/thumb/v7e-m+dp/hard/libcr_nohost_nf.a(__sys_flen.o)
 .data          0x0000000000000000        0x0 /usr/local/mcuxpressoide-11.6.1_8255/ide/plugins/com.nxp.mcuxpresso.tools.linux_11.6.1.202207200623/tools/bin/../lib/gcc/arm-none-eabi/10.3.1/../../../../arm-none-eabi/lib/thumb/v7e-m+dp/hard/libcr_nohost_nf.a(__sys_flen.o)
 .bss           0x0000000000000000        0x0 /usr/local/mcuxpressoide-11.6.1_8255/ide/plugins/com.nxp.mcuxpresso.tools.linux_11.6.1.202207200623/tools/bin/../lib/gcc/arm-none-eabi/10.3.1/../../../../arm-none-eabi/lib/thumb/v7e-m+dp/hard/libcr_nohost_nf.a(__sys_flen.o)
 .text          0x0000000000000000        0x0 /usr/local/mcuxpressoide-11.6.1_8255/ide/plugins/com.nxp.mcuxpresso.tools.linux_11.6.1.202207200623/tools/bin/../lib/gcc/arm-none-eabi/10.3.1/../../../../arm-none-eabi/lib/thumb/v7e-m+dp/hard/libcr_nohost_nf.a(__sys_istty.o)
 .data          0x0000000000000000        0x0 /usr/local/mcuxpressoide-11.6.1_8255/ide/plugins/com.nxp.mcuxpresso.tools.linux_11.6.1.202207200623/tools/bin/../lib/gcc/arm-none-eabi/10.3.1/../../../../arm-none-eabi/lib/thumb/v7e-m+dp/hard/libcr_nohost_nf.a(__sys_istty.o)
 .bss           0x0000000000000000        0x0 /usr/local/mcuxpressoide-11.6.1_8255/ide/plugins/com.nxp.mcuxpresso.tools.linux_11.6.1.202207200623/tools/bin/../lib/gcc/arm-none-eabi/10.3.1/../../../../arm-none-eabi/lib/thumb/v7e-m+dp/hard/libcr_nohost_nf.a(__sys_istty.o)
 .text          0x0000000000000000        0x0 /usr/local/mcuxpressoide-11.6.1_8255/ide/plugins/com.nxp.mcuxpresso.tools.linux_11.6.1.202207200623/tools/bin/../lib/gcc/arm-none-eabi/10.3.1/../../../../arm-none-eabi/lib/thumb/v7e-m+dp/hard/libcr_nohost_nf.a(__sys_remove.o)
 .data          0x0000000000000000        0x0 /usr/local/mcuxpressoide-11.6.1_8255/ide/plugins/com.nxp.mcuxpresso.tools.linux_11.6.1.202207200623/tools/bin/../lib/gcc/arm-none-eabi/10.3.1/../../../../arm-none-eabi/lib/thumb/v7e-m+dp/hard/libcr_nohost_nf.a(__sys_remove.o)
 .bss           0x0000000000000000        0x0 /usr/local/mcuxpressoide-11.6.1_8255/ide/plugins/com.nxp.mcuxpresso.tools.linux_11.6.1.202207200623/tools/bin/../lib/gcc/arm-none-eabi/10.3.1/../../../../arm-none-eabi/lib/thumb/v7e-m+dp/hard/libcr_nohost_nf.a(__sys_remove.o)
 .text          0x0000000000000000        0x0 /usr/local/mcuxpressoide-11.6.1_8255/ide/plugins/com.nxp.mcuxpresso.tools.linux_11.6.1.202207200623/tools/bin/../lib/gcc/arm-none-eabi/10.3.1/../../../../arm-none-eabi/lib/thumb/v7e-m+dp/hard/libcr_nohost_nf.a(__sys_rename.o)
 .data          0x0000000000000000        0x0 /usr/local/mcuxpressoide-11.6.1_8255/ide/plugins/com.nxp.mcuxpresso.tools.linux_11.6.1.202207200623/tools/bin/../lib/gcc/arm-none-eabi/10.3.1/../../../../arm-none-eabi/lib/thumb/v7e-m+dp/hard/libcr_nohost_nf.a(__sys_rename.o)
 .bss           0x0000000000000000        0x0 /usr/local/mcuxpressoide-11.6.1_8255/ide/plugins/com.nxp.mcuxpresso.tools.linux_11.6.1.202207200623/tools/bin/../lib/gcc/arm-none-eabi/10.3.1/../../../../arm-none-eabi/lib/thumb/v7e-m+dp/hard/libcr_nohost_nf.a(__sys_rename.o)
 .text.__sys_rename
                0x0000000000000000        0x6 /usr/local/mcuxpressoide-11.6.1_8255/ide/plugins/com.nxp.mcuxpresso.tools.linux_11.6.1.202207200623/tools/bin/../lib/gcc/arm-none-eabi/10.3.1/../../../../arm-none-eabi/lib/thumb/v7e-m+dp/hard/libcr_nohost_nf.a(__sys_rename.o)
 .comment       0x0000000000000000       0x4a /usr/local/mcuxpressoide-11.6.1_8255/ide/plugins/com.nxp.mcuxpresso.tools.linux_11.6.1.202207200623/tools/bin/../lib/gcc/arm-none-eabi/10.3.1/../../../../arm-none-eabi/lib/thumb/v7e-m+dp/hard/libcr_nohost_nf.a(__sys_rename.o)
 .ARM.attributes
                0x0000000000000000       0x32 /usr/local/mcuxpressoide-11.6.1_8255/ide/plugins/com.nxp.mcuxpresso.tools.linux_11.6.1.202207200623/tools/bin/../lib/gcc/arm-none-eabi/10.3.1/../../../../arm-none-eabi/lib/thumb/v7e-m+dp/hard/libcr_nohost_nf.a(__sys_rename.o)
 .text          0x0000000000000000        0x0 /usr/local/mcuxpressoide-11.6.1_8255/ide/plugins/com.nxp.mcuxpresso.tools.linux_11.6.1.202207200623/tools/bin/../lib/gcc/arm-none-eabi/10.3.1/../../../../arm-none-eabi/lib/thumb/v7e-m+dp/hard/libcr_nohost_nf.a(__sys_seek.o)
 .data          0x0000000000000000        0x0 /usr/local/mcuxpressoide-11.6.1_8255/ide/plugins/com.nxp.mcuxpresso.tools.linux_11.6.1.202207200623/tools/bin/../lib/gcc/arm-none-eabi/10.3.1/../../../../arm-none-eabi/lib/thumb/v7e-m+dp/hard/libcr_nohost_nf.a(__sys_seek.o)
 .bss           0x0000000000000000        0x0 /usr/local/mcuxpressoide-11.6.1_8255/ide/plugins/com.nxp.mcuxpresso.tools.linux_11.6.1.202207200623/tools/bin/../lib/gcc/arm-none-eabi/10.3.1/../../../../arm-none-eabi/lib/thumb/v7e-m+dp/hard/libcr_nohost_nf.a(__sys_seek.o)
 .text          0x0000000000000000        0x0 /usr/local/mcuxpressoide-11.6.1_8255/ide/plugins/com.nxp.mcuxpresso.tools.linux_11.6.1.202207200623/tools/bin/../lib/gcc/arm-none-eabi/10.3.1/../../../../arm-none-eabi/lib/thumb/v7e-m+dp/hard/libcr_nohost_nf.a(__sys_tmpnam.o)
 .data          0x0000000000000000        0x0 /usr/local/mcuxpressoide-11.6.1_8255/ide/plugins/com.nxp.mcuxpresso.tools.linux_11.6.1.202207200623/tools/bin/../lib/gcc/arm-none-eabi/10.3.1/../../../../arm-none-eabi/lib/thumb/v7e-m+dp/hard/libcr_nohost_nf.a(__sys_tmpnam.o)
 .bss           0x0000000000000000        0x0 /usr/local/mcuxpressoide-11.6.1_8255/ide/plugins/com.nxp.mcuxpresso.tools.linux_11.6.1.202207200623/tools/bin/../lib/gcc/arm-none-eabi/10.3.1/../../../../arm-none-eabi/lib/thumb/v7e-m+dp/hard/libcr_nohost_nf.a(__sys_tmpnam.o)
 .text          0x0000000000000000        0x0 /usr/local/mcuxpressoide-11.6.1_8255/ide/plugins/com.nxp.mcuxpresso.tools.linux_11.6.1.202207200623/tools/bin/../lib/gcc/arm-none-eabi/10.3.1/../../../../arm-none-eabi/lib/thumb/v7e-m+dp/hard/libcr_nohost_nf.a(__sys_write.o)
 .data          0x0000000000000000        0x0 /usr/local/mcuxpressoide-11.6.1_8255/ide/plugins/com.nxp.mcuxpresso.tools.linux_11.6.1.202207200623/tools/bin/../lib/gcc/arm-none-eabi/10.3.1/../../../../arm-none-eabi/lib/thumb/v7e-m+dp/hard/libcr_nohost_nf.a(__sys_write.o)
 .bss           0x0000000000000000        0x0 /usr/local/mcuxpressoide-11.6.1_8255/ide/plugins/com.nxp.mcuxpresso.tools.linux_11.6.1.202207200623/tools/bin/../lib/gcc/arm-none-eabi/10.3.1/../../../../arm-none-eabi/lib/thumb/v7e-m+dp/hard/libcr_nohost_nf.a(__sys_write.o)

Memory Configuration

Name             Origin             Length             Attributes
BOARD_FLASH      0x0000000060000000 0x0000000000800000 xr
SRAM_DTC         0x0000000020000000 0x0000000000010000 xrw
SRAM_ITC         0x0000000000000000 0x0000000000010000 xrw
SRAM_OC          0x0000000020200000 0x0000000000020000 xrw
BOARD_SDRAM      0x0000000080000000 0x0000000001e00000 xrw
NCACHE_REGION    0x0000000081e00000 0x0000000000200000 xrw
*default*        0x0000000000000000 0xffffffffffffffff

Linker script and memory map

LOAD ./xip/evkmimxrt1020_flexspi_nor_config.o
LOAD ./xip/fsl_flexspi_nor_boot.o
LOAD ./utilities/fsl_assert.o
LOAD ./utilities/fsl_debug_console.o
LOAD ./startup/startup_mimxrt1021.o
LOAD ./source/gpio_led_output.o
LOAD ./source/semihost_hardfault.o
LOAD ./drivers/fsl_clock.o
LOAD ./drivers/fsl_common.o
LOAD ./drivers/fsl_common_arm.o
LOAD ./drivers/fsl_gpio.o
LOAD ./drivers/fsl_lpuart.o
LOAD ./device/system_MIMXRT1021.o
LOAD ./component/uart/fsl_adapter_lpuart.o
LOAD ./component/silicon_id/fsl_silicon_id.o
LOAD ./component/lists/fsl_component_generic_list.o
LOAD ./board/board.o
LOAD ./board/clock_config.o
LOAD ./board/dcd.o
LOAD ./board/pin_mux.o
START GROUP
LOAD /usr/local/mcuxpressoide-11.6.1_8255/ide/plugins/com.nxp.mcuxpresso.tools.linux_11.6.1.202207200623/tools/bin/../lib/gcc/arm-none-eabi/10.3.1/../../../../arm-none-eabi/lib/thumb/v7e-m+dp/hard/libcr_nohost_nf.a
LOAD /usr/local/mcuxpressoide-11.6.1_8255/ide/plugins/com.nxp.mcuxpresso.tools.linux_11.6.1.202207200623/tools/bin/../lib/gcc/arm-none-eabi/10.3.1/../../../../arm-none-eabi/lib/thumb/v7e-m+dp/hard/libcr_c.a
LOAD /usr/local/mcuxpressoide-11.6.1_8255/ide/plugins/com.nxp.mcuxpresso.tools.linux_11.6.1.202207200623/tools/bin/../lib/gcc/arm-none-eabi/10.3.1/thumb/v7e-m+dp/hard/libcr_eabihelpers.a
LOAD /usr/local/mcuxpressoide-11.6.1_8255/ide/plugins/com.nxp.mcuxpresso.tools.linux_11.6.1.202207200623/tools/bin/../lib/gcc/arm-none-eabi/10.3.1/thumb/v7e-m+dp/hard/libgcc.a
END GROUP
                0x0000000060000000                __base_BOARD_FLASH = 0x60000000
                0x0000000060000000                __base_Flash = 0x60000000
                0x0000000060800000                __top_BOARD_FLASH = 0x60800000
                0x0000000060800000                __top_Flash = 0x60800000
                0x0000000020000000                __base_SRAM_DTC = 0x20000000
                0x0000000020000000                __base_RAM = 0x20000000
                0x0000000020010000                __top_SRAM_DTC = 0x20010000
                0x0000000020010000                __top_RAM = 0x20010000
                0x0000000000000000                __base_SRAM_ITC = 0x0
                0x0000000000000000                __base_RAM2 = 0x0
                0x0000000000010000                __top_SRAM_ITC = 0x10000
                0x0000000000010000                __top_RAM2 = 0x10000
                0x0000000020200000                __base_SRAM_OC = 0x20200000
                0x0000000020200000                __base_RAM3 = 0x20200000
                0x0000000020220000                __top_SRAM_OC = 0x20220000
                0x0000000020220000                __top_RAM3 = 0x20220000
                0x0000000080000000                __base_BOARD_SDRAM = 0x80000000
                0x0000000080000000                __base_RAM4 = 0x80000000
                0x0000000081e00000                __top_BOARD_SDRAM = 0x81e00000
                0x0000000081e00000                __top_RAM4 = 0x81e00000
                0x0000000081e00000                __base_NCACHE_REGION = 0x81e00000
                0x0000000081e00000                __base_RAM5 = 0x81e00000
                0x0000000082000000                __top_NCACHE_REGION = 0x82000000
                0x0000000082000000                __top_RAM5 = 0x82000000

.boot_hdr       0x0000000060000000     0x2000
 FILL mask 0xff
                0x0000000060000000                __boot_hdr_start__ = ABSOLUTE (.)
 *(SORT_BY_ALIGNMENT(.boot_hdr.conf))
 .boot_hdr.conf
                0x0000000060000000      0x200 ./xip/evkmimxrt1020_flexspi_nor_config.o
                0x0000000060000000                qspiflash_config
                0x0000000000001000                . = 0x1000
 *fill*         0x0000000060000200      0xe00 ff
 *(SORT_BY_ALIGNMENT(.boot_hdr.ivt))
 .boot_hdr.ivt  0x0000000060001000       0x20 ./xip/fsl_flexspi_nor_boot.o
                0x0000000060001000                image_vector_table
                0x0000000000001020                . = 0x1020
 *(SORT_BY_ALIGNMENT(.boot_hdr.boot_data))
 .boot_hdr.boot_data
                0x0000000060001020       0x10 ./xip/fsl_flexspi_nor_boot.o
                0x0000000060001020                g_boot_data
                0x0000000000001030                . = 0x1030
 *(SORT_BY_ALIGNMENT(.boot_hdr.dcd_data))
                0x0000000060001030                __boot_hdr_end__ = ABSOLUTE (.)
                0x0000000000002000                . = 0x2000
 *fill*         0x0000000060001030      0xfd0 ff

.text           0x0000000060002000     0x41c4
 FILL mask 0xff
                0x0000000060002000                __vectors_start__ = ABSOLUTE (.)
 *(SORT_BY_ALIGNMENT(.isr_vector))
 .isr_vector    0x0000000060002000      0x278 ./startup/startup_mimxrt1021.o
                0x0000000060002000                __Vectors
                0x0000000060002000                g_pfnVectors
                0x0000000060002278                . = ALIGN (0x4)
                0x0000000060002278                __section_table_start = .
                0x0000000060002278                __data_section_table = .
                0x0000000060002278        0x4 LONG 0x600061c4 LOADADDR (.data)
                0x000000006000227c        0x4 LONG 0x20000000 ADDR (.data)
                0x0000000060002280        0x4 LONG 0x4 SIZEOF (.data)
                0x0000000060002284        0x4 LONG 0x600061c4 LOADADDR (.data_RAM2)
                0x0000000060002288        0x4 LONG 0x0 ADDR (.data_RAM2)
                0x000000006000228c        0x4 LONG 0x0 SIZEOF (.data_RAM2)
                0x0000000060002290        0x4 LONG 0x600061c4 LOADADDR (.data_RAM3)
                0x0000000060002294        0x4 LONG 0x20200000 ADDR (.data_RAM3)
                0x0000000060002298        0x4 LONG 0x0 SIZEOF (.data_RAM3)
                0x000000006000229c        0x4 LONG 0x600061c4 LOADADDR (.data_RAM4)
                0x00000000600022a0        0x4 LONG 0x80000000 ADDR (.data_RAM4)
                0x00000000600022a4        0x4 LONG 0x0 SIZEOF (.data_RAM4)
                0x00000000600022a8        0x4 LONG 0x600061c4 LOADADDR (.data_RAM5)
                0x00000000600022ac        0x4 LONG 0x81e00000 ADDR (.data_RAM5)
                0x00000000600022b0        0x4 LONG 0x0 SIZEOF (.data_RAM5)
                0x00000000600022b4                __data_section_table_end = .
                0x00000000600022b4                __bss_section_table = .
                0x00000000600022b4        0x4 LONG 0x20000004 ADDR (.bss)
                0x00000000600022b8        0x4 LONG 0xfc SIZEOF (.bss)
                0x00000000600022bc        0x4 LONG 0x0 ADDR (.bss_RAM2)
                0x00000000600022c0        0x4 LONG 0x0 SIZEOF (.bss_RAM2)
                0x00000000600022c4        0x4 LONG 0x20200000 ADDR (.bss_RAM3)
                0x00000000600022c8        0x4 LONG 0x0 SIZEOF (.bss_RAM3)
                0x00000000600022cc        0x4 LONG 0x80000000 ADDR (.bss_RAM4)
                0x00000000600022d0        0x4 LONG 0x0 SIZEOF (.bss_RAM4)
                0x00000000600022d4        0x4 LONG 0x81e00000 ADDR (.bss_RAM5)
                0x00000000600022d8        0x4 LONG 0x0 SIZEOF (.bss_RAM5)
                0x00000000600022dc                __bss_section_table_end = .
                0x00000000600022dc                __section_table_end = .
 *(SORT_BY_ALIGNMENT(.after_vectors*))
 .after_vectors.reset
                0x00000000600022dc       0x54 ./startup/startup_mimxrt1021.o
                0x00000000600022dc                ResetISR
 .after_vectors.init_data
                0x0000000060002330       0x1e ./startup/startup_mimxrt1021.o
                0x0000000060002330                data_init
 .after_vectors.init_bss
                0x000000006000234e       0x12 ./startup/startup_mimxrt1021.o
                0x000000006000234e                bss_init
 .after_vectors
                0x0000000060002360       0x14 ./startup/startup_mimxrt1021.o
                0x0000000060002360                NMI_Handler
                0x0000000060002364                MemManage_Handler
                0x0000000060002366                BusFault_Handler
                0x0000000060002368                UsageFault_Handler
                0x000000006000236a                SVC_Handler
                0x000000006000236c                DebugMon_Handler
                0x000000006000236e                PendSV_Handler
                0x0000000060002370                SysTick_Handler
                0x0000000060002372                ACMP4_DriverIRQHandler
                0x0000000060002372                Reserved87_DriverIRQHandler
                0x0000000060002372                KPP_DriverIRQHandler
                0x0000000060002372                LPSPI2_DriverIRQHandler
                0x0000000060002372                SAI3_RX_DriverIRQHandler
                0x0000000060002372                CCM_2_DriverIRQHandler
                0x0000000060002372                PIT_DriverIRQHandler
                0x0000000060002372                Reserved102_DriverIRQHandler
                0x0000000060002372                Reserved152_DriverIRQHandler
                0x0000000060002372                DMA13_DMA29_DriverIRQHandler
                0x0000000060002372                FLEXRAM_DriverIRQHandler
                0x0000000060002372                LPSPI4_DriverIRQHandler
                0x0000000060002372                SEMC_DriverIRQHandler
                0x0000000060002372                SPDIF_DriverIRQHandler
                0x0000000060002372                USB_PHY_DriverIRQHandler
                0x0000000060002372                GPIO3_Combined_0_15_DriverIRQHandler
                0x0000000060002372                Reserved82_DriverIRQHandler
                0x0000000060002372                DMA7_DMA23_DriverIRQHandler
                0x0000000060002372                BEE_DriverIRQHandler
                0x0000000060002372                LPI2C3_DriverIRQHandler
                0x0000000060002372                GPR_IRQ_DriverIRQHandler
                0x0000000060002372                Reserved103_DriverIRQHandler
                0x0000000060002372                PWM2_FAULT_DriverIRQHandler
                0x0000000060002372                Reserved56_DriverIRQHandler
                0x0000000060002372                DMA14_DMA30_DriverIRQHandler
                0x0000000060002372                TMR1_DriverIRQHandler
                0x0000000060002372                TRNG_DriverIRQHandler
                0x0000000060002372                ENET_1588_Timer_DriverIRQHandler
                0x0000000060002372                GPIO2_Combined_16_31_DriverIRQHandler
                0x0000000060002372                Reserved143_DriverIRQHandler
                0x0000000060002372                Reserved151_DriverIRQHandler
                0x0000000060002372                DMA0_DMA16_DriverIRQHandler
                0x0000000060002372                IntDefaultHandler
                0x0000000060002372                DMA2_DMA18_DriverIRQHandler
                0x0000000060002372                SRC_DriverIRQHandler
                0x0000000060002372                GPIO1_INT4_DriverIRQHandler
                0x0000000060002372                Reserved144_DriverIRQHandler
                0x0000000060002372                USDHC1_DriverIRQHandler
                0x0000000060002372                SNVS_LP_HP_WRAPPER_DriverIRQHandler
                0x0000000060002372                EWM_DriverIRQHandler
                0x0000000060002372                WDOG1_DriverIRQHandler
                0x0000000060002372                FLEXIO1_DriverIRQHandler
                0x0000000060002372                ENET_DriverIRQHandler
                0x0000000060002372                Reserved78_DriverIRQHandler
                0x0000000060002372                ENC2_DriverIRQHandler
                0x0000000060002372                ADC_ETC_IRQ2_DriverIRQHandler
                0x0000000060002372                GPIO1_Combined_16_31_DriverIRQHandler
                0x0000000060002372                GPIO1_INT7_DriverIRQHandler
                0x0000000060002372                SAI1_DriverIRQHandler
                0x0000000060002372                DCDC_DriverIRQHandler
                0x0000000060002372                DMA12_DMA28_DriverIRQHandler
                0x0000000060002372                ADC_ETC_ERROR_IRQ_DriverIRQHandler
                0x0000000060002372                ACMP2_DriverIRQHandler
                0x0000000060002372                GPIO5_Combined_0_15_DriverIRQHandler
                0x0000000060002372                GPIO1_INT0_DriverIRQHandler
                0x0000000060002372                GPIO1_INT2_DriverIRQHandler
                0x0000000060002372                RTWDOG_DriverIRQHandler
                0x0000000060002372                FLEXSPI_DriverIRQHandler
                0x0000000060002372                GPT2_DriverIRQHandler
                0x0000000060002372                DMA10_DMA26_DriverIRQHandler
                0x0000000060002372                PWM2_1_DriverIRQHandler
                0x0000000060002372                PWM1_1_DriverIRQHandler
                0x0000000060002372                ADC1_DriverIRQHandler
                0x0000000060002372                Reserved148_DriverIRQHandler
                0x0000000060002372                PWM1_0_DriverIRQHandler
                0x0000000060002372                DMA1_DMA17_DriverIRQHandler
                0x0000000060002372                ENC1_DriverIRQHandler
                0x0000000060002372                CAN2_DriverIRQHandler
                0x0000000060002372                DCP_DriverIRQHandler
                0x0000000060002372                CTI0_ERROR_DriverIRQHandler
                0x0000000060002372                DMA8_DMA24_DriverIRQHandler
                0x0000000060002372                GPT1_DriverIRQHandler
                0x0000000060002372                ACMP3_DriverIRQHandler
                0x0000000060002372                DMA6_DMA22_DriverIRQHandler
                0x0000000060002372                CSU_DriverIRQHandler
                0x0000000060002372                GPIO1_INT5_DriverIRQHandler
                0x0000000060002372                TMR2_DriverIRQHandler
                0x0000000060002372                CTI1_ERROR_DriverIRQHandler
                0x0000000060002372                GPIO1_Combined_0_15_DriverIRQHandler
                0x0000000060002372                USDHC2_DriverIRQHandler
                0x0000000060002372                SAI2_DriverIRQHandler
                0x0000000060002372                CORE_DriverIRQHandler
                0x0000000060002372                Reserved147_DriverIRQHandler
                0x0000000060002372                DMA11_DMA27_DriverIRQHandler
                0x0000000060002372                PWM2_3_DriverIRQHandler
                0x0000000060002372                Reserved60_DriverIRQHandler
                0x0000000060002372                XBAR1_IRQ_2_3_DriverIRQHandler
                0x0000000060002372                SNVS_HP_WRAPPER_TZ_DriverIRQHandler
                0x0000000060002372                GPIO3_Combined_16_31_DriverIRQHandler
                0x0000000060002372                PWM1_FAULT_DriverIRQHandler
                0x0000000060002372                LPI2C1_DriverIRQHandler
                0x0000000060002372                PWM2_2_DriverIRQHandler
                0x0000000060002372                Reserved128_DriverIRQHandler
                0x0000000060002372                DMA4_DMA20_DriverIRQHandler
                0x0000000060002372                DMA9_DMA25_DriverIRQHandler
                0x0000000060002372                SNVS_HP_WRAPPER_DriverIRQHandler
                0x0000000060002372                XBAR1_IRQ_0_1_DriverIRQHandler
                0x0000000060002372                ADC_ETC_IRQ1_DriverIRQHandler
                0x0000000060002372                LPSPI1_DriverIRQHandler
                0x0000000060002372                DMA3_DMA19_DriverIRQHandler
                0x0000000060002372                GPIO1_INT3_DriverIRQHandler
                0x0000000060002372                DCP_VMI_DriverIRQHandler
                0x0000000060002372                LPI2C4_DriverIRQHandler
                0x0000000060002372                GPC_DriverIRQHandler
                0x0000000060002372                Reserved123_DriverIRQHandler
                0x0000000060002372                GPIO2_Combined_0_15_DriverIRQHandler
                0x0000000060002372                PWM1_2_DriverIRQHandler
                0x0000000060002372                USB_OTG1_DriverIRQHandler
                0x0000000060002372                TEMP_LOW_HIGH_DriverIRQHandler
                0x0000000060002372                SAI3_TX_DriverIRQHandler
                0x0000000060002372                WDOG2_DriverIRQHandler
                0x0000000060002372                Reserved68_DriverIRQHandler
                0x0000000060002372                PMU_DriverIRQHandler
                0x0000000060002372                Reserved59_DriverIRQHandler
                0x0000000060002372                GPIO5_Combined_16_31_DriverIRQHandler
                0x0000000060002372                DMA5_DMA21_DriverIRQHandler
                0x0000000060002372                CCM_1_DriverIRQHandler
                0x0000000060002372                ADC2_DriverIRQHandler
                0x0000000060002372                Reserved58_DriverIRQHandler
                0x0000000060002372                Reserved115_DriverIRQHandler
                0x0000000060002372                TEMP_PANIC_DriverIRQHandler
                0x0000000060002372                DMA15_DMA31_DriverIRQHandler
                0x0000000060002372                Reserved107_DriverIRQHandler
                0x0000000060002372                LPSPI3_DriverIRQHandler
                0x0000000060002372                PWM1_3_DriverIRQHandler
                0x0000000060002372                Reserved70_DriverIRQHandler
                0x0000000060002372                ACMP1_DriverIRQHandler
                0x0000000060002372                LPI2C2_DriverIRQHandler
                0x0000000060002372                Reserved86_DriverIRQHandler
                0x0000000060002372                DMA_ERROR_DriverIRQHandler
                0x0000000060002372                ADC_ETC_IRQ0_DriverIRQHandler
                0x0000000060002372                CAN1_DriverIRQHandler
                0x0000000060002372                GPIO1_INT6_DriverIRQHandler
                0x0000000060002372                GPIO1_INT1_DriverIRQHandler
                0x0000000060002372                PWM2_0_DriverIRQHandler
 *(SORT_BY_ALIGNMENT(.text*))
 .text.__assertion_failed
                0x0000000060002374       0x18 ./utilities/fsl_assert.o
                0x0000000060002374                __assertion_failed
 .text.DbgConsole_Init
                0x000000006000238c       0x74 ./utilities/fsl_debug_console.o
                0x000000006000238c                DbgConsole_Init
 .text.DbgConsole_Vprintf
                0x0000000060002400       0x3c ./utilities/fsl_debug_console.o
                0x0000000060002400                DbgConsole_Vprintf
 .text.DbgConsole_Putchar
                0x000000006000243c       0x30 ./utilities/fsl_debug_console.o
                0x000000006000243c                DbgConsole_Putchar
 .text.DbgConsole_PrintfFormattedData
                0x000000006000246c      0x3e0 ./utilities/fsl_debug_console.o
 .text.main     0x000000006000284c       0x60 ./source/gpio_led_output.o
                0x000000006000284c                main
 .text.CLOCK_GetOscFreq
                0x00000000600028ac       0x30 ./drivers/fsl_clock.o
 .text.CLOCK_InitExternalClk
                0x00000000600028dc       0x6c ./drivers/fsl_clock.o
                0x00000000600028dc                CLOCK_InitExternalClk
 .text.CLOCK_SwitchOsc
                0x0000000060002948       0x34 ./drivers/fsl_clock.o
                0x0000000060002948                CLOCK_SwitchOsc
 .text.CLOCK_InitRcOsc24M
                0x000000006000297c       0x24 ./drivers/fsl_clock.o
                0x000000006000297c                CLOCK_InitRcOsc24M
 .text.CLOCK_InitSysPll
                0x00000000600029a0       0x9c ./drivers/fsl_clock.o
                0x00000000600029a0                CLOCK_InitSysPll
 .text.CLOCK_DeinitAudioPll
                0x0000000060002a3c       0x1c ./drivers/fsl_clock.o
                0x0000000060002a3c                CLOCK_DeinitAudioPll
 .text.CLOCK_InitEnetPll
                0x0000000060002a58       0xa4 ./drivers/fsl_clock.o
                0x0000000060002a58                CLOCK_InitEnetPll
 .text.CLOCK_GetPllFreq
                0x0000000060002afc      0x26c ./drivers/fsl_clock.o
                0x0000000060002afc                CLOCK_GetPllFreq
 .text.CLOCK_InitSysPfd
                0x0000000060002d68       0x64 ./drivers/fsl_clock.o
                0x0000000060002d68                CLOCK_InitSysPfd
 .text.SDK_DelayAtLeastUs
                0x0000000060002dcc       0x94 ./drivers/fsl_common_arm.o
                0x0000000060002dcc                SDK_DelayAtLeastUs
 .text.CLOCK_ControlGate
                0x0000000060002e60       0x60 ./drivers/fsl_gpio.o
 .text.GPIO_GetInstance
                0x0000000060002ec0       0x4c ./drivers/fsl_gpio.o
 .text.GPIO_PinInit
                0x0000000060002f0c       0xa4 ./drivers/fsl_gpio.o
                0x0000000060002f0c                GPIO_PinInit
 .text.GPIO_PinWrite
                0x0000000060002fb0       0x48 ./drivers/fsl_gpio.o
                0x0000000060002fb0                GPIO_PinWrite
 .text.GPIO_PinSetInterruptConfig
                0x0000000060002ff8       0xfc ./drivers/fsl_gpio.o
                0x0000000060002ff8                GPIO_PinSetInterruptConfig
 .text.CLOCK_ControlGate
                0x00000000600030f4       0x60 ./drivers/fsl_lpuart.o
 .text.LPUART_GetInstance
                0x0000000060003154       0x4c ./drivers/fsl_lpuart.o
                0x0000000060003154                LPUART_GetInstance
 .text.LPUART_Init
                0x00000000600031a0      0x310 ./drivers/fsl_lpuart.o
                0x00000000600031a0                LPUART_Init
 .text.LPUART_GetDefaultConfig
                0x00000000600034b0       0x88 ./drivers/fsl_lpuart.o
                0x00000000600034b0                LPUART_GetDefaultConfig
 .text.LPUART_GetStatusFlags
                0x0000000060003538       0x38 ./drivers/fsl_lpuart.o
                0x0000000060003538                LPUART_GetStatusFlags
 .text.LPUART_ClearStatusFlags
                0x0000000060003570       0x7c ./drivers/fsl_lpuart.o
                0x0000000060003570                LPUART_ClearStatusFlags
 .text.LPUART_WriteBlocking
                0x00000000600035ec       0x68 ./drivers/fsl_lpuart.o
                0x00000000600035ec                LPUART_WriteBlocking
 .text.LPUART_ReadBlocking
                0x0000000060003654      0x160 ./drivers/fsl_lpuart.o
                0x0000000060003654                LPUART_ReadBlocking
 .text.LPUART1_DriverIRQHandler
                0x00000000600037b4       0x28 ./drivers/fsl_lpuart.o
                0x00000000600037b4                LPUART1_DriverIRQHandler
 .text.LPUART2_DriverIRQHandler
                0x00000000600037dc       0x28 ./drivers/fsl_lpuart.o
                0x00000000600037dc                LPUART2_DriverIRQHandler
 .text.LPUART3_DriverIRQHandler
                0x0000000060003804       0x28 ./drivers/fsl_lpuart.o
                0x0000000060003804                LPUART3_DriverIRQHandler
 .text.LPUART4_DriverIRQHandler
                0x000000006000382c       0x28 ./drivers/fsl_lpuart.o
                0x000000006000382c                LPUART4_DriverIRQHandler
 .text.LPUART5_DriverIRQHandler
                0x0000000060003854       0x28 ./drivers/fsl_lpuart.o
                0x0000000060003854                LPUART5_DriverIRQHandler
 .text.LPUART6_DriverIRQHandler
                0x000000006000387c       0x28 ./drivers/fsl_lpuart.o
                0x000000006000387c                LPUART6_DriverIRQHandler
 .text.LPUART7_DriverIRQHandler
                0x00000000600038a4       0x28 ./drivers/fsl_lpuart.o
                0x00000000600038a4                LPUART7_DriverIRQHandler
 .text.LPUART8_DriverIRQHandler
                0x00000000600038cc       0x28 ./drivers/fsl_lpuart.o
                0x00000000600038cc                LPUART8_DriverIRQHandler
 .text.SystemInit
                0x00000000600038f4      0x144 ./device/system_MIMXRT1021.o
                0x00000000600038f4                SystemInit
 .text.HAL_UartInitCommon
                0x0000000060003a38       0xac ./component/uart/fsl_adapter_lpuart.o
 .text.HAL_UartInit
                0x0000000060003ae4       0x84 ./component/uart/fsl_adapter_lpuart.o
                0x0000000060003ae4                HAL_UartInit
 .text.HAL_UartReceiveBlocking
                0x0000000060003b68       0x6c ./component/uart/fsl_adapter_lpuart.o
                0x0000000060003b68                HAL_UartReceiveBlocking
 .text.HAL_UartSendBlocking
                0x0000000060003bd4       0x64 ./component/uart/fsl_adapter_lpuart.o
                0x0000000060003bd4                HAL_UartSendBlocking
 .text.ARM_MPU_Enable
                0x0000000060003c38       0x44 ./board/board.o
 .text.ARM_MPU_Disable
                0x0000000060003c7c       0x40 ./board/board.o
 .text.CLOCK_GetMux
                0x0000000060003cbc       0x44 ./board/board.o
 .text.CLOCK_GetDiv
                0x0000000060003d00       0x44 ./board/board.o
 .text.CLOCK_GetOscFreq
                0x0000000060003d44       0x30 ./board/board.o
 .text.BOARD_DebugConsoleSrcFreq
                0x0000000060003d74       0x64 ./board/board.o
                0x0000000060003d74                BOARD_DebugConsoleSrcFreq
 .text.BOARD_ConfigMPU
                0x0000000060003dd8      0x324 ./board/board.o
                0x0000000060003dd8                BOARD_ConfigMPU
 .text.CLOCK_SetMux
                0x00000000600040fc       0x9c ./board/clock_config.o
 .text.CLOCK_SetDiv
                0x0000000060004198       0x9c ./board/clock_config.o
 .text.CLOCK_ControlGate
                0x0000000060004234       0x60 ./board/clock_config.o
 .text.CLOCK_SetXtalFreq
                0x0000000060004294       0x20 ./board/clock_config.o
 .text.CLOCK_SetRtcXtalFreq
                0x00000000600042b4       0x20 ./board/clock_config.o
 .text.IOMUXC_MQSConfig
                0x00000000600042d4       0x44 ./board/clock_config.o
 .text.BOARD_BootClockRUN
                0x0000000060004318      0x4ec ./board/clock_config.o
                0x0000000060004318                BOARD_BootClockRUN
 .text.CLOCK_ControlGate
                0x0000000060004804       0x60 ./board/pin_mux.o
 .text.BOARD_InitPins
                0x0000000060004864       0xac ./board/pin_mux.o
                0x0000000060004864                BOARD_InitPins
 .text._initio  0x0000000060004910       0x78 /usr/local/mcuxpressoide-11.6.1_8255/ide/plugins/com.nxp.mcuxpresso.tools.linux_11.6.1.202207200623/tools/bin/../lib/gcc/arm-none-eabi/10.3.1/../../../../arm-none-eabi/lib/thumb/v7e-m+dp/hard/libcr_c.a(initio.o)
                0x0000000060004910                _initio
 .text.fflush   0x0000000060004988       0x3c /usr/local/mcuxpressoide-11.6.1_8255/ide/plugins/com.nxp.mcuxpresso.tools.linux_11.6.1.202207200623/tools/bin/../lib/gcc/arm-none-eabi/10.3.1/../../../../arm-none-eabi/lib/thumb/v7e-m+dp/hard/libcr_c.a(fflush.o)
                0x0000000060004988                fflush
 .text.fseek    0x00000000600049c4       0xfc /usr/local/mcuxpressoide-11.6.1_8255/ide/plugins/com.nxp.mcuxpresso.tools.linux_11.6.1.202207200623/tools/bin/../lib/gcc/arm-none-eabi/10.3.1/../../../../arm-none-eabi/lib/thumb/v7e-m+dp/hard/libcr_c.a(fseek.o)
                0x00000000600049c4                fseek
 .text.ftell    0x0000000060004ac0       0x44 /usr/local/mcuxpressoide-11.6.1_8255/ide/plugins/com.nxp.mcuxpresso.tools.linux_11.6.1.202207200623/tools/bin/../lib/gcc/arm-none-eabi/10.3.1/../../../../arm-none-eabi/lib/thumb/v7e-m+dp/hard/libcr_c.a(ftell.o)
                0x0000000060004ac0                ftell
 .text._Cwritebuf
                0x0000000060004b04       0x6c /usr/local/mcuxpressoide-11.6.1_8255/ide/plugins/com.nxp.mcuxpresso.tools.linux_11.6.1.202207200623/tools/bin/../lib/gcc/arm-none-eabi/10.3.1/../../../../arm-none-eabi/lib/thumb/v7e-m+dp/hard/libcr_c.a(_writebuf.o)
                0x0000000060004b04                _Cwritebuf
 .text.DbgConsole_Printf
                0x0000000060004b70       0x2c ./utilities/fsl_debug_console.o
                0x0000000060004b70                DbgConsole_Printf
 .text.DbgConsole_PrintfPaddingCharacter
                0x0000000060004b9c       0x40 ./utilities/fsl_debug_console.o
 .text.DbgConsole_ConvertRadixNumToString
                0x0000000060004bdc       0xc2 ./utilities/fsl_debug_console.o
 .text.DMA0_DMA16_IRQHandler
                0x0000000060004c9e        0x8 ./startup/startup_mimxrt1021.o
                0x0000000060004c9e                DMA0_DMA16_IRQHandler
 .text.DMA1_DMA17_IRQHandler
                0x0000000060004ca6        0x8 ./startup/startup_mimxrt1021.o
                0x0000000060004ca6                DMA1_DMA17_IRQHandler
 .text.DMA2_DMA18_IRQHandler
                0x0000000060004cae        0x8 ./startup/startup_mimxrt1021.o
                0x0000000060004cae                DMA2_DMA18_IRQHandler
 .text.DMA3_DMA19_IRQHandler
                0x0000000060004cb6        0x8 ./startup/startup_mimxrt1021.o
                0x0000000060004cb6                DMA3_DMA19_IRQHandler
 .text.DMA4_DMA20_IRQHandler
                0x0000000060004cbe        0x8 ./startup/startup_mimxrt1021.o
                0x0000000060004cbe                DMA4_DMA20_IRQHandler
 .text.DMA5_DMA21_IRQHandler
                0x0000000060004cc6        0x8 ./startup/startup_mimxrt1021.o
                0x0000000060004cc6                DMA5_DMA21_IRQHandler
 .text.DMA6_DMA22_IRQHandler
                0x0000000060004cce        0x8 ./startup/startup_mimxrt1021.o
                0x0000000060004cce                DMA6_DMA22_IRQHandler
 .text.DMA7_DMA23_IRQHandler
                0x0000000060004cd6        0x8 ./startup/startup_mimxrt1021.o
                0x0000000060004cd6                DMA7_DMA23_IRQHandler
 .text.DMA8_DMA24_IRQHandler
                0x0000000060004cde        0x8 ./startup/startup_mimxrt1021.o
                0x0000000060004cde                DMA8_DMA24_IRQHandler
 .text.DMA9_DMA25_IRQHandler
                0x0000000060004ce6        0x8 ./startup/startup_mimxrt1021.o
                0x0000000060004ce6                DMA9_DMA25_IRQHandler
 .text.DMA10_DMA26_IRQHandler
                0x0000000060004cee        0x8 ./startup/startup_mimxrt1021.o
                0x0000000060004cee                DMA10_DMA26_IRQHandler
 .text.DMA11_DMA27_IRQHandler
                0x0000000060004cf6        0x8 ./startup/startup_mimxrt1021.o
                0x0000000060004cf6                DMA11_DMA27_IRQHandler
 .text.DMA12_DMA28_IRQHandler
                0x0000000060004cfe        0x8 ./startup/startup_mimxrt1021.o
                0x0000000060004cfe                DMA12_DMA28_IRQHandler
 .text.DMA13_DMA29_IRQHandler
                0x0000000060004d06        0x8 ./startup/startup_mimxrt1021.o
                0x0000000060004d06                DMA13_DMA29_IRQHandler
 .text.DMA14_DMA30_IRQHandler
                0x0000000060004d0e        0x8 ./startup/startup_mimxrt1021.o
                0x0000000060004d0e                DMA14_DMA30_IRQHandler
 .text.DMA15_DMA31_IRQHandler
                0x0000000060004d16        0x8 ./startup/startup_mimxrt1021.o
                0x0000000060004d16                DMA15_DMA31_IRQHandler
 .text.DMA_ERROR_IRQHandler
                0x0000000060004d1e        0x8 ./startup/startup_mimxrt1021.o
                0x0000000060004d1e                DMA_ERROR_IRQHandler
 .text.CTI0_ERROR_IRQHandler
                0x0000000060004d26        0x8 ./startup/startup_mimxrt1021.o
                0x0000000060004d26                CTI0_ERROR_IRQHandler
 .text.CTI1_ERROR_IRQHandler
                0x0000000060004d2e        0x8 ./startup/startup_mimxrt1021.o
                0x0000000060004d2e                CTI1_ERROR_IRQHandler
 .text.CORE_IRQHandler
                0x0000000060004d36        0x8 ./startup/startup_mimxrt1021.o
                0x0000000060004d36                CORE_IRQHandler
 .text.LPUART1_IRQHandler
                0x0000000060004d3e        0x8 ./startup/startup_mimxrt1021.o
                0x0000000060004d3e                LPUART1_IRQHandler
 .text.LPUART2_IRQHandler
                0x0000000060004d46        0x8 ./startup/startup_mimxrt1021.o
                0x0000000060004d46                LPUART2_IRQHandler
 .text.LPUART3_IRQHandler
                0x0000000060004d4e        0x8 ./startup/startup_mimxrt1021.o
                0x0000000060004d4e                LPUART3_IRQHandler
 .text.LPUART4_IRQHandler
                0x0000000060004d56        0x8 ./startup/startup_mimxrt1021.o
                0x0000000060004d56                LPUART4_IRQHandler
 .text.LPUART5_IRQHandler
                0x0000000060004d5e        0x8 ./startup/startup_mimxrt1021.o
                0x0000000060004d5e                LPUART5_IRQHandler
 .text.LPUART6_IRQHandler
                0x0000000060004d66        0x8 ./startup/startup_mimxrt1021.o
                0x0000000060004d66                LPUART6_IRQHandler
 .text.LPUART7_IRQHandler
                0x0000000060004d6e        0x8 ./startup/startup_mimxrt1021.o
                0x0000000060004d6e                LPUART7_IRQHandler
 .text.LPUART8_IRQHandler
                0x0000000060004d76        0x8 ./startup/startup_mimxrt1021.o
                0x0000000060004d76                LPUART8_IRQHandler
 .text.LPI2C1_IRQHandler
                0x0000000060004d7e        0x8 ./startup/startup_mimxrt1021.o
                0x0000000060004d7e                LPI2C1_IRQHandler
 .text.LPI2C2_IRQHandler
                0x0000000060004d86        0x8 ./startup/startup_mimxrt1021.o
                0x0000000060004d86                LPI2C2_IRQHandler
 .text.LPI2C3_IRQHandler
                0x0000000060004d8e        0x8 ./startup/startup_mimxrt1021.o
                0x0000000060004d8e                LPI2C3_IRQHandler
 .text.LPI2C4_IRQHandler
                0x0000000060004d96        0x8 ./startup/startup_mimxrt1021.o
                0x0000000060004d96                LPI2C4_IRQHandler
 .text.LPSPI1_IRQHandler
                0x0000000060004d9e        0x8 ./startup/startup_mimxrt1021.o
                0x0000000060004d9e                LPSPI1_IRQHandler
 .text.LPSPI2_IRQHandler
                0x0000000060004da6        0x8 ./startup/startup_mimxrt1021.o
                0x0000000060004da6                LPSPI2_IRQHandler
 .text.LPSPI3_IRQHandler
                0x0000000060004dae        0x8 ./startup/startup_mimxrt1021.o
                0x0000000060004dae                LPSPI3_IRQHandler
 .text.LPSPI4_IRQHandler
                0x0000000060004db6        0x8 ./startup/startup_mimxrt1021.o
                0x0000000060004db6                LPSPI4_IRQHandler
 .text.CAN1_IRQHandler
                0x0000000060004dbe        0x8 ./startup/startup_mimxrt1021.o
                0x0000000060004dbe                CAN1_IRQHandler
 .text.CAN2_IRQHandler
                0x0000000060004dc6        0x8 ./startup/startup_mimxrt1021.o
                0x0000000060004dc6                CAN2_IRQHandler
 .text.FLEXRAM_IRQHandler
                0x0000000060004dce        0x8 ./startup/startup_mimxrt1021.o
                0x0000000060004dce                FLEXRAM_IRQHandler
 .text.KPP_IRQHandler
                0x0000000060004dd6        0x8 ./startup/startup_mimxrt1021.o
                0x0000000060004dd6                KPP_IRQHandler
 .text.Reserved56_IRQHandler
                0x0000000060004dde        0x8 ./startup/startup_mimxrt1021.o
                0x0000000060004dde                Reserved56_IRQHandler
 .text.GPR_IRQ_IRQHandler
                0x0000000060004de6        0x8 ./startup/startup_mimxrt1021.o
                0x0000000060004de6                GPR_IRQ_IRQHandler
 .text.Reserved58_IRQHandler
                0x0000000060004dee        0x8 ./startup/startup_mimxrt1021.o
                0x0000000060004dee                Reserved58_IRQHandler
 .text.Reserved59_IRQHandler
                0x0000000060004df6        0x8 ./startup/startup_mimxrt1021.o
                0x0000000060004df6                Reserved59_IRQHandler
 .text.Reserved60_IRQHandler
                0x0000000060004dfe        0x8 ./startup/startup_mimxrt1021.o
                0x0000000060004dfe                Reserved60_IRQHandler
 .text.WDOG2_IRQHandler
                0x0000000060004e06        0x8 ./startup/startup_mimxrt1021.o
                0x0000000060004e06                WDOG2_IRQHandler
 .text.SNVS_HP_WRAPPER_IRQHandler
                0x0000000060004e0e        0x8 ./startup/startup_mimxrt1021.o
                0x0000000060004e0e                SNVS_HP_WRAPPER_IRQHandler
 .text.SNVS_HP_WRAPPER_TZ_IRQHandler
                0x0000000060004e16        0x8 ./startup/startup_mimxrt1021.o
                0x0000000060004e16                SNVS_HP_WRAPPER_TZ_IRQHandler
 .text.SNVS_LP_HP_WRAPPER_IRQHandler
                0x0000000060004e1e        0x8 ./startup/startup_mimxrt1021.o
                0x0000000060004e1e                SNVS_LP_HP_WRAPPER_IRQHandler
 .text.CSU_IRQHandler
                0x0000000060004e26        0x8 ./startup/startup_mimxrt1021.o
                0x0000000060004e26                CSU_IRQHandler
 .text.DCP_IRQHandler
                0x0000000060004e2e        0x8 ./startup/startup_mimxrt1021.o
                0x0000000060004e2e                DCP_IRQHandler
 .text.DCP_VMI_IRQHandler
                0x0000000060004e36        0x8 ./startup/startup_mimxrt1021.o
                0x0000000060004e36                DCP_VMI_IRQHandler
 .text.Reserved68_IRQHandler
                0x0000000060004e3e        0x8 ./startup/startup_mimxrt1021.o
                0x0000000060004e3e                Reserved68_IRQHandler
 .text.TRNG_IRQHandler
                0x0000000060004e46        0x8 ./startup/startup_mimxrt1021.o
                0x0000000060004e46                TRNG_IRQHandler
 .text.Reserved70_IRQHandler
                0x0000000060004e4e        0x8 ./startup/startup_mimxrt1021.o
                0x0000000060004e4e                Reserved70_IRQHandler
 .text.BEE_IRQHandler
                0x0000000060004e56        0x8 ./startup/startup_mimxrt1021.o
                0x0000000060004e56                BEE_IRQHandler
 .text.SAI1_IRQHandler
                0x0000000060004e5e        0x8 ./startup/startup_mimxrt1021.o
                0x0000000060004e5e                SAI1_IRQHandler
 .text.SAI2_IRQHandler
                0x0000000060004e66        0x8 ./startup/startup_mimxrt1021.o
                0x0000000060004e66                SAI2_IRQHandler
 .text.SAI3_RX_IRQHandler
                0x0000000060004e6e        0x8 ./startup/startup_mimxrt1021.o
                0x0000000060004e6e                SAI3_RX_IRQHandler
 .text.SAI3_TX_IRQHandler
                0x0000000060004e76        0x8 ./startup/startup_mimxrt1021.o
                0x0000000060004e76                SAI3_TX_IRQHandler
 .text.SPDIF_IRQHandler
                0x0000000060004e7e        0x8 ./startup/startup_mimxrt1021.o
                0x0000000060004e7e                SPDIF_IRQHandler
 .text.PMU_IRQHandler
                0x0000000060004e86        0x8 ./startup/startup_mimxrt1021.o
                0x0000000060004e86                PMU_IRQHandler
 .text.Reserved78_IRQHandler
                0x0000000060004e8e        0x8 ./startup/startup_mimxrt1021.o
                0x0000000060004e8e                Reserved78_IRQHandler
 .text.TEMP_LOW_HIGH_IRQHandler
                0x0000000060004e96        0x8 ./startup/startup_mimxrt1021.o
                0x0000000060004e96                TEMP_LOW_HIGH_IRQHandler
 .text.TEMP_PANIC_IRQHandler
                0x0000000060004e9e        0x8 ./startup/startup_mimxrt1021.o
                0x0000000060004e9e                TEMP_PANIC_IRQHandler
 .text.USB_PHY_IRQHandler
                0x0000000060004ea6        0x8 ./startup/startup_mimxrt1021.o
                0x0000000060004ea6                USB_PHY_IRQHandler
 .text.Reserved82_IRQHandler
                0x0000000060004eae        0x8 ./startup/startup_mimxrt1021.o
                0x0000000060004eae                Reserved82_IRQHandler
 .text.ADC1_IRQHandler
                0x0000000060004eb6        0x8 ./startup/startup_mimxrt1021.o
                0x0000000060004eb6                ADC1_IRQHandler
 .text.ADC2_IRQHandler
                0x0000000060004ebe        0x8 ./startup/startup_mimxrt1021.o
                0x0000000060004ebe                ADC2_IRQHandler
 .text.DCDC_IRQHandler
                0x0000000060004ec6        0x8 ./startup/startup_mimxrt1021.o
                0x0000000060004ec6                DCDC_IRQHandler
 .text.Reserved86_IRQHandler
                0x0000000060004ece        0x8 ./startup/startup_mimxrt1021.o
                0x0000000060004ece                Reserved86_IRQHandler
 .text.Reserved87_IRQHandler
                0x0000000060004ed6        0x8 ./startup/startup_mimxrt1021.o
                0x0000000060004ed6                Reserved87_IRQHandler
 .text.GPIO1_INT0_IRQHandler
                0x0000000060004ede        0x8 ./startup/startup_mimxrt1021.o
                0x0000000060004ede                GPIO1_INT0_IRQHandler
 .text.GPIO1_INT1_IRQHandler
                0x0000000060004ee6        0x8 ./startup/startup_mimxrt1021.o
                0x0000000060004ee6                GPIO1_INT1_IRQHandler
 .text.GPIO1_INT2_IRQHandler
                0x0000000060004eee        0x8 ./startup/startup_mimxrt1021.o
                0x0000000060004eee                GPIO1_INT2_IRQHandler
 .text.GPIO1_INT3_IRQHandler
                0x0000000060004ef6        0x8 ./startup/startup_mimxrt1021.o
                0x0000000060004ef6                GPIO1_INT3_IRQHandler
 .text.GPIO1_INT4_IRQHandler
                0x0000000060004efe        0x8 ./startup/startup_mimxrt1021.o
                0x0000000060004efe                GPIO1_INT4_IRQHandler
 .text.GPIO1_INT5_IRQHandler
                0x0000000060004f06        0x8 ./startup/startup_mimxrt1021.o
                0x0000000060004f06                GPIO1_INT5_IRQHandler
 .text.GPIO1_INT6_IRQHandler
                0x0000000060004f0e        0x8 ./startup/startup_mimxrt1021.o
                0x0000000060004f0e                GPIO1_INT6_IRQHandler
 .text.GPIO1_INT7_IRQHandler
                0x0000000060004f16        0x8 ./startup/startup_mimxrt1021.o
                0x0000000060004f16                GPIO1_INT7_IRQHandler
 .text.GPIO1_Combined_0_15_IRQHandler
                0x0000000060004f1e        0x8 ./startup/startup_mimxrt1021.o
                0x0000000060004f1e                GPIO1_Combined_0_15_IRQHandler
 .text.GPIO1_Combined_16_31_IRQHandler
                0x0000000060004f26        0x8 ./startup/startup_mimxrt1021.o
                0x0000000060004f26                GPIO1_Combined_16_31_IRQHandler
 .text.GPIO2_Combined_0_15_IRQHandler
                0x0000000060004f2e        0x8 ./startup/startup_mimxrt1021.o
                0x0000000060004f2e                GPIO2_Combined_0_15_IRQHandler
 .text.GPIO2_Combined_16_31_IRQHandler
                0x0000000060004f36        0x8 ./startup/startup_mimxrt1021.o
                0x0000000060004f36                GPIO2_Combined_16_31_IRQHandler
 .text.GPIO3_Combined_0_15_IRQHandler
                0x0000000060004f3e        0x8 ./startup/startup_mimxrt1021.o
                0x0000000060004f3e                GPIO3_Combined_0_15_IRQHandler
 .text.GPIO3_Combined_16_31_IRQHandler
                0x0000000060004f46        0x8 ./startup/startup_mimxrt1021.o
                0x0000000060004f46                GPIO3_Combined_16_31_IRQHandler
 .text.Reserved102_IRQHandler
                0x0000000060004f4e        0x8 ./startup/startup_mimxrt1021.o
                0x0000000060004f4e                Reserved102_IRQHandler
 .text.Reserved103_IRQHandler
                0x0000000060004f56        0x8 ./startup/startup_mimxrt1021.o
                0x0000000060004f56                Reserved103_IRQHandler
 .text.GPIO5_Combined_0_15_IRQHandler
                0x0000000060004f5e        0x8 ./startup/startup_mimxrt1021.o
                0x0000000060004f5e                GPIO5_Combined_0_15_IRQHandler
 .text.GPIO5_Combined_16_31_IRQHandler
                0x0000000060004f66        0x8 ./startup/startup_mimxrt1021.o
                0x0000000060004f66                GPIO5_Combined_16_31_IRQHandler
 .text.FLEXIO1_IRQHandler
                0x0000000060004f6e        0x8 ./startup/startup_mimxrt1021.o
                0x0000000060004f6e                FLEXIO1_IRQHandler
 .text.Reserved107_IRQHandler
                0x0000000060004f76        0x8 ./startup/startup_mimxrt1021.o
                0x0000000060004f76                Reserved107_IRQHandler
 .text.WDOG1_IRQHandler
                0x0000000060004f7e        0x8 ./startup/startup_mimxrt1021.o
                0x0000000060004f7e                WDOG1_IRQHandler
 .text.RTWDOG_IRQHandler
                0x0000000060004f86        0x8 ./startup/startup_mimxrt1021.o
                0x0000000060004f86                RTWDOG_IRQHandler
 .text.EWM_IRQHandler
                0x0000000060004f8e        0x8 ./startup/startup_mimxrt1021.o
                0x0000000060004f8e                EWM_IRQHandler
 .text.CCM_1_IRQHandler
                0x0000000060004f96        0x8 ./startup/startup_mimxrt1021.o
                0x0000000060004f96                CCM_1_IRQHandler
 .text.CCM_2_IRQHandler
                0x0000000060004f9e        0x8 ./startup/startup_mimxrt1021.o
                0x0000000060004f9e                CCM_2_IRQHandler
 .text.GPC_IRQHandler
                0x0000000060004fa6        0x8 ./startup/startup_mimxrt1021.o
                0x0000000060004fa6                GPC_IRQHandler
 .text.SRC_IRQHandler
                0x0000000060004fae        0x8 ./startup/startup_mimxrt1021.o
                0x0000000060004fae                SRC_IRQHandler
 .text.Reserved115_IRQHandler
                0x0000000060004fb6        0x8 ./startup/startup_mimxrt1021.o
                0x0000000060004fb6                Reserved115_IRQHandler
 .text.GPT1_IRQHandler
                0x0000000060004fbe        0x8 ./startup/startup_mimxrt1021.o
                0x0000000060004fbe                GPT1_IRQHandler
 .text.GPT2_IRQHandler
                0x0000000060004fc6        0x8 ./startup/startup_mimxrt1021.o
                0x0000000060004fc6                GPT2_IRQHandler
 .text.PWM1_0_IRQHandler
                0x0000000060004fce        0x8 ./startup/startup_mimxrt1021.o
                0x0000000060004fce                PWM1_0_IRQHandler
 .text.PWM1_1_IRQHandler
                0x0000000060004fd6        0x8 ./startup/startup_mimxrt1021.o
                0x0000000060004fd6                PWM1_1_IRQHandler
 .text.PWM1_2_IRQHandler
                0x0000000060004fde        0x8 ./startup/startup_mimxrt1021.o
                0x0000000060004fde                PWM1_2_IRQHandler
 .text.PWM1_3_IRQHandler
                0x0000000060004fe6        0x8 ./startup/startup_mimxrt1021.o
                0x0000000060004fe6                PWM1_3_IRQHandler
 .text.PWM1_FAULT_IRQHandler
                0x0000000060004fee        0x8 ./startup/startup_mimxrt1021.o
                0x0000000060004fee                PWM1_FAULT_IRQHandler
 .text.Reserved123_IRQHandler
                0x0000000060004ff6        0x8 ./startup/startup_mimxrt1021.o
                0x0000000060004ff6                Reserved123_IRQHandler
 .text.FLEXSPI_IRQHandler
                0x0000000060004ffe        0x8 ./startup/startup_mimxrt1021.o
                0x0000000060004ffe                FLEXSPI_IRQHandler
 .text.SEMC_IRQHandler
                0x0000000060005006        0x8 ./startup/startup_mimxrt1021.o
                0x0000000060005006                SEMC_IRQHandler
 .text.USDHC1_IRQHandler
                0x000000006000500e        0x8 ./startup/startup_mimxrt1021.o
                0x000000006000500e                USDHC1_IRQHandler
 .text.USDHC2_IRQHandler
                0x0000000060005016        0x8 ./startup/startup_mimxrt1021.o
                0x0000000060005016                USDHC2_IRQHandler
 .text.Reserved128_IRQHandler
                0x000000006000501e        0x8 ./startup/startup_mimxrt1021.o
                0x000000006000501e                Reserved128_IRQHandler
 .text.USB_OTG1_IRQHandler
                0x0000000060005026        0x8 ./startup/startup_mimxrt1021.o
                0x0000000060005026                USB_OTG1_IRQHandler
 .text.ENET_IRQHandler
                0x000000006000502e        0x8 ./startup/startup_mimxrt1021.o
                0x000000006000502e                ENET_IRQHandler
 .text.ENET_1588_Timer_IRQHandler
                0x0000000060005036        0x8 ./startup/startup_mimxrt1021.o
                0x0000000060005036                ENET_1588_Timer_IRQHandler
 .text.XBAR1_IRQ_0_1_IRQHandler
                0x000000006000503e        0x8 ./startup/startup_mimxrt1021.o
                0x000000006000503e                XBAR1_IRQ_0_1_IRQHandler
 .text.XBAR1_IRQ_2_3_IRQHandler
                0x0000000060005046        0x8 ./startup/startup_mimxrt1021.o
                0x0000000060005046                XBAR1_IRQ_2_3_IRQHandler
 .text.ADC_ETC_IRQ0_IRQHandler
                0x000000006000504e        0x8 ./startup/startup_mimxrt1021.o
                0x000000006000504e                ADC_ETC_IRQ0_IRQHandler
 .text.ADC_ETC_IRQ1_IRQHandler
                0x0000000060005056        0x8 ./startup/startup_mimxrt1021.o
                0x0000000060005056                ADC_ETC_IRQ1_IRQHandler
 .text.ADC_ETC_IRQ2_IRQHandler
                0x000000006000505e        0x8 ./startup/startup_mimxrt1021.o
                0x000000006000505e                ADC_ETC_IRQ2_IRQHandler
 .text.ADC_ETC_ERROR_IRQ_IRQHandler
                0x0000000060005066        0x8 ./startup/startup_mimxrt1021.o
                0x0000000060005066                ADC_ETC_ERROR_IRQ_IRQHandler
 .text.PIT_IRQHandler
                0x000000006000506e        0x8 ./startup/startup_mimxrt1021.o
                0x000000006000506e                PIT_IRQHandler
 .text.ACMP1_IRQHandler
                0x0000000060005076        0x8 ./startup/startup_mimxrt1021.o
                0x0000000060005076                ACMP1_IRQHandler
 .text.ACMP2_IRQHandler
                0x000000006000507e        0x8 ./startup/startup_mimxrt1021.o
                0x000000006000507e                ACMP2_IRQHandler
 .text.ACMP3_IRQHandler
                0x0000000060005086        0x8 ./startup/startup_mimxrt1021.o
                0x0000000060005086                ACMP3_IRQHandler
 .text.ACMP4_IRQHandler
                0x000000006000508e        0x8 ./startup/startup_mimxrt1021.o
                0x000000006000508e                ACMP4_IRQHandler
 .text.Reserved143_IRQHandler
                0x0000000060005096        0x8 ./startup/startup_mimxrt1021.o
                0x0000000060005096                Reserved143_IRQHandler
 .text.Reserved144_IRQHandler
                0x000000006000509e        0x8 ./startup/startup_mimxrt1021.o
                0x000000006000509e                Reserved144_IRQHandler
 .text.ENC1_IRQHandler
                0x00000000600050a6        0x8 ./startup/startup_mimxrt1021.o
                0x00000000600050a6                ENC1_IRQHandler
 .text.ENC2_IRQHandler
                0x00000000600050ae        0x8 ./startup/startup_mimxrt1021.o
                0x00000000600050ae                ENC2_IRQHandler
 .text.Reserved147_IRQHandler
                0x00000000600050b6        0x8 ./startup/startup_mimxrt1021.o
                0x00000000600050b6                Reserved147_IRQHandler
 .text.Reserved148_IRQHandler
                0x00000000600050be        0x8 ./startup/startup_mimxrt1021.o
                0x00000000600050be                Reserved148_IRQHandler
 .text.TMR1_IRQHandler
                0x00000000600050c6        0x8 ./startup/startup_mimxrt1021.o
                0x00000000600050c6                TMR1_IRQHandler
 .text.TMR2_IRQHandler
                0x00000000600050ce        0x8 ./startup/startup_mimxrt1021.o
                0x00000000600050ce                TMR2_IRQHandler
 .text.Reserved151_IRQHandler
                0x00000000600050d6        0x8 ./startup/startup_mimxrt1021.o
                0x00000000600050d6                Reserved151_IRQHandler
 .text.Reserved152_IRQHandler
                0x00000000600050de        0x8 ./startup/startup_mimxrt1021.o
                0x00000000600050de                Reserved152_IRQHandler
 .text.PWM2_0_IRQHandler
                0x00000000600050e6        0x8 ./startup/startup_mimxrt1021.o
                0x00000000600050e6                PWM2_0_IRQHandler
 .text.PWM2_1_IRQHandler
                0x00000000600050ee        0x8 ./startup/startup_mimxrt1021.o
                0x00000000600050ee                PWM2_1_IRQHandler
 .text.PWM2_2_IRQHandler
                0x00000000600050f6        0x8 ./startup/startup_mimxrt1021.o
                0x00000000600050f6                PWM2_2_IRQHandler
 .text.PWM2_3_IRQHandler
                0x00000000600050fe        0x8 ./startup/startup_mimxrt1021.o
                0x00000000600050fe                PWM2_3_IRQHandler
 .text.PWM2_FAULT_IRQHandler
                0x0000000060005106        0x8 ./startup/startup_mimxrt1021.o
                0x0000000060005106                PWM2_FAULT_IRQHandler
 .text.GPIO_PortToggle
                0x000000006000510e       0x1e ./source/gpio_led_output.o
 .text.HardFault_Handler
                0x000000006000512c       0x2c ./source/semihost_hardfault.o
                0x000000006000512c                HardFault_Handler
 .text.CLOCK_IsPllBypassed
                0x0000000060005158       0x32 ./drivers/fsl_clock.o
 .text.CLOCK_IsPllEnabled
                0x000000006000518a       0x3c ./drivers/fsl_clock.o
 .text.CLOCK_GetPllBypassRefClk
                0x00000000600051c6       0x34 ./drivers/fsl_clock.o
 .text.DelayLoop
                0x00000000600051fa       0x20 ./drivers/fsl_common_arm.o
 .text._SDK_AtomicLocalClearAndSet4Byte
                0x000000006000521a       0x50 ./drivers/fsl_gpio.o
 .text.CLOCK_EnableClock
                0x000000006000526a       0x1e ./drivers/fsl_gpio.o
 .text.GPIO_SetPinInterruptConfig
                0x0000000060005288       0x22 ./drivers/fsl_gpio.o
 .text._SDK_AtomicLocalClearAndSet4Byte
                0x00000000600052aa       0x50 ./drivers/fsl_lpuart.o
 .text.CLOCK_EnableClock
                0x00000000600052fa       0x1e ./drivers/fsl_lpuart.o
 .text.LPUART_SoftwareReset
                0x0000000060005318       0x2c ./drivers/fsl_lpuart.o
 .text.SystemInitHook
                0x0000000060005344        0xe ./device/system_MIMXRT1021.o
                0x0000000060005344                SystemInitHook
 .text.HAL_UartGetStatus
                0x0000000060005352       0x28 ./component/uart/fsl_adapter_lpuart.o
 .text.BOARD_InitDebugConsole
                0x000000006000537a       0x22 ./board/board.o
                0x000000006000537a                BOARD_InitDebugConsole
 .text._SDK_AtomicLocalClearAndSet4Byte
                0x000000006000539c       0x50 ./board/clock_config.o
 .text.CLOCK_DisableClock
                0x00000000600053ec       0x1e ./board/clock_config.o
 .text.CLOCK_SetPllBypass
                0x000000006000540a       0x4e ./board/clock_config.o
 .text.IOMUXC_SetSaiMClkClockSource
                0x0000000060005458       0x6c ./board/clock_config.o
 .text.BOARD_InitBootClocks
                0x00000000600054c4        0xc ./board/clock_config.o
                0x00000000600054c4                BOARD_InitBootClocks
 .text._SDK_AtomicLocalClearAndSet4Byte
                0x00000000600054d0       0x50 ./board/pin_mux.o
 .text.CLOCK_EnableClock
                0x0000000060005520       0x1e ./board/pin_mux.o
 .text.IOMUXC_SetPinMux
                0x000000006000553e       0x3a ./board/pin_mux.o
 .text.IOMUXC_SetPinConfig
                0x0000000060005578       0x26 ./board/pin_mux.o
 .text.BOARD_InitBootPins
                0x000000006000559e        0xc ./board/pin_mux.o
                0x000000006000559e                BOARD_InitBootPins
 .text.__main   0x00000000600055aa        0xe /usr/local/mcuxpressoide-11.6.1_8255/ide/plugins/com.nxp.mcuxpresso.tools.linux_11.6.1.202207200623/tools/bin/../lib/gcc/arm-none-eabi/10.3.1/../../../../arm-none-eabi/lib/thumb/v7e-m+dp/hard/libcr_nohost_nf.a(_cr__main.o)
                0x00000000600055aa                __main
 .text.memcpy   0x00000000600055b8        0x4 /usr/local/mcuxpressoide-11.6.1_8255/ide/plugins/com.nxp.mcuxpresso.tools.linux_11.6.1.202207200623/tools/bin/../lib/gcc/arm-none-eabi/10.3.1/../../../../arm-none-eabi/lib/thumb/v7e-m+dp/hard/libcr_c.a(memcpy.o)
                0x00000000600055b8                memcpy
 .text.memset   0x00000000600055bc        0x4 /usr/local/mcuxpressoide-11.6.1_8255/ide/plugins/com.nxp.mcuxpresso.tools.linux_11.6.1.202207200623/tools/bin/../lib/gcc/arm-none-eabi/10.3.1/../../../../arm-none-eabi/lib/thumb/v7e-m+dp/hard/libcr_c.a(memset.o)
                0x00000000600055bc                memset
 .text.free     0x00000000600055c0       0x30 /usr/local/mcuxpressoide-11.6.1_8255/ide/plugins/com.nxp.mcuxpresso.tools.linux_11.6.1.202207200623/tools/bin/../lib/gcc/arm-none-eabi/10.3.1/../../../../arm-none-eabi/lib/thumb/v7e-m+dp/hard/libcr_c.a(alloc.o)
                0x00000000600055c0                free
 .text.setvbuf  0x00000000600055f0       0x3e /usr/local/mcuxpressoide-11.6.1_8255/ide/plugins/com.nxp.mcuxpresso.tools.linux_11.6.1.202207200623/tools/bin/../lib/gcc/arm-none-eabi/10.3.1/../../../../arm-none-eabi/lib/thumb/v7e-m+dp/hard/libcr_c.a(setvbuf.o)
                0x00000000600055f0                setvbuf
 .text.strlen   0x000000006000562e       0x48 /usr/local/mcuxpressoide-11.6.1_8255/ide/plugins/com.nxp.mcuxpresso.tools.linux_11.6.1.202207200623/tools/bin/../lib/gcc/arm-none-eabi/10.3.1/../../../../arm-none-eabi/lib/thumb/v7e-m+dp/hard/libcr_c.a(strlen.o)
                0x000000006000562e                strlen
 .text._fdopen  0x0000000060005676       0x68 /usr/local/mcuxpressoide-11.6.1_8255/ide/plugins/com.nxp.mcuxpresso.tools.linux_11.6.1.202207200623/tools/bin/../lib/gcc/arm-none-eabi/10.3.1/../../../../arm-none-eabi/lib/thumb/v7e-m+dp/hard/libcr_c.a(_fdopen.o)
                0x0000000060005676                _fdopen
 .text.fclose   0x00000000600056de       0x58 /usr/local/mcuxpressoide-11.6.1_8255/ide/plugins/com.nxp.mcuxpresso.tools.linux_11.6.1.202207200623/tools/bin/../lib/gcc/arm-none-eabi/10.3.1/../../../../arm-none-eabi/lib/thumb/v7e-m+dp/hard/libcr_c.a(fclose.o)
                0x00000000600056de                fclose
 .text.remove   0x0000000060005736       0x14 /usr/local/mcuxpressoide-11.6.1_8255/ide/plugins/com.nxp.mcuxpresso.tools.linux_11.6.1.202207200623/tools/bin/../lib/gcc/arm-none-eabi/10.3.1/../../../../arm-none-eabi/lib/thumb/v7e-m+dp/hard/libcr_c.a(remove.o)
                0x0000000060005736                remove
 .text._do_fflush
                0x000000006000574a       0x40 /usr/local/mcuxpressoide-11.6.1_8255/ide/plugins/com.nxp.mcuxpresso.tools.linux_11.6.1.202207200623/tools/bin/../lib/gcc/arm-none-eabi/10.3.1/../../../../arm-none-eabi/lib/thumb/v7e-m+dp/hard/libcr_c.a(_do_fflush.o)
                0x000000006000574a                _do_fflush
 .text._fflush  0x000000006000578a       0x52 /usr/local/mcuxpressoide-11.6.1_8255/ide/plugins/com.nxp.mcuxpresso.tools.linux_11.6.1.202207200623/tools/bin/../lib/gcc/arm-none-eabi/10.3.1/../../../../arm-none-eabi/lib/thumb/v7e-m+dp/hard/libcr_c.a(_fflush.o)
                0x000000006000578a                _fflush
 .text._deferredlazyseek
                0x00000000600057dc       0x40 /usr/local/mcuxpressoide-11.6.1_8255/ide/plugins/com.nxp.mcuxpresso.tools.linux_11.6.1.202207200623/tools/bin/../lib/gcc/arm-none-eabi/10.3.1/../../../../arm-none-eabi/lib/thumb/v7e-m+dp/hard/libcr_c.a(_deferredlazyseek.o)
                0x00000000600057dc                _deferredlazyseek
 .text.__aeabi_division_uldivmod
                0x000000006000581c      0x174 /usr/local/mcuxpressoide-11.6.1_8255/ide/plugins/com.nxp.mcuxpresso.tools.linux_11.6.1.202207200623/tools/bin/../lib/gcc/arm-none-eabi/10.3.1/thumb/v7e-m+dp/hard/libcr_eabihelpers.a(division_64.o)
                0x000000006000581c                __aeabi_uldivmod
                0x0000000060005820                __bhs_ldivmod1
 .text.__aeabi_division_idiv0
                0x0000000060005990        0x2 /usr/local/mcuxpressoide-11.6.1_8255/ide/plugins/com.nxp.mcuxpresso.tools.linux_11.6.1.202207200623/tools/bin/../lib/gcc/arm-none-eabi/10.3.1/thumb/v7e-m+dp/hard/libcr_eabihelpers.a(division_idiv0.o)
                0x0000000060005990                __aeabi_idiv0
 .text.__aeabi_memcpy
                0x0000000060005992       0x34 /usr/local/mcuxpressoide-11.6.1_8255/ide/plugins/com.nxp.mcuxpresso.tools.linux_11.6.1.202207200623/tools/bin/../lib/gcc/arm-none-eabi/10.3.1/thumb/v7e-m+dp/hard/libcr_eabihelpers.a(memcpy.o)
                0x0000000060005992                __aeabi_memcpy
                0x000000006000599c                __aeabi_memcpy4
                0x000000006000599c                __aeabi_memcpy8
 .text.__aeabi_memset_lowlevel
                0x00000000600059c6       0x32 /usr/local/mcuxpressoide-11.6.1_8255/ide/plugins/com.nxp.mcuxpresso.tools.linux_11.6.1.202207200623/tools/bin/../lib/gcc/arm-none-eabi/10.3.1/thumb/v7e-m+dp/hard/libcr_eabihelpers.a(memcpy.o)
                0x00000000600059c6                __aeabi_lowlevel_memset
 .text.__sys_close
                0x00000000600059f8        0x6 /usr/local/mcuxpressoide-11.6.1_8255/ide/plugins/com.nxp.mcuxpresso.tools.linux_11.6.1.202207200623/tools/bin/../lib/gcc/arm-none-eabi/10.3.1/../../../../arm-none-eabi/lib/thumb/v7e-m+dp/hard/libcr_nohost_nf.a(__sys_close.o)
                0x00000000600059f8                __sys_close
 .text.__sys_flen
                0x00000000600059fe        0x6 /usr/local/mcuxpressoide-11.6.1_8255/ide/plugins/com.nxp.mcuxpresso.tools.linux_11.6.1.202207200623/tools/bin/../lib/gcc/arm-none-eabi/10.3.1/../../../../arm-none-eabi/lib/thumb/v7e-m+dp/hard/libcr_nohost_nf.a(__sys_flen.o)
                0x00000000600059fe                __sys_flen
 .text.__sys_istty
                0x0000000060005a04        0x6 /usr/local/mcuxpressoide-11.6.1_8255/ide/plugins/com.nxp.mcuxpresso.tools.linux_11.6.1.202207200623/tools/bin/../lib/gcc/arm-none-eabi/10.3.1/../../../../arm-none-eabi/lib/thumb/v7e-m+dp/hard/libcr_nohost_nf.a(__sys_istty.o)
                0x0000000060005a04                __sys_istty
 .text.__sys_remove
                0x0000000060005a0a        0x6 /usr/local/mcuxpressoide-11.6.1_8255/ide/plugins/com.nxp.mcuxpresso.tools.linux_11.6.1.202207200623/tools/bin/../lib/gcc/arm-none-eabi/10.3.1/../../../../arm-none-eabi/lib/thumb/v7e-m+dp/hard/libcr_nohost_nf.a(__sys_remove.o)
                0x0000000060005a0a                __sys_remove
 .text.__sys_seek
                0x0000000060005a10        0x6 /usr/local/mcuxpressoide-11.6.1_8255/ide/plugins/com.nxp.mcuxpresso.tools.linux_11.6.1.202207200623/tools/bin/../lib/gcc/arm-none-eabi/10.3.1/../../../../arm-none-eabi/lib/thumb/v7e-m+dp/hard/libcr_nohost_nf.a(__sys_seek.o)
                0x0000000060005a10                __sys_seek
 .text.__sys_tmpnam
                0x0000000060005a16        0x6 /usr/local/mcuxpressoide-11.6.1_8255/ide/plugins/com.nxp.mcuxpresso.tools.linux_11.6.1.202207200623/tools/bin/../lib/gcc/arm-none-eabi/10.3.1/../../../../arm-none-eabi/lib/thumb/v7e-m+dp/hard/libcr_nohost_nf.a(__sys_tmpnam.o)
                0x0000000060005a16                __sys_tmpnam
 .text.__sys_write
                0x0000000060005a1c        0x4 /usr/local/mcuxpressoide-11.6.1_8255/ide/plugins/com.nxp.mcuxpresso.tools.linux_11.6.1.202207200623/tools/bin/../lib/gcc/arm-none-eabi/10.3.1/../../../../arm-none-eabi/lib/thumb/v7e-m+dp/hard/libcr_nohost_nf.a(__sys_write.o)
                0x0000000060005a1c                __sys_write
 *(SORT_BY_ALIGNMENT(.rodata) SORT_BY_ALIGNMENT(.rodata.*) SORT_BY_ALIGNMENT(.constdata) SORT_BY_ALIGNMENT(.constdata.*))
 .rodata.__assertion_failed.str1.4
                0x0000000060005a20       0x14 ./utilities/fsl_assert.o
 .rodata.main.str1.4
                0x0000000060005a34       0x36 ./source/gpio_led_output.o
 *fill*         0x0000000060005a6a        0x2 ff
 .rodata.CLOCK_InitExternalClk.str1.4
                0x0000000060005a6c       0x21 ./drivers/fsl_clock.o
 *fill*         0x0000000060005a8d        0x3 ff
 .rodata.CLOCK_GetPllFreq.str1.4
                0x0000000060005a90       0x30 ./drivers/fsl_clock.o
 .rodata.enetRefClkFreq.0
                0x0000000060005ac0       0x10 ./drivers/fsl_clock.o
 .rodata.SDK_DelayAtLeastUs.str1.4
                0x0000000060005ad0       0x2b ./drivers/fsl_common_arm.o
 *fill*         0x0000000060005afb        0x1 ff
 .rodata.CLOCK_ControlGate.str1.4
                0x0000000060005afc       0x20 ./drivers/fsl_gpio.o
 .rodata.s_gpioBases
                0x0000000060005b1c       0x18 ./drivers/fsl_gpio.o
 .rodata.s_gpioClock
                0x0000000060005b34        0xc ./drivers/fsl_gpio.o
 .rodata.GPIO_GetInstance.str1.4
                0x0000000060005b40       0x33 ./drivers/fsl_gpio.o
 *fill*         0x0000000060005b73        0x1 ff
 .rodata.GPIO_PinWrite.str1.4
                0x0000000060005b74       0x1b ./drivers/fsl_gpio.o
 .rodata.CLOCK_ControlGate.str1.4
                0x0000000060005b8f       0x20 ./drivers/fsl_lpuart.o
 *fill*         0x0000000060005b8f        0x1 ff
 .rodata.s_lpuartBases
                0x0000000060005b90       0x24 ./drivers/fsl_lpuart.o
 .rodata.s_lpuartClock
                0x0000000060005bb4       0x12 ./drivers/fsl_lpuart.o
 *fill*         0x0000000060005bc6        0x2 ff
 .rodata.LPUART_GetInstance.str1.4
                0x0000000060005bc8       0x38 ./drivers/fsl_lpuart.o
 .rodata.LPUART_Init.str1.4
                0x0000000060005c00      0x10a ./drivers/fsl_lpuart.o
 *fill*         0x0000000060005d0a        0x2 ff
 .rodata.LPUART_GetDefaultConfig.str1.4
                0x0000000060005d0c       0x22 ./drivers/fsl_lpuart.o
 *fill*         0x0000000060005d2e        0x2 ff
 .rodata.LPUART_WriteBlocking.str1.4
                0x0000000060005d30       0x20 ./drivers/fsl_lpuart.o
 .rodata.LPUART_ReadBlocking.str1.4
                0x0000000060005d50       0x20 ./drivers/fsl_lpuart.o
 .rodata.s_LpuartAdapterBase
                0x0000000060005d70       0x24 ./component/uart/fsl_adapter_lpuart.o
 .rodata.HAL_UartInit.str1.4
                0x0000000060005d94      0x105 ./component/uart/fsl_adapter_lpuart.o
 *fill*         0x0000000060005e99        0x3 ff
 .rodata.HAL_UartReceiveBlocking.str1.4
                0x0000000060005e9c       0x7b ./component/uart/fsl_adapter_lpuart.o
 *fill*         0x0000000060005f17        0x1 ff
 .rodata.HAL_UartSendBlocking.str1.4
                0x0000000060005f18       0x7b ./component/uart/fsl_adapter_lpuart.o
 *fill*         0x0000000060005f93        0x1 ff
 .rodata.BOARD_ConfigMPU.str1.4
                0x0000000060005f94       0x69 ./board/board.o
 *fill*         0x0000000060005ffd        0x3 ff
 .rodata.CLOCK_SetMux.str1.4
                0x0000000060006000       0x8f ./board/clock_config.o
 *fill*         0x000000006000608f        0x1 ff
 .rodata.CLOCK_SetDiv.str1.4
                0x0000000060006090       0x8f ./board/clock_config.o
 *fill*         0x000000006000611f        0x1 ff
 .rodata.CLOCK_ControlGate.str1.4
                0x0000000060006120       0x7e ./board/clock_config.o
 *fill*         0x000000006000619e        0x2 ff
 .rodata.sysPllConfig_BOARD_BootClockRUN
                0x00000000600061a0       0x14 ./board/clock_config.o
                0x00000000600061a0                sysPllConfig_BOARD_BootClockRUN
 .rodata.enetPllConfig_BOARD_BootClockRUN
                0x00000000600061b4        0x5 ./board/clock_config.o
                0x00000000600061b4                enetPllConfig_BOARD_BootClockRUN
 .rodata.CLOCK_ControlGate.str1.4
                0x00000000600061b9       0x7e ./board/pin_mux.o
 *fill*         0x00000000600061b9        0x3 ff
 .rodata.__num_Ciob_streams
                0x00000000600061bc        0x4 /usr/local/mcuxpressoide-11.6.1_8255/ide/plugins/com.nxp.mcuxpresso.tools.linux_11.6.1.202207200623/tools/bin/../lib/gcc/arm-none-eabi/10.3.1/../../../../arm-none-eabi/lib/thumb/v7e-m+dp/hard/libcr_nohost_nf.a(__ciob.o)
                0x00000000600061bc                __num_Ciob_streams
 .rodata._initio.str1.1
                0x00000000600061c0        0x4 /usr/local/mcuxpressoide-11.6.1_8255/ide/plugins/com.nxp.mcuxpresso.tools.linux_11.6.1.202207200623/tools/bin/../lib/gcc/arm-none-eabi/10.3.1/../../../../arm-none-eabi/lib/thumb/v7e-m+dp/hard/libcr_c.a(initio.o)
                0x00000000600061c4                . = ALIGN (0x4)
                0x00000000600061c4                _etext = .

.glue_7         0x00000000600061c4        0x0
 .glue_7        0x00000000600061c4        0x0 linker stubs

.glue_7t        0x00000000600061c4        0x0
 .glue_7t       0x00000000600061c4        0x0 linker stubs

.vfp11_veneer   0x00000000600061c4        0x0
 .vfp11_veneer  0x00000000600061c4        0x0 linker stubs

.v4_bx          0x00000000600061c4        0x0
 .v4_bx         0x00000000600061c4        0x0 linker stubs

.iplt           0x00000000600061c4        0x0
 .iplt          0x00000000600061c4        0x0 ./xip/fsl_flexspi_nor_boot.o

.rel.dyn        0x00000000600061c4        0x0
 .rel.iplt      0x00000000600061c4        0x0 ./xip/fsl_flexspi_nor_boot.o

.data_RAM2      0x0000000000000000        0x0 load address 0x00000000600061c4
 FILL mask 0xff
                [!provide]                        PROVIDE (__start_data_RAM2 = .)
                [!provide]                        PROVIDE (__start_data_SRAM_ITC = .)
 *(SORT_BY_ALIGNMENT(.ramfunc.$RAM2))
 *(SORT_BY_ALIGNMENT(.ramfunc.$SRAM_ITC))
 *(SORT_BY_ALIGNMENT(.data.$RAM2))
 *(SORT_BY_ALIGNMENT(.data.$SRAM_ITC))
 *(SORT_BY_ALIGNMENT(.data.$RAM2.*))
 *(SORT_BY_ALIGNMENT(.data.$SRAM_ITC.*))
                0x0000000000000000                . = ALIGN (0x4)
                [!provide]                        PROVIDE (__end_data_RAM2 = .)
                [!provide]                        PROVIDE (__end_data_SRAM_ITC = .)

.data_RAM3      0x0000000020200000        0x0 load address 0x00000000600061c4
 FILL mask 0xff
                [!provide]                        PROVIDE (__start_data_RAM3 = .)
                [!provide]                        PROVIDE (__start_data_SRAM_OC = .)
 *(SORT_BY_ALIGNMENT(.ramfunc.$RAM3))
 *(SORT_BY_ALIGNMENT(.ramfunc.$SRAM_OC))
 *(SORT_BY_ALIGNMENT(.data.$RAM3))
 *(SORT_BY_ALIGNMENT(.data.$SRAM_OC))
 *(SORT_BY_ALIGNMENT(.data.$RAM3.*))
 *(SORT_BY_ALIGNMENT(.data.$SRAM_OC.*))
                0x0000000020200000                . = ALIGN (0x4)
                [!provide]                        PROVIDE (__end_data_RAM3 = .)
                [!provide]                        PROVIDE (__end_data_SRAM_OC = .)

.data_RAM4      0x0000000080000000        0x0 load address 0x00000000600061c4
 FILL mask 0xff
                [!provide]                        PROVIDE (__start_data_RAM4 = .)
                [!provide]                        PROVIDE (__start_data_BOARD_SDRAM = .)
 *(SORT_BY_ALIGNMENT(.ramfunc.$RAM4))
 *(SORT_BY_ALIGNMENT(.ramfunc.$BOARD_SDRAM))
 *(SORT_BY_ALIGNMENT(.data.$RAM4))
 *(SORT_BY_ALIGNMENT(.data.$BOARD_SDRAM))
 *(SORT_BY_ALIGNMENT(.data.$RAM4.*))
 *(SORT_BY_ALIGNMENT(.data.$BOARD_SDRAM.*))
                0x0000000080000000                . = ALIGN (0x4)
                [!provide]                        PROVIDE (__end_data_RAM4 = .)
                [!provide]                        PROVIDE (__end_data_BOARD_SDRAM = .)

.data_RAM5      0x0000000081e00000        0x0 load address 0x00000000600061c4
 FILL mask 0xff
                [!provide]                        PROVIDE (__start_data_RAM5 = .)
                [!provide]                        PROVIDE (__start_data_NCACHE_REGION = .)
 *(SORT_BY_ALIGNMENT(.ramfunc.$RAM5))
 *(SORT_BY_ALIGNMENT(.ramfunc.$NCACHE_REGION))
 *(SORT_BY_ALIGNMENT(.data.$RAM5))
 *(SORT_BY_ALIGNMENT(.data.$NCACHE_REGION))
 *(SORT_BY_ALIGNMENT(.data.$RAM5.*))
 *(SORT_BY_ALIGNMENT(.data.$NCACHE_REGION.*))
                0x0000000081e00000                . = ALIGN (0x4)
                [!provide]                        PROVIDE (__end_data_RAM5 = .)
                [!provide]                        PROVIDE (__end_data_NCACHE_REGION = .)

.uninit_RESERVED
                0x0000000020000000        0x0
                0x0000000020000000                _start_uninit_RESERVED = .
 *(SORT_BY_ALIGNMENT(.bss.$RESERVED*))
                0x0000000020000000                . = ALIGN (0x4)
                0x0000000020000000                _end_uninit_RESERVED = .

.data           0x0000000020000000        0x4 load address 0x00000000600061c4
 FILL mask 0xff
                0x0000000020000000                _data = .
                [!provide]                        PROVIDE (__start_data_RAM = .)
                [!provide]                        PROVIDE (__start_data_SRAM_DTC = .)
 *(SORT_BY_ALIGNMENT(vtable))
 *(SORT_BY_ALIGNMENT(.ramfunc*))
 *(SORT_BY_ALIGNMENT(CodeQuickAccess))
 *(SORT_BY_ALIGNMENT(DataQuickAccess))
 *(SORT_BY_ALIGNMENT(RamFunction))
 *(SORT_BY_ALIGNMENT(NonCacheable.init))
 *(SORT_BY_ALIGNMENT(.data*))
 .data.SystemCoreClock
                0x0000000020000000        0x4 ./device/system_MIMXRT1021.o
                0x0000000020000000                SystemCoreClock
                0x0000000020000004                . = ALIGN (0x4)
                0x0000000020000004                _edata = .
                [!provide]                        PROVIDE (__end_data_RAM = .)
                [!provide]                        PROVIDE (__end_data_SRAM_DTC = .)

.igot.plt       0x0000000020000004        0x0 load address 0x00000000600061c8
 .igot.plt      0x0000000020000004        0x0 ./xip/fsl_flexspi_nor_boot.o

.bss_RAM2       0x0000000000000000        0x0
                [!provide]                        PROVIDE (__start_bss_RAM2 = .)
                [!provide]                        PROVIDE (__start_bss_SRAM_ITC = .)
 *(SORT_BY_ALIGNMENT(.bss.$RAM2))
 *(SORT_BY_ALIGNMENT(.bss.$SRAM_ITC))
 *(SORT_BY_ALIGNMENT(.bss.$RAM2.*))
 *(SORT_BY_ALIGNMENT(.bss.$SRAM_ITC.*))
                0x0000000000000000                . = ALIGN ((. != 0x0)?0x4:0x1)
                [!provide]                        PROVIDE (__end_bss_RAM2 = .)
                [!provide]                        PROVIDE (__end_bss_SRAM_ITC = .)

.bss_RAM3       0x0000000020200000        0x0
                [!provide]                        PROVIDE (__start_bss_RAM3 = .)
                [!provide]                        PROVIDE (__start_bss_SRAM_OC = .)
 *(SORT_BY_ALIGNMENT(.bss.$RAM3))
 *(SORT_BY_ALIGNMENT(.bss.$SRAM_OC))
 *(SORT_BY_ALIGNMENT(.bss.$RAM3.*))
 *(SORT_BY_ALIGNMENT(.bss.$SRAM_OC.*))
                0x0000000020200000                . = ALIGN ((. != 0x0)?0x4:0x1)
                [!provide]                        PROVIDE (__end_bss_RAM3 = .)
                [!provide]                        PROVIDE (__end_bss_SRAM_OC = .)

.bss_RAM4       0x0000000080000000        0x0
                [!provide]                        PROVIDE (__start_bss_RAM4 = .)
                [!provide]                        PROVIDE (__start_bss_BOARD_SDRAM = .)
 *(SORT_BY_ALIGNMENT(.bss.$RAM4))
 *(SORT_BY_ALIGNMENT(.bss.$BOARD_SDRAM))
 *(SORT_BY_ALIGNMENT(.bss.$RAM4.*))
 *(SORT_BY_ALIGNMENT(.bss.$BOARD_SDRAM.*))
                0x0000000080000000                . = ALIGN ((. != 0x0)?0x4:0x1)
                [!provide]                        PROVIDE (__end_bss_RAM4 = .)
                [!provide]                        PROVIDE (__end_bss_BOARD_SDRAM = .)

.bss_RAM5       0x0000000081e00000        0x0
                [!provide]                        PROVIDE (__start_bss_RAM5 = .)
                [!provide]                        PROVIDE (__start_bss_NCACHE_REGION = .)
 *(SORT_BY_ALIGNMENT(.bss.$RAM5))
 *(SORT_BY_ALIGNMENT(.bss.$NCACHE_REGION))
 *(SORT_BY_ALIGNMENT(.bss.$RAM5.*))
 *(SORT_BY_ALIGNMENT(.bss.$NCACHE_REGION.*))
                0x0000000081e00000                . = ALIGN ((. != 0x0)?0x4:0x1)
                [!provide]                        PROVIDE (__end_bss_RAM5 = .)
                [!provide]                        PROVIDE (__end_bss_NCACHE_REGION = .)

.bss            0x0000000020000004       0xfc
                0x0000000020000004                _bss = .
                [!provide]                        PROVIDE (__start_bss_RAM = .)
                [!provide]                        PROVIDE (__start_bss_SRAM_DTC = .)
 *(SORT_BY_ALIGNMENT(NonCacheable))
 *(SORT_BY_ALIGNMENT(.bss*))
 .bss.s_debugConsole
                0x0000000020000004       0x14 ./utilities/fsl_debug_console.o
 .bss.g_xtalFreq
                0x0000000020000018        0x4 ./drivers/fsl_clock.o
                0x0000000020000018                g_xtalFreq
 .bss.g_rtcXtalFreq
                0x000000002000001c        0x4 ./drivers/fsl_clock.o
                0x000000002000001c                g_rtcXtalFreq
 .bss.s_lpuartHandle
                0x0000000020000020       0x24 ./drivers/fsl_lpuart.o
                0x0000000020000020                s_lpuartHandle
 .bss.s_lpuartIsr
                0x0000000020000044        0x4 ./drivers/fsl_lpuart.o
                0x0000000020000044                s_lpuartIsr
 .bss.errno     0x0000000020000048        0x4 /usr/local/mcuxpressoide-11.6.1_8255/ide/plugins/com.nxp.mcuxpresso.tools.linux_11.6.1.202207200623/tools/bin/../lib/gcc/arm-none-eabi/10.3.1/../../../../arm-none-eabi/lib/thumb/v7e-m+dp/hard/libcr_c.a(errno.o)
                0x0000000020000048                errno
 .bss.__Ciob    0x000000002000004c       0xb4 /usr/local/mcuxpressoide-11.6.1_8255/ide/plugins/com.nxp.mcuxpresso.tools.linux_11.6.1.202207200623/tools/bin/../lib/gcc/arm-none-eabi/10.3.1/../../../../arm-none-eabi/lib/thumb/v7e-m+dp/hard/libcr_nohost_nf.a(__ciob.o)
                0x000000002000004c                __Ciob
 *(SORT_BY_ALIGNMENT(COMMON))
                0x0000000020000100                . = ALIGN (0x4)
                0x0000000020000100                _ebss = .
                [!provide]                        PROVIDE (__end_bss_RAM = .)
                [!provide]                        PROVIDE (__end_bss_SRAM_DTC = .)
                [!provide]                        PROVIDE (end = .)

.noinit_RAM2    0x0000000000000000        0x0
                [!provide]                        PROVIDE (__start_noinit_RAM2 = .)
                [!provide]                        PROVIDE (__start_noinit_SRAM_ITC = .)
 *(SORT_BY_ALIGNMENT(.noinit.$RAM2))
 *(SORT_BY_ALIGNMENT(.noinit.$SRAM_ITC))
 *(SORT_BY_ALIGNMENT(.noinit.$RAM2.*))
 *(SORT_BY_ALIGNMENT(.noinit.$SRAM_ITC.*))
                0x0000000000000000                . = ALIGN (0x4)
                [!provide]                        PROVIDE (__end_noinit_RAM2 = .)
                [!provide]                        PROVIDE (__end_noinit_SRAM_ITC = .)

.noinit_RAM3    0x0000000020200000        0x0
                [!provide]                        PROVIDE (__start_noinit_RAM3 = .)
                [!provide]                        PROVIDE (__start_noinit_SRAM_OC = .)
 *(SORT_BY_ALIGNMENT(.noinit.$RAM3))
 *(SORT_BY_ALIGNMENT(.noinit.$SRAM_OC))
 *(SORT_BY_ALIGNMENT(.noinit.$RAM3.*))
 *(SORT_BY_ALIGNMENT(.noinit.$SRAM_OC.*))
                0x0000000020200000                . = ALIGN (0x4)
                [!provide]                        PROVIDE (__end_noinit_RAM3 = .)
                [!provide]                        PROVIDE (__end_noinit_SRAM_OC = .)

.noinit_RAM4    0x0000000080000000        0x0
                [!provide]                        PROVIDE (__start_noinit_RAM4 = .)
                [!provide]                        PROVIDE (__start_noinit_BOARD_SDRAM = .)
 *(SORT_BY_ALIGNMENT(.noinit.$RAM4))
 *(SORT_BY_ALIGNMENT(.noinit.$BOARD_SDRAM))
 *(SORT_BY_ALIGNMENT(.noinit.$RAM4.*))
 *(SORT_BY_ALIGNMENT(.noinit.$BOARD_SDRAM.*))
                0x0000000080000000                . = ALIGN (0x4)
                [!provide]                        PROVIDE (__end_noinit_RAM4 = .)
                [!provide]                        PROVIDE (__end_noinit_BOARD_SDRAM = .)

.noinit_RAM5    0x0000000081e00000        0x0
                [!provide]                        PROVIDE (__start_noinit_RAM5 = .)
                [!provide]                        PROVIDE (__start_noinit_NCACHE_REGION = .)
 *(SORT_BY_ALIGNMENT(.noinit.$RAM5))
 *(SORT_BY_ALIGNMENT(.noinit.$NCACHE_REGION))
 *(SORT_BY_ALIGNMENT(.noinit.$RAM5.*))
 *(SORT_BY_ALIGNMENT(.noinit.$NCACHE_REGION.*))
                0x0000000081e00000                . = ALIGN (0x4)
                [!provide]                        PROVIDE (__end_noinit_RAM5 = .)
                [!provide]                        PROVIDE (__end_noinit_NCACHE_REGION = .)

.noinit         0x0000000020000100        0x0
                0x0000000020000100                _noinit = .
                [!provide]                        PROVIDE (__start_noinit_RAM = .)
                [!provide]                        PROVIDE (__start_noinit_SRAM_DTC = .)
 *(SORT_BY_ALIGNMENT(.noinit*))
                0x0000000020000100                . = ALIGN (0x4)
                0x0000000020000100                _end_noinit = .
                [!provide]                        PROVIDE (__end_noinit_RAM = .)
                [!provide]                        PROVIDE (__end_noinit_SRAM_DTC = .)

.ARM.extab
 *(SORT_BY_ALIGNMENT(.ARM.extab*) SORT_BY_ALIGNMENT(.gnu.linkonce.armextab.*))

.ARM.exidx      0x00000000600061c8        0x0
                0x00000000600061c8                __exidx_start = .
 *(SORT_BY_ALIGNMENT(.ARM.exidx*) SORT_BY_ALIGNMENT(.gnu.linkonce.armexidx.*))
                0x00000000600061c8                __exidx_end = .
                0x0000000000001000                _HeapSize = 0x1000

.heap           0x0000000020000100     0x1000
                0x0000000020000100                _pvHeapStart = .
                0x0000000020001100                . = (. + _HeapSize)
 *fill*         0x0000000020000100     0x1000 
                0x0000000020001100                . = ALIGN (0x4)
                0x0000000020001100                _pvHeapLimit = .
                0x0000000000001000                _StackSize = 0x1000

.heap2stackfill
                0x0000000020001100     0x1000
                0x0000000020002100                . = (. + _StackSize)
 *fill*         0x0000000020001100     0x1000 

.stack          0x000000002000f000        0x0
                0x000000002000f000                _vStackBase = .
                0x000000002000f000                . = ALIGN (0x4)
                0x0000000020010000                _vStackTop = (. + _StackSize)
                0x0000000060002000                _image_start = LOADADDR (.text)
                0x00000000600061c8                _image_end = (LOADADDR (.data) + SIZEOF (.data))
                0x00000000000041c8                _image_size = (_image_end - _image_start)
OUTPUT(evkmimxrt1020_igpio_led_output.axf elf32-littlearm)
LOAD linker stubs

.debug_info     0x0000000000000000     0xc729
 .debug_info    0x0000000000000000      0x834 ./xip/evkmimxrt1020_flexspi_nor_config.o
 .debug_info    0x0000000000000834      0x463 ./xip/fsl_flexspi_nor_boot.o
 .debug_info    0x0000000000000c97       0xaa ./utilities/fsl_assert.o
 .debug_info    0x0000000000000d41      0xceb ./utilities/fsl_debug_console.o
 .debug_info    0x0000000000001a2c      0xd0d ./startup/startup_mimxrt1021.o
 .debug_info    0x0000000000002739      0x55e ./source/gpio_led_output.o
 .debug_info    0x0000000000002c97       0x3c ./source/semihost_hardfault.o
 .debug_info    0x0000000000002cd3     0x2172 ./drivers/fsl_clock.o
 .debug_info    0x0000000000004e45       0xf5 ./drivers/fsl_common_arm.o
 .debug_info    0x0000000000004f3a      0xd3c ./drivers/fsl_gpio.o
 .debug_info    0x0000000000005c76     0x25ae ./drivers/fsl_lpuart.o
 .debug_info    0x0000000000008224      0xb9f ./device/system_MIMXRT1021.o
 .debug_info    0x0000000000008dc3      0xaeb ./component/uart/fsl_adapter_lpuart.o
 .debug_info    0x00000000000098ae      0xf3b ./board/board.o
 .debug_info    0x000000000000a7e9     0x1718 ./board/clock_config.o
 .debug_info    0x000000000000bf01      0x828 ./board/pin_mux.o

.debug_abbrev   0x0000000000000000     0x1c91
 .debug_abbrev  0x0000000000000000      0x10a ./xip/evkmimxrt1020_flexspi_nor_config.o
 .debug_abbrev  0x000000000000010a       0xe2 ./xip/fsl_flexspi_nor_boot.o
 .debug_abbrev  0x00000000000001ec       0x66 ./utilities/fsl_assert.o
 .debug_abbrev  0x0000000000000252      0x24b ./utilities/fsl_debug_console.o
 .debug_abbrev  0x000000000000049d      0x152 ./startup/startup_mimxrt1021.o
 .debug_abbrev  0x00000000000005ef      0x152 ./source/gpio_led_output.o
 .debug_abbrev  0x0000000000000741       0x31 ./source/semihost_hardfault.o
 .debug_abbrev  0x0000000000000772      0x33b ./drivers/fsl_clock.o
 .debug_abbrev  0x0000000000000aad       0x92 ./drivers/fsl_common_arm.o
 .debug_abbrev  0x0000000000000b3f      0x2a1 ./drivers/fsl_gpio.o
 .debug_abbrev  0x0000000000000de0      0x468 ./drivers/fsl_lpuart.o
 .debug_abbrev  0x0000000000001248      0x16e ./device/system_MIMXRT1021.o
 .debug_abbrev  0x00000000000013b6      0x1ad ./component/uart/fsl_adapter_lpuart.o
 .debug_abbrev  0x0000000000001563      0x287 ./board/board.o
 .debug_abbrev  0x00000000000017ea      0x299 ./board/clock_config.o
 .debug_abbrev  0x0000000000001a83      0x20e ./board/pin_mux.o

.debug_aranges  0x0000000000000000      0xb18
 .debug_aranges
                0x0000000000000000       0x18 ./xip/evkmimxrt1020_flexspi_nor_config.o
 .debug_aranges
                0x0000000000000018       0x18 ./xip/fsl_flexspi_nor_boot.o
 .debug_aranges
                0x0000000000000030       0x20 ./utilities/fsl_assert.o
 .debug_aranges
                0x0000000000000050       0x78 ./utilities/fsl_debug_console.o
 .debug_aranges
                0x00000000000000c8      0x4f0 ./startup/startup_mimxrt1021.o
 .debug_aranges
                0x00000000000005b8       0x28 ./source/gpio_led_output.o
 .debug_aranges
                0x00000000000005e0       0x20 ./source/semihost_hardfault.o
 .debug_aranges
                0x0000000000000600      0x168 ./drivers/fsl_clock.o
 .debug_aranges
                0x0000000000000768       0x28 ./drivers/fsl_common_arm.o
 .debug_aranges
                0x0000000000000790       0x58 ./drivers/fsl_gpio.o
 .debug_aranges
                0x00000000000007e8      0x188 ./drivers/fsl_lpuart.o
 .debug_aranges
                0x0000000000000970       0x30 ./device/system_MIMXRT1021.o
 .debug_aranges
                0x00000000000009a0       0x58 ./component/uart/fsl_adapter_lpuart.o
 .debug_aranges
                0x00000000000009f8       0x58 ./board/board.o
 .debug_aranges
                0x0000000000000a50       0x78 ./board/clock_config.o
 .debug_aranges
                0x0000000000000ac8       0x50 ./board/pin_mux.o

.debug_macro    0x0000000000000000    0x260bc
 .debug_macro   0x0000000000000000      0x142 ./xip/evkmimxrt1020_flexspi_nor_config.o
 .debug_macro   0x0000000000000142      0xacc ./xip/evkmimxrt1020_flexspi_nor_config.o
 .debug_macro   0x0000000000000c0e       0x10 ./xip/evkmimxrt1020_flexspi_nor_config.o
 .debug_macro   0x0000000000000c1e      0x12e ./xip/evkmimxrt1020_flexspi_nor_config.o
 .debug_macro   0x0000000000000d4c      0x5b3 ./xip/evkmimxrt1020_flexspi_nor_config.o
 .debug_macro   0x00000000000012ff       0x22 ./xip/evkmimxrt1020_flexspi_nor_config.o
 .debug_macro   0x0000000000001321       0x16 ./xip/evkmimxrt1020_flexspi_nor_config.o
 .debug_macro   0x0000000000001337       0x22 ./xip/evkmimxrt1020_flexspi_nor_config.o
 .debug_macro   0x0000000000001359       0x10 ./xip/evkmimxrt1020_flexspi_nor_config.o
 .debug_macro   0x0000000000001369       0x4d ./xip/evkmimxrt1020_flexspi_nor_config.o
 .debug_macro   0x00000000000013b6       0x1c ./xip/evkmimxrt1020_flexspi_nor_config.o
 .debug_macro   0x00000000000013d2       0x22 ./xip/evkmimxrt1020_flexspi_nor_config.o
 .debug_macro   0x00000000000013f4       0xfb ./xip/evkmimxrt1020_flexspi_nor_config.o
 .debug_macro   0x00000000000014ef     0x1313 ./xip/evkmimxrt1020_flexspi_nor_config.o
 .debug_macro   0x0000000000002802      0x11f ./xip/evkmimxrt1020_flexspi_nor_config.o
 .debug_macro   0x0000000000002921       0x22 ./xip/evkmimxrt1020_flexspi_nor_config.o
 .debug_macro   0x0000000000002943       0x1c ./xip/evkmimxrt1020_flexspi_nor_config.o
 .debug_macro   0x000000000000295f    0x201e7 ./xip/evkmimxrt1020_flexspi_nor_config.o
 .debug_macro   0x0000000000022b46      0x80e ./xip/evkmimxrt1020_flexspi_nor_config.o
 .debug_macro   0x0000000000023354       0x7a ./xip/evkmimxrt1020_flexspi_nor_config.o
 .debug_macro   0x00000000000233ce       0xaf ./xip/evkmimxrt1020_flexspi_nor_config.o
 .debug_macro   0x000000000002347d      0x21e ./xip/evkmimxrt1020_flexspi_nor_config.o
 .debug_macro   0x000000000002369b      0x1a4 ./xip/evkmimxrt1020_flexspi_nor_config.o
 .debug_macro   0x000000000002383f      0x163 ./xip/fsl_flexspi_nor_boot.o
 .debug_macro   0x00000000000239a2      0x112 ./xip/fsl_flexspi_nor_boot.o
 .debug_macro   0x0000000000023ab4       0x10 ./xip/fsl_flexspi_nor_boot.o
 .debug_macro   0x0000000000023ac4      0x136 ./xip/fsl_flexspi_nor_boot.o
 .debug_macro   0x0000000000023bfa       0x7c ./xip/fsl_flexspi_nor_boot.o
 .debug_macro   0x0000000000023c76      0x13e ./utilities/fsl_assert.o
 .debug_macro   0x0000000000023db4       0x1c ./utilities/fsl_assert.o
 .debug_macro   0x0000000000023dd0       0x1c ./utilities/fsl_assert.o
 .debug_macro   0x0000000000023dec       0x1c ./utilities/fsl_assert.o
 .debug_macro   0x0000000000023e08       0x34 ./utilities/fsl_assert.o
 .debug_macro   0x0000000000023e3c      0x164 ./utilities/fsl_debug_console.o
 .debug_macro   0x0000000000023fa0       0x16 ./utilities/fsl_debug_console.o
 .debug_macro   0x0000000000023fb6       0x10 ./utilities/fsl_debug_console.o
 .debug_macro   0x0000000000023fc6       0x28 ./utilities/fsl_debug_console.o
 .debug_macro   0x0000000000023fee       0xc4 ./utilities/fsl_debug_console.o
 .debug_macro   0x00000000000240b2       0x16 ./utilities/fsl_debug_console.o
 .debug_macro   0x00000000000240c8       0x46 ./utilities/fsl_debug_console.o
 .debug_macro   0x000000000002410e       0x29 ./startup/startup_mimxrt1021.o
 .debug_macro   0x0000000000024137      0x17f ./source/gpio_led_output.o
 .debug_macro   0x00000000000242b6      0x10c ./source/gpio_led_output.o
 .debug_macro   0x00000000000243c2       0x11 ./source/semihost_hardfault.o
 .debug_macro   0x00000000000243d3      0x12d ./drivers/fsl_clock.o
 .debug_macro   0x0000000000024500      0x12d ./drivers/fsl_common_arm.o
 .debug_macro   0x000000000002462d      0x13d ./drivers/fsl_gpio.o
 .debug_macro   0x000000000002476a      0x13c ./drivers/fsl_lpuart.o
 .debug_macro   0x00000000000248a6       0x10 ./drivers/fsl_lpuart.o
 .debug_macro   0x00000000000248b6       0xb3 ./device/system_MIMXRT1021.o
 .debug_macro   0x0000000000024969      0x155 ./component/uart/fsl_adapter_lpuart.o
 .debug_macro   0x0000000000024abe       0x40 ./component/uart/fsl_adapter_lpuart.o
 .debug_macro   0x0000000000024afe      0x168 ./board/board.o
 .debug_macro   0x0000000000024c66     0x11dd ./board/board.o
 .debug_macro   0x0000000000025e43      0x13f ./board/clock_config.o
 .debug_macro   0x0000000000025f82      0x13a ./board/pin_mux.o

.debug_line     0x0000000000000000     0x781a
 .debug_line    0x0000000000000000      0x3ef ./xip/evkmimxrt1020_flexspi_nor_config.o
 .debug_line    0x00000000000003ef      0x45e ./xip/fsl_flexspi_nor_boot.o
 .debug_line    0x000000000000084d      0x3f7 ./utilities/fsl_assert.o
 .debug_line    0x0000000000000c44      0xcb0 ./utilities/fsl_debug_console.o
 .debug_line    0x00000000000018f4      0xe55 ./startup/startup_mimxrt1021.o
 .debug_line    0x0000000000002749      0x51a ./source/gpio_led_output.o
 .debug_line    0x0000000000002c63       0x59 ./source/semihost_hardfault.o
 .debug_line    0x0000000000002cbc      0xed4 ./drivers/fsl_clock.o
 .debug_line    0x0000000000003b90      0x3ac ./drivers/fsl_common_arm.o
 .debug_line    0x0000000000003f3c      0x58e ./drivers/fsl_gpio.o
 .debug_line    0x00000000000044ca     0x144d ./drivers/fsl_lpuart.o
 .debug_line    0x0000000000005917      0x490 ./device/system_MIMXRT1021.o
 .debug_line    0x0000000000005da7      0x59b ./component/uart/fsl_adapter_lpuart.o
 .debug_line    0x0000000000006342      0x891 ./board/board.o
 .debug_line    0x0000000000006bd3      0x74e ./board/clock_config.o
 .debug_line    0x0000000000007321      0x4f9 ./board/pin_mux.o

.debug_str      0x0000000000000000   0x12c48f
 .debug_str     0x0000000000000000   0x118f02 ./xip/evkmimxrt1020_flexspi_nor_config.o
                                     0x118f91 (size before relaxing)
 .debug_str     0x0000000000118f02     0x13de ./xip/fsl_flexspi_nor_boot.o
                                     0x119512 (size before relaxing)
 .debug_str     0x000000000011a2e0      0x1e1 ./utilities/fsl_assert.o
                                     0x117999 (size before relaxing)
 .debug_str     0x000000000011a4c1      0xdd4 ./utilities/fsl_debug_console.o
                                     0x119120 (size before relaxing)
 .debug_str     0x000000000011b295      0xd24 ./startup/startup_mimxrt1021.o
                                       0x3bb8 (size before relaxing)
 .debug_str     0x000000000011bfb9      0x21e ./source/gpio_led_output.o
                                     0x119525 (size before relaxing)
 .debug_str     0x000000000011c1d7       0x1f ./source/semihost_hardfault.o
                                       0x2e4f (size before relaxing)
 .debug_str     0x000000000011c1f6     0x175c ./drivers/fsl_clock.o
                                     0x11995d (size before relaxing)
 .debug_str     0x000000000011d952       0x8b ./drivers/fsl_common_arm.o
                                     0x11784d (size before relaxing)
 .debug_str     0x000000000011d9dd      0x6d9 ./drivers/fsl_gpio.o
                                     0x118aa2 (size before relaxing)
 .debug_str     0x000000000011e0b6     0x1a81 ./drivers/fsl_lpuart.o
                                     0x11a455 (size before relaxing)
 .debug_str     0x000000000011fb37      0x1f3 ./device/system_MIMXRT1021.o
                                     0x115303 (size before relaxing)
 .debug_str     0x000000000011fd2a      0x152 ./component/uart/fsl_adapter_lpuart.o
                                     0x118ba6 (size before relaxing)
 .debug_str     0x000000000011fe7c     0xc27d ./board/board.o
                                     0x125420 (size before relaxing)
 .debug_str     0x000000000012c0f9      0x2e7 ./board/clock_config.o
                                     0x125b8a (size before relaxing)
 .debug_str     0x000000000012c3e0       0xaf ./board/pin_mux.o
                                     0x124085 (size before relaxing)

.comment        0x0000000000000000       0x49
 .comment       0x0000000000000000       0x49 ./xip/evkmimxrt1020_flexspi_nor_config.o
                                         0x4a (size before relaxing)
 .comment       0x0000000000000049       0x4a ./xip/fsl_flexspi_nor_boot.o
 .comment       0x0000000000000049       0x4a ./utilities/fsl_assert.o
 .comment       0x0000000000000049       0x4a ./utilities/fsl_debug_console.o
 .comment       0x0000000000000049       0x4a ./startup/startup_mimxrt1021.o
 .comment       0x0000000000000049       0x4a ./source/gpio_led_output.o
 .comment       0x0000000000000049       0x4a ./source/semihost_hardfault.o
 .comment       0x0000000000000049       0x4a ./drivers/fsl_clock.o
 .comment       0x0000000000000049       0x4a ./drivers/fsl_common_arm.o
 .comment       0x0000000000000049       0x4a ./drivers/fsl_gpio.o
 .comment       0x0000000000000049       0x4a ./drivers/fsl_lpuart.o
 .comment       0x0000000000000049       0x4a ./device/system_MIMXRT1021.o
 .comment       0x0000000000000049       0x4a ./component/uart/fsl_adapter_lpuart.o
 .comment       0x0000000000000049       0x4a ./board/board.o
 .comment       0x0000000000000049       0x4a ./board/clock_config.o
 .comment       0x0000000000000049       0x4a ./board/pin_mux.o
 .comment       0x0000000000000049       0x4a /usr/local/mcuxpressoide-11.6.1_8255/ide/plugins/com.nxp.mcuxpresso.tools.linux_11.6.1.202207200623/tools/bin/../lib/gcc/arm-none-eabi/10.3.1/../../../../arm-none-eabi/lib/thumb/v7e-m+dp/hard/libcr_nohost_nf.a(_cr__main.o)
 .comment       0x0000000000000049       0x4a /usr/local/mcuxpressoide-11.6.1_8255/ide/plugins/com.nxp.mcuxpresso.tools.linux_11.6.1.202207200623/tools/bin/../lib/gcc/arm-none-eabi/10.3.1/../../../../arm-none-eabi/lib/thumb/v7e-m+dp/hard/libcr_c.a(memcpy.o)
 .comment       0x0000000000000049       0x4a /usr/local/mcuxpressoide-11.6.1_8255/ide/plugins/com.nxp.mcuxpresso.tools.linux_11.6.1.202207200623/tools/bin/../lib/gcc/arm-none-eabi/10.3.1/../../../../arm-none-eabi/lib/thumb/v7e-m+dp/hard/libcr_c.a(memset.o)
 .comment       0x0000000000000049       0x4a /usr/local/mcuxpressoide-11.6.1_8255/ide/plugins/com.nxp.mcuxpresso.tools.linux_11.6.1.202207200623/tools/bin/../lib/gcc/arm-none-eabi/10.3.1/../../../../arm-none-eabi/lib/thumb/v7e-m+dp/hard/libcr_c.a(alloc.o)
 .comment       0x0000000000000049       0x4a /usr/local/mcuxpressoide-11.6.1_8255/ide/plugins/com.nxp.mcuxpresso.tools.linux_11.6.1.202207200623/tools/bin/../lib/gcc/arm-none-eabi/10.3.1/../../../../arm-none-eabi/lib/thumb/v7e-m+dp/hard/libcr_c.a(initio.o)
 .comment       0x0000000000000049       0x4a /usr/local/mcuxpressoide-11.6.1_8255/ide/plugins/com.nxp.mcuxpresso.tools.linux_11.6.1.202207200623/tools/bin/../lib/gcc/arm-none-eabi/10.3.1/../../../../arm-none-eabi/lib/thumb/v7e-m+dp/hard/libcr_c.a(setvbuf.o)
 .comment       0x0000000000000049       0x4a /usr/local/mcuxpressoide-11.6.1_8255/ide/plugins/com.nxp.mcuxpresso.tools.linux_11.6.1.202207200623/tools/bin/../lib/gcc/arm-none-eabi/10.3.1/../../../../arm-none-eabi/lib/thumb/v7e-m+dp/hard/libcr_c.a(strlen.o)
 .comment       0x0000000000000049       0x4a /usr/local/mcuxpressoide-11.6.1_8255/ide/plugins/com.nxp.mcuxpresso.tools.linux_11.6.1.202207200623/tools/bin/../lib/gcc/arm-none-eabi/10.3.1/../../../../arm-none-eabi/lib/thumb/v7e-m+dp/hard/libcr_c.a(_fdopen.o)
 .comment       0x0000000000000049       0x4a /usr/local/mcuxpressoide-11.6.1_8255/ide/plugins/com.nxp.mcuxpresso.tools.linux_11.6.1.202207200623/tools/bin/../lib/gcc/arm-none-eabi/10.3.1/../../../../arm-none-eabi/lib/thumb/v7e-m+dp/hard/libcr_c.a(errno.o)
 .comment       0x0000000000000049       0x4a /usr/local/mcuxpressoide-11.6.1_8255/ide/plugins/com.nxp.mcuxpresso.tools.linux_11.6.1.202207200623/tools/bin/../lib/gcc/arm-none-eabi/10.3.1/../../../../arm-none-eabi/lib/thumb/v7e-m+dp/hard/libcr_c.a(fclose.o)
 .comment       0x0000000000000049       0x4a /usr/local/mcuxpressoide-11.6.1_8255/ide/plugins/com.nxp.mcuxpresso.tools.linux_11.6.1.202207200623/tools/bin/../lib/gcc/arm-none-eabi/10.3.1/../../../../arm-none-eabi/lib/thumb/v7e-m+dp/hard/libcr_c.a(fflush.o)
 .comment       0x0000000000000049       0x4a /usr/local/mcuxpressoide-11.6.1_8255/ide/plugins/com.nxp.mcuxpresso.tools.linux_11.6.1.202207200623/tools/bin/../lib/gcc/arm-none-eabi/10.3.1/../../../../arm-none-eabi/lib/thumb/v7e-m+dp/hard/libcr_c.a(fseek.o)
 .comment       0x0000000000000049       0x4a /usr/local/mcuxpressoide-11.6.1_8255/ide/plugins/com.nxp.mcuxpresso.tools.linux_11.6.1.202207200623/tools/bin/../lib/gcc/arm-none-eabi/10.3.1/../../../../arm-none-eabi/lib/thumb/v7e-m+dp/hard/libcr_c.a(ftell.o)
 .comment       0x0000000000000049       0x4a /usr/local/mcuxpressoide-11.6.1_8255/ide/plugins/com.nxp.mcuxpresso.tools.linux_11.6.1.202207200623/tools/bin/../lib/gcc/arm-none-eabi/10.3.1/../../../../arm-none-eabi/lib/thumb/v7e-m+dp/hard/libcr_c.a(remove.o)
 .comment       0x0000000000000049       0x4a /usr/local/mcuxpressoide-11.6.1_8255/ide/plugins/com.nxp.mcuxpresso.tools.linux_11.6.1.202207200623/tools/bin/../lib/gcc/arm-none-eabi/10.3.1/../../../../arm-none-eabi/lib/thumb/v7e-m+dp/hard/libcr_c.a(_do_fflush.o)
 .comment       0x0000000000000049       0x4a /usr/local/mcuxpressoide-11.6.1_8255/ide/plugins/com.nxp.mcuxpresso.tools.linux_11.6.1.202207200623/tools/bin/../lib/gcc/arm-none-eabi/10.3.1/../../../../arm-none-eabi/lib/thumb/v7e-m+dp/hard/libcr_c.a(_fflush.o)
 .comment       0x0000000000000049       0x4a /usr/local/mcuxpressoide-11.6.1_8255/ide/plugins/com.nxp.mcuxpresso.tools.linux_11.6.1.202207200623/tools/bin/../lib/gcc/arm-none-eabi/10.3.1/../../../../arm-none-eabi/lib/thumb/v7e-m+dp/hard/libcr_c.a(_writebuf.o)
 .comment       0x0000000000000049       0x4a /usr/local/mcuxpressoide-11.6.1_8255/ide/plugins/com.nxp.mcuxpresso.tools.linux_11.6.1.202207200623/tools/bin/../lib/gcc/arm-none-eabi/10.3.1/../../../../arm-none-eabi/lib/thumb/v7e-m+dp/hard/libcr_c.a(_deferredlazyseek.o)
 .comment       0x0000000000000049       0x4a /usr/local/mcuxpressoide-11.6.1_8255/ide/plugins/com.nxp.mcuxpresso.tools.linux_11.6.1.202207200623/tools/bin/../lib/gcc/arm-none-eabi/10.3.1/../../../../arm-none-eabi/lib/thumb/v7e-m+dp/hard/libcr_nohost_nf.a(__ciob.o)
 .comment       0x0000000000000049       0x4a /usr/local/mcuxpressoide-11.6.1_8255/ide/plugins/com.nxp.mcuxpresso.tools.linux_11.6.1.202207200623/tools/bin/../lib/gcc/arm-none-eabi/10.3.1/../../../../arm-none-eabi/lib/thumb/v7e-m+dp/hard/libcr_nohost_nf.a(__sys_close.o)
 .comment       0x0000000000000049       0x4a /usr/local/mcuxpressoide-11.6.1_8255/ide/plugins/com.nxp.mcuxpresso.tools.linux_11.6.1.202207200623/tools/bin/../lib/gcc/arm-none-eabi/10.3.1/../../../../arm-none-eabi/lib/thumb/v7e-m+dp/hard/libcr_nohost_nf.a(__sys_flen.o)
 .comment       0x0000000000000049       0x4a /usr/local/mcuxpressoide-11.6.1_8255/ide/plugins/com.nxp.mcuxpresso.tools.linux_11.6.1.202207200623/tools/bin/../lib/gcc/arm-none-eabi/10.3.1/../../../../arm-none-eabi/lib/thumb/v7e-m+dp/hard/libcr_nohost_nf.a(__sys_istty.o)
 .comment       0x0000000000000049       0x4a /usr/local/mcuxpressoide-11.6.1_8255/ide/plugins/com.nxp.mcuxpresso.tools.linux_11.6.1.202207200623/tools/bin/../lib/gcc/arm-none-eabi/10.3.1/../../../../arm-none-eabi/lib/thumb/v7e-m+dp/hard/libcr_nohost_nf.a(__sys_remove.o)
 .comment       0x0000000000000049       0x4a /usr/local/mcuxpressoide-11.6.1_8255/ide/plugins/com.nxp.mcuxpresso.tools.linux_11.6.1.202207200623/tools/bin/../lib/gcc/arm-none-eabi/10.3.1/../../../../arm-none-eabi/lib/thumb/v7e-m+dp/hard/libcr_nohost_nf.a(__sys_seek.o)
 .comment       0x0000000000000049       0x4a /usr/local/mcuxpressoide-11.6.1_8255/ide/plugins/com.nxp.mcuxpresso.tools.linux_11.6.1.202207200623/tools/bin/../lib/gcc/arm-none-eabi/10.3.1/../../../../arm-none-eabi/lib/thumb/v7e-m+dp/hard/libcr_nohost_nf.a(__sys_tmpnam.o)
 .comment       0x0000000000000049       0x4a /usr/local/mcuxpressoide-11.6.1_8255/ide/plugins/com.nxp.mcuxpresso.tools.linux_11.6.1.202207200623/tools/bin/../lib/gcc/arm-none-eabi/10.3.1/../../../../arm-none-eabi/lib/thumb/v7e-m+dp/hard/libcr_nohost_nf.a(__sys_write.o)

.ARM.attributes
                0x0000000000000000       0x30
 .ARM.attributes
                0x0000000000000000       0x32 ./xip/evkmimxrt1020_flexspi_nor_config.o
 .ARM.attributes
                0x0000000000000032       0x32 ./xip/fsl_flexspi_nor_boot.o
 .ARM.attributes
                0x0000000000000064       0x32 ./utilities/fsl_assert.o
 .ARM.attributes
                0x0000000000000096       0x32 ./utilities/fsl_debug_console.o
 .ARM.attributes
                0x00000000000000c8       0x32 ./startup/startup_mimxrt1021.o
 .ARM.attributes
                0x00000000000000fa       0x32 ./source/gpio_led_output.o
 .ARM.attributes
                0x000000000000012c       0x32 ./source/semihost_hardfault.o
 .ARM.attributes
                0x000000000000015e       0x32 ./drivers/fsl_clock.o
 .ARM.attributes
                0x0000000000000190       0x32 ./drivers/fsl_common_arm.o
 .ARM.attributes
                0x00000000000001c2       0x32 ./drivers/fsl_gpio.o
 .ARM.attributes
                0x00000000000001f4       0x32 ./drivers/fsl_lpuart.o
 .ARM.attributes
                0x0000000000000226       0x32 ./device/system_MIMXRT1021.o
 .ARM.attributes
                0x0000000000000258       0x32 ./component/uart/fsl_adapter_lpuart.o
 .ARM.attributes
                0x000000000000028a       0x32 ./board/board.o
 .ARM.attributes
                0x00000000000002bc       0x32 ./board/clock_config.o
 .ARM.attributes
                0x00000000000002ee       0x32 ./board/pin_mux.o
 .ARM.attributes
                0x0000000000000320       0x32 /usr/local/mcuxpressoide-11.6.1_8255/ide/plugins/com.nxp.mcuxpresso.tools.linux_11.6.1.202207200623/tools/bin/../lib/gcc/arm-none-eabi/10.3.1/../../../../arm-none-eabi/lib/thumb/v7e-m+dp/hard/libcr_nohost_nf.a(_cr__main.o)
 .ARM.attributes
                0x0000000000000352       0x32 /usr/local/mcuxpressoide-11.6.1_8255/ide/plugins/com.nxp.mcuxpresso.tools.linux_11.6.1.202207200623/tools/bin/../lib/gcc/arm-none-eabi/10.3.1/../../../../arm-none-eabi/lib/thumb/v7e-m+dp/hard/libcr_c.a(memcpy.o)
 .ARM.attributes
                0x0000000000000384       0x32 /usr/local/mcuxpressoide-11.6.1_8255/ide/plugins/com.nxp.mcuxpresso.tools.linux_11.6.1.202207200623/tools/bin/../lib/gcc/arm-none-eabi/10.3.1/../../../../arm-none-eabi/lib/thumb/v7e-m+dp/hard/libcr_c.a(memset.o)
 .ARM.attributes
                0x00000000000003b6       0x32 /usr/local/mcuxpressoide-11.6.1_8255/ide/plugins/com.nxp.mcuxpresso.tools.linux_11.6.1.202207200623/tools/bin/../lib/gcc/arm-none-eabi/10.3.1/../../../../arm-none-eabi/lib/thumb/v7e-m+dp/hard/libcr_c.a(alloc.o)
 .ARM.attributes
                0x00000000000003e8       0x32 /usr/local/mcuxpressoide-11.6.1_8255/ide/plugins/com.nxp.mcuxpresso.tools.linux_11.6.1.202207200623/tools/bin/../lib/gcc/arm-none-eabi/10.3.1/../../../../arm-none-eabi/lib/thumb/v7e-m+dp/hard/libcr_c.a(initio.o)
 .ARM.attributes
                0x000000000000041a       0x32 /usr/local/mcuxpressoide-11.6.1_8255/ide/plugins/com.nxp.mcuxpresso.tools.linux_11.6.1.202207200623/tools/bin/../lib/gcc/arm-none-eabi/10.3.1/../../../../arm-none-eabi/lib/thumb/v7e-m+dp/hard/libcr_c.a(setvbuf.o)
 .ARM.attributes
                0x000000000000044c       0x32 /usr/local/mcuxpressoide-11.6.1_8255/ide/plugins/com.nxp.mcuxpresso.tools.linux_11.6.1.202207200623/tools/bin/../lib/gcc/arm-none-eabi/10.3.1/../../../../arm-none-eabi/lib/thumb/v7e-m+dp/hard/libcr_c.a(strlen.o)
 .ARM.attributes
                0x000000000000047e       0x32 /usr/local/mcuxpressoide-11.6.1_8255/ide/plugins/com.nxp.mcuxpresso.tools.linux_11.6.1.202207200623/tools/bin/../lib/gcc/arm-none-eabi/10.3.1/../../../../arm-none-eabi/lib/thumb/v7e-m+dp/hard/libcr_c.a(_fdopen.o)
 .ARM.attributes
                0x00000000000004b0       0x32 /usr/local/mcuxpressoide-11.6.1_8255/ide/plugins/com.nxp.mcuxpresso.tools.linux_11.6.1.202207200623/tools/bin/../lib/gcc/arm-none-eabi/10.3.1/../../../../arm-none-eabi/lib/thumb/v7e-m+dp/hard/libcr_c.a(errno.o)
 .ARM.attributes
                0x00000000000004e2       0x32 /usr/local/mcuxpressoide-11.6.1_8255/ide/plugins/com.nxp.mcuxpresso.tools.linux_11.6.1.202207200623/tools/bin/../lib/gcc/arm-none-eabi/10.3.1/../../../../arm-none-eabi/lib/thumb/v7e-m+dp/hard/libcr_c.a(fclose.o)
 .ARM.attributes
                0x0000000000000514       0x32 /usr/local/mcuxpressoide-11.6.1_8255/ide/plugins/com.nxp.mcuxpresso.tools.linux_11.6.1.202207200623/tools/bin/../lib/gcc/arm-none-eabi/10.3.1/../../../../arm-none-eabi/lib/thumb/v7e-m+dp/hard/libcr_c.a(fflush.o)
 .ARM.attributes
                0x0000000000000546       0x32 /usr/local/mcuxpressoide-11.6.1_8255/ide/plugins/com.nxp.mcuxpresso.tools.linux_11.6.1.202207200623/tools/bin/../lib/gcc/arm-none-eabi/10.3.1/../../../../arm-none-eabi/lib/thumb/v7e-m+dp/hard/libcr_c.a(fseek.o)
 .ARM.attributes
                0x0000000000000578       0x32 /usr/local/mcuxpressoide-11.6.1_8255/ide/plugins/com.nxp.mcuxpresso.tools.linux_11.6.1.202207200623/tools/bin/../lib/gcc/arm-none-eabi/10.3.1/../../../../arm-none-eabi/lib/thumb/v7e-m+dp/hard/libcr_c.a(ftell.o)
 .ARM.attributes
                0x00000000000005aa       0x32 /usr/local/mcuxpressoide-11.6.1_8255/ide/plugins/com.nxp.mcuxpresso.tools.linux_11.6.1.202207200623/tools/bin/../lib/gcc/arm-none-eabi/10.3.1/../../../../arm-none-eabi/lib/thumb/v7e-m+dp/hard/libcr_c.a(remove.o)
 .ARM.attributes
                0x00000000000005dc       0x32 /usr/local/mcuxpressoide-11.6.1_8255/ide/plugins/com.nxp.mcuxpresso.tools.linux_11.6.1.202207200623/tools/bin/../lib/gcc/arm-none-eabi/10.3.1/../../../../arm-none-eabi/lib/thumb/v7e-m+dp/hard/libcr_c.a(_do_fflush.o)
 .ARM.attributes
                0x000000000000060e       0x32 /usr/local/mcuxpressoide-11.6.1_8255/ide/plugins/com.nxp.mcuxpresso.tools.linux_11.6.1.202207200623/tools/bin/../lib/gcc/arm-none-eabi/10.3.1/../../../../arm-none-eabi/lib/thumb/v7e-m+dp/hard/libcr_c.a(_fflush.o)
 .ARM.attributes
                0x0000000000000640       0x32 /usr/local/mcuxpressoide-11.6.1_8255/ide/plugins/com.nxp.mcuxpresso.tools.linux_11.6.1.202207200623/tools/bin/../lib/gcc/arm-none-eabi/10.3.1/../../../../arm-none-eabi/lib/thumb/v7e-m+dp/hard/libcr_c.a(_writebuf.o)
 .ARM.attributes
                0x0000000000000672       0x32 /usr/local/mcuxpressoide-11.6.1_8255/ide/plugins/com.nxp.mcuxpresso.tools.linux_11.6.1.202207200623/tools/bin/../lib/gcc/arm-none-eabi/10.3.1/../../../../arm-none-eabi/lib/thumb/v7e-m+dp/hard/libcr_c.a(_deferredlazyseek.o)
 .ARM.attributes
                0x00000000000006a4       0x1e /usr/local/mcuxpressoide-11.6.1_8255/ide/plugins/com.nxp.mcuxpresso.tools.linux_11.6.1.202207200623/tools/bin/../lib/gcc/arm-none-eabi/10.3.1/thumb/v7e-m+dp/hard/libcr_eabihelpers.a(division_64.o)
 .ARM.attributes
                0x00000000000006c2       0x1e /usr/local/mcuxpressoide-11.6.1_8255/ide/plugins/com.nxp.mcuxpresso.tools.linux_11.6.1.202207200623/tools/bin/../lib/gcc/arm-none-eabi/10.3.1/thumb/v7e-m+dp/hard/libcr_eabihelpers.a(division_idiv0.o)
 .ARM.attributes
                0x00000000000006e0       0x1e /usr/local/mcuxpressoide-11.6.1_8255/ide/plugins/com.nxp.mcuxpresso.tools.linux_11.6.1.202207200623/tools/bin/../lib/gcc/arm-none-eabi/10.3.1/thumb/v7e-m+dp/hard/libcr_eabihelpers.a(memcpy.o)
 .ARM.attributes
                0x00000000000006fe       0x32 /usr/local/mcuxpressoide-11.6.1_8255/ide/plugins/com.nxp.mcuxpresso.tools.linux_11.6.1.202207200623/tools/bin/../lib/gcc/arm-none-eabi/10.3.1/../../../../arm-none-eabi/lib/thumb/v7e-m+dp/hard/libcr_nohost_nf.a(__ciob.o)
 .ARM.attributes
                0x0000000000000730       0x32 /usr/local/mcuxpressoide-11.6.1_8255/ide/plugins/com.nxp.mcuxpresso.tools.linux_11.6.1.202207200623/tools/bin/../lib/gcc/arm-none-eabi/10.3.1/../../../../arm-none-eabi/lib/thumb/v7e-m+dp/hard/libcr_nohost_nf.a(__sys_close.o)
 .ARM.attributes
                0x0000000000000762       0x32 /usr/local/mcuxpressoide-11.6.1_8255/ide/plugins/com.nxp.mcuxpresso.tools.linux_11.6.1.202207200623/tools/bin/../lib/gcc/arm-none-eabi/10.3.1/../../../../arm-none-eabi/lib/thumb/v7e-m+dp/hard/libcr_nohost_nf.a(__sys_flen.o)
 .ARM.attributes
                0x0000000000000794       0x32 /usr/local/mcuxpressoide-11.6.1_8255/ide/plugins/com.nxp.mcuxpresso.tools.linux_11.6.1.202207200623/tools/bin/../lib/gcc/arm-none-eabi/10.3.1/../../../../arm-none-eabi/lib/thumb/v7e-m+dp/hard/libcr_nohost_nf.a(__sys_istty.o)
 .ARM.attributes
                0x00000000000007c6       0x32 /usr/local/mcuxpressoide-11.6.1_8255/ide/plugins/com.nxp.mcuxpresso.tools.linux_11.6.1.202207200623/tools/bin/../lib/gcc/arm-none-eabi/10.3.1/../../../../arm-none-eabi/lib/thumb/v7e-m+dp/hard/libcr_nohost_nf.a(__sys_remove.o)
 .ARM.attributes
                0x00000000000007f8       0x32 /usr/local/mcuxpressoide-11.6.1_8255/ide/plugins/com.nxp.mcuxpresso.tools.linux_11.6.1.202207200623/tools/bin/../lib/gcc/arm-none-eabi/10.3.1/../../../../arm-none-eabi/lib/thumb/v7e-m+dp/hard/libcr_nohost_nf.a(__sys_seek.o)
 .ARM.attributes
                0x000000000000082a       0x32 /usr/local/mcuxpressoide-11.6.1_8255/ide/plugins/com.nxp.mcuxpresso.tools.linux_11.6.1.202207200623/tools/bin/../lib/gcc/arm-none-eabi/10.3.1/../../../../arm-none-eabi/lib/thumb/v7e-m+dp/hard/libcr_nohost_nf.a(__sys_tmpnam.o)
 .ARM.attributes
                0x000000000000085c       0x32 /usr/local/mcuxpressoide-11.6.1_8255/ide/plugins/com.nxp.mcuxpresso.tools.linux_11.6.1.202207200623/tools/bin/../lib/gcc/arm-none-eabi/10.3.1/../../../../arm-none-eabi/lib/thumb/v7e-m+dp/hard/libcr_nohost_nf.a(__sys_write.o)

.debug_ranges   0x0000000000000000      0xa08
 .debug_ranges  0x0000000000000000       0x10 ./utilities/fsl_assert.o
 .debug_ranges  0x0000000000000010       0x68 ./utilities/fsl_debug_console.o
 .debug_ranges  0x0000000000000078      0x4e0 ./startup/startup_mimxrt1021.o
 .debug_ranges  0x0000000000000558       0x18 ./source/gpio_led_output.o
 .debug_ranges  0x0000000000000570       0x10 ./source/semihost_hardfault.o
 .debug_ranges  0x0000000000000580      0x158 ./drivers/fsl_clock.o
 .debug_ranges  0x00000000000006d8       0x18 ./drivers/fsl_common_arm.o
 .debug_ranges  0x00000000000006f0       0x48 ./drivers/fsl_gpio.o
 .debug_ranges  0x0000000000000738      0x178 ./drivers/fsl_lpuart.o
 .debug_ranges  0x00000000000008b0       0x20 ./device/system_MIMXRT1021.o
 .debug_ranges  0x00000000000008d0       0x48 ./component/uart/fsl_adapter_lpuart.o
 .debug_ranges  0x0000000000000918       0x48 ./board/board.o
 .debug_ranges  0x0000000000000960       0x68 ./board/clock_config.o
 .debug_ranges  0x00000000000009c8       0x40 ./board/pin_mux.o

.debug_frame    0x0000000000000000     0x24c0
 .debug_frame   0x0000000000000000       0x30 ./utilities/fsl_assert.o
 .debug_frame   0x0000000000000030      0x1f8 ./utilities/fsl_debug_console.o
 .debug_frame   0x0000000000000228      0xe3c ./startup/startup_mimxrt1021.o
 .debug_frame   0x0000000000001064       0x58 ./source/gpio_led_output.o
 .debug_frame   0x00000000000010bc       0x20 ./source/semihost_hardfault.o
 .debug_frame   0x00000000000010dc      0x604 ./drivers/fsl_clock.o
 .debug_frame   0x00000000000016e0       0x68 ./drivers/fsl_common_arm.o
 .debug_frame   0x0000000000001748      0x138 ./drivers/fsl_gpio.o
 .debug_frame   0x0000000000001880      0x67c ./drivers/fsl_lpuart.o
 .debug_frame   0x0000000000001efc       0x78 ./device/system_MIMXRT1021.o
 .debug_frame   0x0000000000001f74      0x138 ./component/uart/fsl_adapter_lpuart.o
 .debug_frame   0x00000000000020ac      0x13c ./board/board.o
 .debug_frame   0x00000000000021e8      0x1c8 ./board/clock_config.o
 .debug_frame   0x00000000000023b0      0x110 ./board/pin_mux.o

Cross Reference Table

Symbol                                            File
ACMP1_DriverIRQHandler                            ./startup/startup_mimxrt1021.o
ACMP1_IRQHandler                                  ./startup/startup_mimxrt1021.o
ACMP2_DriverIRQHandler                            ./startup/startup_mimxrt1021.o
ACMP2_IRQHandler                                  ./startup/startup_mimxrt1021.o
ACMP3_DriverIRQHandler                            ./startup/startup_mimxrt1021.o
ACMP3_IRQHandler                                  ./startup/startup_mimxrt1021.o
ACMP4_DriverIRQHandler                            ./startup/startup_mimxrt1021.o
ACMP4_IRQHandler                                  ./startup/startup_mimxrt1021.o
ADC1_DriverIRQHandler                             ./startup/startup_mimxrt1021.o
ADC1_IRQHandler                                   ./startup/startup_mimxrt1021.o
ADC2_DriverIRQHandler                             ./startup/startup_mimxrt1021.o
ADC2_IRQHandler                                   ./startup/startup_mimxrt1021.o
ADC_ETC_ERROR_IRQ_DriverIRQHandler                ./startup/startup_mimxrt1021.o
ADC_ETC_ERROR_IRQ_IRQHandler                      ./startup/startup_mimxrt1021.o
ADC_ETC_IRQ0_DriverIRQHandler                     ./startup/startup_mimxrt1021.o
ADC_ETC_IRQ0_IRQHandler                           ./startup/startup_mimxrt1021.o
ADC_ETC_IRQ1_DriverIRQHandler                     ./startup/startup_mimxrt1021.o
ADC_ETC_IRQ1_IRQHandler                           ./startup/startup_mimxrt1021.o
ADC_ETC_IRQ2_DriverIRQHandler                     ./startup/startup_mimxrt1021.o
ADC_ETC_IRQ2_IRQHandler                           ./startup/startup_mimxrt1021.o
BEE_DriverIRQHandler                              ./startup/startup_mimxrt1021.o
BEE_IRQHandler                                    ./startup/startup_mimxrt1021.o
BOARD_BootClockRUN                                ./board/clock_config.o
BOARD_ConfigMPU                                   ./board/board.o
                                                  ./source/gpio_led_output.o
BOARD_DebugConsoleSrcFreq                         ./board/board.o
BOARD_InitBootClocks                              ./board/clock_config.o
                                                  ./source/gpio_led_output.o
BOARD_InitBootPins                                ./board/pin_mux.o
                                                  ./source/gpio_led_output.o
BOARD_InitDebugConsole                            ./board/board.o
                                                  ./source/gpio_led_output.o
BOARD_InitPins                                    ./board/pin_mux.o
BusFault_Handler                                  ./startup/startup_mimxrt1021.o
CAN1_DriverIRQHandler                             ./startup/startup_mimxrt1021.o
CAN1_IRQHandler                                   ./startup/startup_mimxrt1021.o
CAN2_DriverIRQHandler                             ./startup/startup_mimxrt1021.o
CAN2_IRQHandler                                   ./startup/startup_mimxrt1021.o
CCM_1_DriverIRQHandler                            ./startup/startup_mimxrt1021.o
CCM_1_IRQHandler                                  ./startup/startup_mimxrt1021.o
CCM_2_DriverIRQHandler                            ./startup/startup_mimxrt1021.o
CCM_2_IRQHandler                                  ./startup/startup_mimxrt1021.o
CLOCK_DeinitAudioPll                              ./drivers/fsl_clock.o
                                                  ./board/clock_config.o
CLOCK_DeinitEnetPll                               ./drivers/fsl_clock.o
CLOCK_DeinitExternalClk                           ./drivers/fsl_clock.o
CLOCK_DeinitRcOsc24M                              ./drivers/fsl_clock.o
CLOCK_DeinitSysPfd                                ./drivers/fsl_clock.o
CLOCK_DeinitSysPll                                ./drivers/fsl_clock.o
CLOCK_DeinitUsb1Pfd                               ./drivers/fsl_clock.o
CLOCK_DeinitUsb1Pll                               ./drivers/fsl_clock.o
CLOCK_DisableUsbhs0PhyPllClock                    ./drivers/fsl_clock.o
CLOCK_EnableUsbhs0Clock                           ./drivers/fsl_clock.o
CLOCK_EnableUsbhs0PhyPllClock                     ./drivers/fsl_clock.o
CLOCK_GetAhbFreq                                  ./drivers/fsl_clock.o
CLOCK_GetClockOutCLKO1Freq                        ./drivers/fsl_clock.o
CLOCK_GetClockOutClkO2Freq                        ./drivers/fsl_clock.o
CLOCK_GetClockRootFreq                            ./drivers/fsl_clock.o
CLOCK_GetFreq                                     ./drivers/fsl_clock.o
CLOCK_GetIpgFreq                                  ./drivers/fsl_clock.o
CLOCK_GetPerClkFreq                               ./drivers/fsl_clock.o
CLOCK_GetPllFreq                                  ./drivers/fsl_clock.o
                                                  ./board/board.o
CLOCK_GetSemcFreq                                 ./drivers/fsl_clock.o
CLOCK_GetSysPfdFreq                               ./drivers/fsl_clock.o
CLOCK_GetUsb1PfdFreq                              ./drivers/fsl_clock.o
CLOCK_InitAudioPll                                ./drivers/fsl_clock.o
CLOCK_InitEnetPll                                 ./drivers/fsl_clock.o
                                                  ./board/clock_config.o
CLOCK_InitExternalClk                             ./drivers/fsl_clock.o
                                                  ./board/clock_config.o
CLOCK_InitRcOsc24M                                ./drivers/fsl_clock.o
                                                  ./board/clock_config.o
CLOCK_InitSysPfd                                  ./drivers/fsl_clock.o
                                                  ./board/clock_config.o
CLOCK_InitSysPll                                  ./drivers/fsl_clock.o
                                                  ./board/clock_config.o
CLOCK_InitUsb1Pfd                                 ./drivers/fsl_clock.o
CLOCK_InitUsb1Pll                                 ./drivers/fsl_clock.o
CLOCK_IsSysPfdEnabled                             ./drivers/fsl_clock.o
CLOCK_IsUsb1PfdEnabled                            ./drivers/fsl_clock.o
CLOCK_SetClockOutput1                             ./drivers/fsl_clock.o
CLOCK_SetClockOutput2                             ./drivers/fsl_clock.o
CLOCK_SwitchOsc                                   ./drivers/fsl_clock.o
                                                  ./board/clock_config.o
CORE_DriverIRQHandler                             ./startup/startup_mimxrt1021.o
CORE_IRQHandler                                   ./startup/startup_mimxrt1021.o
CSU_DriverIRQHandler                              ./startup/startup_mimxrt1021.o
CSU_IRQHandler                                    ./startup/startup_mimxrt1021.o
CTI0_ERROR_DriverIRQHandler                       ./startup/startup_mimxrt1021.o
CTI0_ERROR_IRQHandler                             ./startup/startup_mimxrt1021.o
CTI1_ERROR_DriverIRQHandler                       ./startup/startup_mimxrt1021.o
CTI1_ERROR_IRQHandler                             ./startup/startup_mimxrt1021.o
DCDC_DriverIRQHandler                             ./startup/startup_mimxrt1021.o
DCDC_IRQHandler                                   ./startup/startup_mimxrt1021.o
DCP_DriverIRQHandler                              ./startup/startup_mimxrt1021.o
DCP_IRQHandler                                    ./startup/startup_mimxrt1021.o
DCP_VMI_DriverIRQHandler                          ./startup/startup_mimxrt1021.o
DCP_VMI_IRQHandler                                ./startup/startup_mimxrt1021.o
DMA0_DMA16_DriverIRQHandler                       ./startup/startup_mimxrt1021.o
DMA0_DMA16_IRQHandler                             ./startup/startup_mimxrt1021.o
DMA10_DMA26_DriverIRQHandler                      ./startup/startup_mimxrt1021.o
DMA10_DMA26_IRQHandler                            ./startup/startup_mimxrt1021.o
DMA11_DMA27_DriverIRQHandler                      ./startup/startup_mimxrt1021.o
DMA11_DMA27_IRQHandler                            ./startup/startup_mimxrt1021.o
DMA12_DMA28_DriverIRQHandler                      ./startup/startup_mimxrt1021.o
DMA12_DMA28_IRQHandler                            ./startup/startup_mimxrt1021.o
DMA13_DMA29_DriverIRQHandler                      ./startup/startup_mimxrt1021.o
DMA13_DMA29_IRQHandler                            ./startup/startup_mimxrt1021.o
DMA14_DMA30_DriverIRQHandler                      ./startup/startup_mimxrt1021.o
DMA14_DMA30_IRQHandler                            ./startup/startup_mimxrt1021.o
DMA15_DMA31_DriverIRQHandler                      ./startup/startup_mimxrt1021.o
DMA15_DMA31_IRQHandler                            ./startup/startup_mimxrt1021.o
DMA1_DMA17_DriverIRQHandler                       ./startup/startup_mimxrt1021.o
DMA1_DMA17_IRQHandler                             ./startup/startup_mimxrt1021.o
DMA2_DMA18_DriverIRQHandler                       ./startup/startup_mimxrt1021.o
DMA2_DMA18_IRQHandler                             ./startup/startup_mimxrt1021.o
DMA3_DMA19_DriverIRQHandler                       ./startup/startup_mimxrt1021.o
DMA3_DMA19_IRQHandler                             ./startup/startup_mimxrt1021.o
DMA4_DMA20_DriverIRQHandler                       ./startup/startup_mimxrt1021.o
DMA4_DMA20_IRQHandler                             ./startup/startup_mimxrt1021.o
DMA5_DMA21_DriverIRQHandler                       ./startup/startup_mimxrt1021.o
DMA5_DMA21_IRQHandler                             ./startup/startup_mimxrt1021.o
DMA6_DMA22_DriverIRQHandler                       ./startup/startup_mimxrt1021.o
DMA6_DMA22_IRQHandler                             ./startup/startup_mimxrt1021.o
DMA7_DMA23_DriverIRQHandler                       ./startup/startup_mimxrt1021.o
DMA7_DMA23_IRQHandler                             ./startup/startup_mimxrt1021.o
DMA8_DMA24_DriverIRQHandler                       ./startup/startup_mimxrt1021.o
DMA8_DMA24_IRQHandler                             ./startup/startup_mimxrt1021.o
DMA9_DMA25_DriverIRQHandler                       ./startup/startup_mimxrt1021.o
DMA9_DMA25_IRQHandler                             ./startup/startup_mimxrt1021.o
DMA_ERROR_DriverIRQHandler                        ./startup/startup_mimxrt1021.o
DMA_ERROR_IRQHandler                              ./startup/startup_mimxrt1021.o
DbgConsole_Deinit                                 ./utilities/fsl_debug_console.o
DbgConsole_Getchar                                ./utilities/fsl_debug_console.o
DbgConsole_Init                                   ./utilities/fsl_debug_console.o
                                                  ./board/board.o
DbgConsole_Printf                                 ./utilities/fsl_debug_console.o
                                                  ./source/gpio_led_output.o
                                                  ./utilities/fsl_assert.o
DbgConsole_Putchar                                ./utilities/fsl_debug_console.o
DbgConsole_Scanf                                  ./utilities/fsl_debug_console.o
DbgConsole_Vprintf                                ./utilities/fsl_debug_console.o
DebugMon_Handler                                  ./startup/startup_mimxrt1021.o
ENC1_DriverIRQHandler                             ./startup/startup_mimxrt1021.o
ENC1_IRQHandler                                   ./startup/startup_mimxrt1021.o
ENC2_DriverIRQHandler                             ./startup/startup_mimxrt1021.o
ENC2_IRQHandler                                   ./startup/startup_mimxrt1021.o
ENET_1588_Timer_DriverIRQHandler                  ./startup/startup_mimxrt1021.o
ENET_1588_Timer_IRQHandler                        ./startup/startup_mimxrt1021.o
ENET_DriverIRQHandler                             ./startup/startup_mimxrt1021.o
ENET_IRQHandler                                   ./startup/startup_mimxrt1021.o
EWM_DriverIRQHandler                              ./startup/startup_mimxrt1021.o
EWM_IRQHandler                                    ./startup/startup_mimxrt1021.o
FLEXIO1_DriverIRQHandler                          ./startup/startup_mimxrt1021.o
FLEXIO1_IRQHandler                                ./startup/startup_mimxrt1021.o
FLEXRAM_DriverIRQHandler                          ./startup/startup_mimxrt1021.o
FLEXRAM_IRQHandler                                ./startup/startup_mimxrt1021.o
FLEXSPI_DriverIRQHandler                          ./startup/startup_mimxrt1021.o
FLEXSPI_IRQHandler                                ./startup/startup_mimxrt1021.o
GPC_DriverIRQHandler                              ./startup/startup_mimxrt1021.o
GPC_IRQHandler                                    ./startup/startup_mimxrt1021.o
GPIO1_Combined_0_15_DriverIRQHandler              ./startup/startup_mimxrt1021.o
GPIO1_Combined_0_15_IRQHandler                    ./startup/startup_mimxrt1021.o
GPIO1_Combined_16_31_DriverIRQHandler             ./startup/startup_mimxrt1021.o
GPIO1_Combined_16_31_IRQHandler                   ./startup/startup_mimxrt1021.o
GPIO1_INT0_DriverIRQHandler                       ./startup/startup_mimxrt1021.o
GPIO1_INT0_IRQHandler                             ./startup/startup_mimxrt1021.o
GPIO1_INT1_DriverIRQHandler                       ./startup/startup_mimxrt1021.o
GPIO1_INT1_IRQHandler                             ./startup/startup_mimxrt1021.o
GPIO1_INT2_DriverIRQHandler                       ./startup/startup_mimxrt1021.o
GPIO1_INT2_IRQHandler                             ./startup/startup_mimxrt1021.o
GPIO1_INT3_DriverIRQHandler                       ./startup/startup_mimxrt1021.o
GPIO1_INT3_IRQHandler                             ./startup/startup_mimxrt1021.o
GPIO1_INT4_DriverIRQHandler                       ./startup/startup_mimxrt1021.o
GPIO1_INT4_IRQHandler                             ./startup/startup_mimxrt1021.o
GPIO1_INT5_DriverIRQHandler                       ./startup/startup_mimxrt1021.o
GPIO1_INT5_IRQHandler                             ./startup/startup_mimxrt1021.o
GPIO1_INT6_DriverIRQHandler                       ./startup/startup_mimxrt1021.o
GPIO1_INT6_IRQHandler                             ./startup/startup_mimxrt1021.o
GPIO1_INT7_DriverIRQHandler                       ./startup/startup_mimxrt1021.o
GPIO1_INT7_IRQHandler                             ./startup/startup_mimxrt1021.o
GPIO2_Combined_0_15_DriverIRQHandler              ./startup/startup_mimxrt1021.o
GPIO2_Combined_0_15_IRQHandler                    ./startup/startup_mimxrt1021.o
GPIO2_Combined_16_31_DriverIRQHandler             ./startup/startup_mimxrt1021.o
GPIO2_Combined_16_31_IRQHandler                   ./startup/startup_mimxrt1021.o
GPIO3_Combined_0_15_DriverIRQHandler              ./startup/startup_mimxrt1021.o
GPIO3_Combined_0_15_IRQHandler                    ./startup/startup_mimxrt1021.o
GPIO3_Combined_16_31_DriverIRQHandler             ./startup/startup_mimxrt1021.o
GPIO3_Combined_16_31_IRQHandler                   ./startup/startup_mimxrt1021.o
GPIO5_Combined_0_15_DriverIRQHandler              ./startup/startup_mimxrt1021.o
GPIO5_Combined_0_15_IRQHandler                    ./startup/startup_mimxrt1021.o
GPIO5_Combined_16_31_DriverIRQHandler             ./startup/startup_mimxrt1021.o
GPIO5_Combined_16_31_IRQHandler                   ./startup/startup_mimxrt1021.o
GPIO_PinInit                                      ./drivers/fsl_gpio.o
                                                  ./source/gpio_led_output.o
GPIO_PinSetInterruptConfig                        ./drivers/fsl_gpio.o
GPIO_PinWrite                                     ./drivers/fsl_gpio.o
GPR_IRQ_DriverIRQHandler                          ./startup/startup_mimxrt1021.o
GPR_IRQ_IRQHandler                                ./startup/startup_mimxrt1021.o
GPT1_DriverIRQHandler                             ./startup/startup_mimxrt1021.o
GPT1_IRQHandler                                   ./startup/startup_mimxrt1021.o
GPT2_DriverIRQHandler                             ./startup/startup_mimxrt1021.o
GPT2_IRQHandler                                   ./startup/startup_mimxrt1021.o
HAL_UartDeinit                                    ./component/uart/fsl_adapter_lpuart.o
                                                  ./utilities/fsl_debug_console.o
HAL_UartEnterLowpower                             ./component/uart/fsl_adapter_lpuart.o
HAL_UartExitLowpower                              ./component/uart/fsl_adapter_lpuart.o
HAL_UartInit                                      ./component/uart/fsl_adapter_lpuart.o
                                                  ./utilities/fsl_debug_console.o
HAL_UartReceiveBlocking                           ./component/uart/fsl_adapter_lpuart.o
                                                  ./utilities/fsl_debug_console.o
HAL_UartSendBlocking                              ./component/uart/fsl_adapter_lpuart.o
                                                  ./utilities/fsl_debug_console.o
HardFault_Handler                                 ./source/semihost_hardfault.o
                                                  ./startup/startup_mimxrt1021.o
IntDefaultHandler                                 ./startup/startup_mimxrt1021.o
KPP_DriverIRQHandler                              ./startup/startup_mimxrt1021.o
KPP_IRQHandler                                    ./startup/startup_mimxrt1021.o
LIST_AddHead                                      ./component/lists/fsl_component_generic_list.o
LIST_AddPrevElement                               ./component/lists/fsl_component_generic_list.o
LIST_AddTail                                      ./component/lists/fsl_component_generic_list.o
LIST_GetAvailableSize                             ./component/lists/fsl_component_generic_list.o
LIST_GetHead                                      ./component/lists/fsl_component_generic_list.o
LIST_GetList                                      ./component/lists/fsl_component_generic_list.o
LIST_GetNext                                      ./component/lists/fsl_component_generic_list.o
LIST_GetPrev                                      ./component/lists/fsl_component_generic_list.o
LIST_GetSize                                      ./component/lists/fsl_component_generic_list.o
LIST_Init                                         ./component/lists/fsl_component_generic_list.o
LIST_RemoveElement                                ./component/lists/fsl_component_generic_list.o
LIST_RemoveHead                                   ./component/lists/fsl_component_generic_list.o
LPI2C1_DriverIRQHandler                           ./startup/startup_mimxrt1021.o
LPI2C1_IRQHandler                                 ./startup/startup_mimxrt1021.o
LPI2C2_DriverIRQHandler                           ./startup/startup_mimxrt1021.o
LPI2C2_IRQHandler                                 ./startup/startup_mimxrt1021.o
LPI2C3_DriverIRQHandler                           ./startup/startup_mimxrt1021.o
LPI2C3_IRQHandler                                 ./startup/startup_mimxrt1021.o
LPI2C4_DriverIRQHandler                           ./startup/startup_mimxrt1021.o
LPI2C4_IRQHandler                                 ./startup/startup_mimxrt1021.o
LPSPI1_DriverIRQHandler                           ./startup/startup_mimxrt1021.o
LPSPI1_IRQHandler                                 ./startup/startup_mimxrt1021.o
LPSPI2_DriverIRQHandler                           ./startup/startup_mimxrt1021.o
LPSPI2_IRQHandler                                 ./startup/startup_mimxrt1021.o
LPSPI3_DriverIRQHandler                           ./startup/startup_mimxrt1021.o
LPSPI3_IRQHandler                                 ./startup/startup_mimxrt1021.o
LPSPI4_DriverIRQHandler                           ./startup/startup_mimxrt1021.o
LPSPI4_IRQHandler                                 ./startup/startup_mimxrt1021.o
LPUART1_DriverIRQHandler                          ./drivers/fsl_lpuart.o
                                                  ./startup/startup_mimxrt1021.o
LPUART1_IRQHandler                                ./startup/startup_mimxrt1021.o
LPUART2_DriverIRQHandler                          ./drivers/fsl_lpuart.o
                                                  ./startup/startup_mimxrt1021.o
LPUART2_IRQHandler                                ./startup/startup_mimxrt1021.o
LPUART3_DriverIRQHandler                          ./drivers/fsl_lpuart.o
                                                  ./startup/startup_mimxrt1021.o
LPUART3_IRQHandler                                ./startup/startup_mimxrt1021.o
LPUART4_DriverIRQHandler                          ./drivers/fsl_lpuart.o
                                                  ./startup/startup_mimxrt1021.o
LPUART4_IRQHandler                                ./startup/startup_mimxrt1021.o
LPUART5_DriverIRQHandler                          ./drivers/fsl_lpuart.o
                                                  ./startup/startup_mimxrt1021.o
LPUART5_IRQHandler                                ./startup/startup_mimxrt1021.o
LPUART6_DriverIRQHandler                          ./drivers/fsl_lpuart.o
                                                  ./startup/startup_mimxrt1021.o
LPUART6_IRQHandler                                ./startup/startup_mimxrt1021.o
LPUART7_DriverIRQHandler                          ./drivers/fsl_lpuart.o
                                                  ./startup/startup_mimxrt1021.o
LPUART7_IRQHandler                                ./startup/startup_mimxrt1021.o
LPUART8_DriverIRQHandler                          ./drivers/fsl_lpuart.o
                                                  ./startup/startup_mimxrt1021.o
LPUART8_IRQHandler                                ./startup/startup_mimxrt1021.o
LPUART_ClearStatusFlags                           ./drivers/fsl_lpuart.o
LPUART_Deinit                                     ./drivers/fsl_lpuart.o
                                                  ./component/uart/fsl_adapter_lpuart.o
LPUART_DisableInterrupts                          ./drivers/fsl_lpuart.o
LPUART_Enable9bitMode                             ./drivers/fsl_lpuart.o
LPUART_EnableInterrupts                           ./drivers/fsl_lpuart.o
LPUART_GetDefaultConfig                           ./drivers/fsl_lpuart.o
                                                  ./component/uart/fsl_adapter_lpuart.o
LPUART_GetEnabledInterrupts                       ./drivers/fsl_lpuart.o
LPUART_GetInstance                                ./drivers/fsl_lpuart.o
LPUART_GetStatusFlags                             ./drivers/fsl_lpuart.o
LPUART_Init                                       ./drivers/fsl_lpuart.o
                                                  ./component/uart/fsl_adapter_lpuart.o
LPUART_ReadBlocking                               ./drivers/fsl_lpuart.o
                                                  ./component/uart/fsl_adapter_lpuart.o
LPUART_SendAddress                                ./drivers/fsl_lpuart.o
LPUART_SetBaudRate                                ./drivers/fsl_lpuart.o
LPUART_TransferAbortReceive                       ./drivers/fsl_lpuart.o
LPUART_TransferAbortSend                          ./drivers/fsl_lpuart.o
LPUART_TransferCreateHandle                       ./drivers/fsl_lpuart.o
LPUART_TransferGetReceiveCount                    ./drivers/fsl_lpuart.o
LPUART_TransferGetRxRingBufferLength              ./drivers/fsl_lpuart.o
LPUART_TransferGetSendCount                       ./drivers/fsl_lpuart.o
LPUART_TransferHandleErrorIRQ                     ./drivers/fsl_lpuart.o
LPUART_TransferHandleIRQ                          ./drivers/fsl_lpuart.o
LPUART_TransferReceiveNonBlocking                 ./drivers/fsl_lpuart.o
LPUART_TransferSendNonBlocking                    ./drivers/fsl_lpuart.o
LPUART_TransferStartRingBuffer                    ./drivers/fsl_lpuart.o
LPUART_TransferStopRingBuffer                     ./drivers/fsl_lpuart.o
LPUART_WriteBlocking                              ./drivers/fsl_lpuart.o
                                                  ./component/uart/fsl_adapter_lpuart.o
MemManage_Handler                                 ./startup/startup_mimxrt1021.o
NMI_Handler                                       ./startup/startup_mimxrt1021.o
PIT_DriverIRQHandler                              ./startup/startup_mimxrt1021.o
PIT_IRQHandler                                    ./startup/startup_mimxrt1021.o
PMU_DriverIRQHandler                              ./startup/startup_mimxrt1021.o
PMU_IRQHandler                                    ./startup/startup_mimxrt1021.o
PWM1_0_DriverIRQHandler                           ./startup/startup_mimxrt1021.o
PWM1_0_IRQHandler                                 ./startup/startup_mimxrt1021.o
PWM1_1_DriverIRQHandler                           ./startup/startup_mimxrt1021.o
PWM1_1_IRQHandler                                 ./startup/startup_mimxrt1021.o
PWM1_2_DriverIRQHandler                           ./startup/startup_mimxrt1021.o
PWM1_2_IRQHandler                                 ./startup/startup_mimxrt1021.o
PWM1_3_DriverIRQHandler                           ./startup/startup_mimxrt1021.o
PWM1_3_IRQHandler                                 ./startup/startup_mimxrt1021.o
PWM1_FAULT_DriverIRQHandler                       ./startup/startup_mimxrt1021.o
PWM1_FAULT_IRQHandler                             ./startup/startup_mimxrt1021.o
PWM2_0_DriverIRQHandler                           ./startup/startup_mimxrt1021.o
PWM2_0_IRQHandler                                 ./startup/startup_mimxrt1021.o
PWM2_1_DriverIRQHandler                           ./startup/startup_mimxrt1021.o
PWM2_1_IRQHandler                                 ./startup/startup_mimxrt1021.o
PWM2_2_DriverIRQHandler                           ./startup/startup_mimxrt1021.o
PWM2_2_IRQHandler                                 ./startup/startup_mimxrt1021.o
PWM2_3_DriverIRQHandler                           ./startup/startup_mimxrt1021.o
PWM2_3_IRQHandler                                 ./startup/startup_mimxrt1021.o
PWM2_FAULT_DriverIRQHandler                       ./startup/startup_mimxrt1021.o
PWM2_FAULT_IRQHandler                             ./startup/startup_mimxrt1021.o
PendSV_Handler                                    ./startup/startup_mimxrt1021.o
RTWDOG_DriverIRQHandler                           ./startup/startup_mimxrt1021.o
RTWDOG_IRQHandler                                 ./startup/startup_mimxrt1021.o
Reserved102_DriverIRQHandler                      ./startup/startup_mimxrt1021.o
Reserved102_IRQHandler                            ./startup/startup_mimxrt1021.o
Reserved103_DriverIRQHandler                      ./startup/startup_mimxrt1021.o
Reserved103_IRQHandler                            ./startup/startup_mimxrt1021.o
Reserved107_DriverIRQHandler                      ./startup/startup_mimxrt1021.o
Reserved107_IRQHandler                            ./startup/startup_mimxrt1021.o
Reserved115_DriverIRQHandler                      ./startup/startup_mimxrt1021.o
Reserved115_IRQHandler                            ./startup/startup_mimxrt1021.o
Reserved123_DriverIRQHandler                      ./startup/startup_mimxrt1021.o
Reserved123_IRQHandler                            ./startup/startup_mimxrt1021.o
Reserved128_DriverIRQHandler                      ./startup/startup_mimxrt1021.o
Reserved128_IRQHandler                            ./startup/startup_mimxrt1021.o
Reserved143_DriverIRQHandler                      ./startup/startup_mimxrt1021.o
Reserved143_IRQHandler                            ./startup/startup_mimxrt1021.o
Reserved144_DriverIRQHandler                      ./startup/startup_mimxrt1021.o
Reserved144_IRQHandler                            ./startup/startup_mimxrt1021.o
Reserved147_DriverIRQHandler                      ./startup/startup_mimxrt1021.o
Reserved147_IRQHandler                            ./startup/startup_mimxrt1021.o
Reserved148_DriverIRQHandler                      ./startup/startup_mimxrt1021.o
Reserved148_IRQHandler                            ./startup/startup_mimxrt1021.o
Reserved151_DriverIRQHandler                      ./startup/startup_mimxrt1021.o
Reserved151_IRQHandler                            ./startup/startup_mimxrt1021.o
Reserved152_DriverIRQHandler                      ./startup/startup_mimxrt1021.o
Reserved152_IRQHandler                            ./startup/startup_mimxrt1021.o
Reserved56_DriverIRQHandler                       ./startup/startup_mimxrt1021.o
Reserved56_IRQHandler                             ./startup/startup_mimxrt1021.o
Reserved58_DriverIRQHandler                       ./startup/startup_mimxrt1021.o
Reserved58_IRQHandler                             ./startup/startup_mimxrt1021.o
Reserved59_DriverIRQHandler                       ./startup/startup_mimxrt1021.o
Reserved59_IRQHandler                             ./startup/startup_mimxrt1021.o
Reserved60_DriverIRQHandler                       ./startup/startup_mimxrt1021.o
Reserved60_IRQHandler                             ./startup/startup_mimxrt1021.o
Reserved68_DriverIRQHandler                       ./startup/startup_mimxrt1021.o
Reserved68_IRQHandler                             ./startup/startup_mimxrt1021.o
Reserved70_DriverIRQHandler                       ./startup/startup_mimxrt1021.o
Reserved70_IRQHandler                             ./startup/startup_mimxrt1021.o
Reserved78_DriverIRQHandler                       ./startup/startup_mimxrt1021.o
Reserved78_IRQHandler                             ./startup/startup_mimxrt1021.o
Reserved82_DriverIRQHandler                       ./startup/startup_mimxrt1021.o
Reserved82_IRQHandler                             ./startup/startup_mimxrt1021.o
Reserved86_DriverIRQHandler                       ./startup/startup_mimxrt1021.o
Reserved86_IRQHandler                             ./startup/startup_mimxrt1021.o
Reserved87_DriverIRQHandler                       ./startup/startup_mimxrt1021.o
Reserved87_IRQHandler                             ./startup/startup_mimxrt1021.o
ResetISR                                          ./startup/startup_mimxrt1021.o
SAI1_DriverIRQHandler                             ./startup/startup_mimxrt1021.o
SAI1_IRQHandler                                   ./startup/startup_mimxrt1021.o
SAI2_DriverIRQHandler                             ./startup/startup_mimxrt1021.o
SAI2_IRQHandler                                   ./startup/startup_mimxrt1021.o
SAI3_RX_DriverIRQHandler                          ./startup/startup_mimxrt1021.o
SAI3_RX_IRQHandler                                ./startup/startup_mimxrt1021.o
SAI3_TX_DriverIRQHandler                          ./startup/startup_mimxrt1021.o
SAI3_TX_IRQHandler                                ./startup/startup_mimxrt1021.o
SDK_DelayAtLeastUs                                ./drivers/fsl_common_arm.o
                                                  ./source/gpio_led_output.o
SDK_Free                                          ./drivers/fsl_common.o
SDK_Malloc                                        ./drivers/fsl_common.o
SEMC_DriverIRQHandler                             ./startup/startup_mimxrt1021.o
SEMC_IRQHandler                                   ./startup/startup_mimxrt1021.o
SILICONID_ConvertToMacAddr                        ./component/silicon_id/fsl_silicon_id.o
SILICONID_GetID                                   ./component/silicon_id/fsl_silicon_id.o
SNVS_HP_WRAPPER_DriverIRQHandler                  ./startup/startup_mimxrt1021.o
SNVS_HP_WRAPPER_IRQHandler                        ./startup/startup_mimxrt1021.o
SNVS_HP_WRAPPER_TZ_DriverIRQHandler               ./startup/startup_mimxrt1021.o
SNVS_HP_WRAPPER_TZ_IRQHandler                     ./startup/startup_mimxrt1021.o
SNVS_LP_HP_WRAPPER_DriverIRQHandler               ./startup/startup_mimxrt1021.o
SNVS_LP_HP_WRAPPER_IRQHandler                     ./startup/startup_mimxrt1021.o
SPDIF_DriverIRQHandler                            ./startup/startup_mimxrt1021.o
SPDIF_IRQHandler                                  ./startup/startup_mimxrt1021.o
SRC_DriverIRQHandler                              ./startup/startup_mimxrt1021.o
SRC_IRQHandler                                    ./startup/startup_mimxrt1021.o
SVC_Handler                                       ./startup/startup_mimxrt1021.o
SysTick_Handler                                   ./startup/startup_mimxrt1021.o
SystemCoreClock                                   ./device/system_MIMXRT1021.o
                                                  ./board/clock_config.o
SystemCoreClockUpdate                             ./device/system_MIMXRT1021.o
SystemInit                                        ./device/system_MIMXRT1021.o
                                                  ./startup/startup_mimxrt1021.o
SystemInitHook                                    ./device/system_MIMXRT1021.o
TEMP_LOW_HIGH_DriverIRQHandler                    ./startup/startup_mimxrt1021.o
TEMP_LOW_HIGH_IRQHandler                          ./startup/startup_mimxrt1021.o
TEMP_PANIC_DriverIRQHandler                       ./startup/startup_mimxrt1021.o
TEMP_PANIC_IRQHandler                             ./startup/startup_mimxrt1021.o
TMR1_DriverIRQHandler                             ./startup/startup_mimxrt1021.o
TMR1_IRQHandler                                   ./startup/startup_mimxrt1021.o
TMR2_DriverIRQHandler                             ./startup/startup_mimxrt1021.o
TMR2_IRQHandler                                   ./startup/startup_mimxrt1021.o
TRNG_DriverIRQHandler                             ./startup/startup_mimxrt1021.o
TRNG_IRQHandler                                   ./startup/startup_mimxrt1021.o
USB_OTG1_DriverIRQHandler                         ./startup/startup_mimxrt1021.o
USB_OTG1_IRQHandler                               ./startup/startup_mimxrt1021.o
USB_PHY_DriverIRQHandler                          ./startup/startup_mimxrt1021.o
USB_PHY_IRQHandler                                ./startup/startup_mimxrt1021.o
USDHC1_DriverIRQHandler                           ./startup/startup_mimxrt1021.o
USDHC1_IRQHandler                                 ./startup/startup_mimxrt1021.o
USDHC2_DriverIRQHandler                           ./startup/startup_mimxrt1021.o
USDHC2_IRQHandler                                 ./startup/startup_mimxrt1021.o
UsageFault_Handler                                ./startup/startup_mimxrt1021.o
WDOG1_DriverIRQHandler                            ./startup/startup_mimxrt1021.o
WDOG1_IRQHandler                                  ./startup/startup_mimxrt1021.o
WDOG2_DriverIRQHandler                            ./startup/startup_mimxrt1021.o
WDOG2_IRQHandler                                  ./startup/startup_mimxrt1021.o
XBAR1_IRQ_0_1_DriverIRQHandler                    ./startup/startup_mimxrt1021.o
XBAR1_IRQ_0_1_IRQHandler                          ./startup/startup_mimxrt1021.o
XBAR1_IRQ_2_3_DriverIRQHandler                    ./startup/startup_mimxrt1021.o
XBAR1_IRQ_2_3_IRQHandler                          ./startup/startup_mimxrt1021.o
_Csys_alloc                                       /usr/local/mcuxpressoide-11.6.1_8255/ide/plugins/com.nxp.mcuxpresso.tools.linux_11.6.1.202207200623/tools/bin/../lib/gcc/arm-none-eabi/10.3.1/../../../../arm-none-eabi/lib/thumb/v7e-m+dp/hard/libcr_c.a(alloc.o)
                                                  /usr/local/mcuxpressoide-11.6.1_8255/ide/plugins/com.nxp.mcuxpresso.tools.linux_11.6.1.202207200623/tools/bin/../lib/gcc/arm-none-eabi/10.3.1/../../../../arm-none-eabi/lib/thumb/v7e-m+dp/hard/libcr_c.a(_deferredlazyseek.o)
_Cwritebuf                                        /usr/local/mcuxpressoide-11.6.1_8255/ide/plugins/com.nxp.mcuxpresso.tools.linux_11.6.1.202207200623/tools/bin/../lib/gcc/arm-none-eabi/10.3.1/../../../../arm-none-eabi/lib/thumb/v7e-m+dp/hard/libcr_c.a(_writebuf.o)
                                                  /usr/local/mcuxpressoide-11.6.1_8255/ide/plugins/com.nxp.mcuxpresso.tools.linux_11.6.1.202207200623/tools/bin/../lib/gcc/arm-none-eabi/10.3.1/../../../../arm-none-eabi/lib/thumb/v7e-m+dp/hard/libcr_c.a(_deferredlazyseek.o)
                                                  /usr/local/mcuxpressoide-11.6.1_8255/ide/plugins/com.nxp.mcuxpresso.tools.linux_11.6.1.202207200623/tools/bin/../lib/gcc/arm-none-eabi/10.3.1/../../../../arm-none-eabi/lib/thumb/v7e-m+dp/hard/libcr_c.a(_fflush.o)
__Ciob                                            /usr/local/mcuxpressoide-11.6.1_8255/ide/plugins/com.nxp.mcuxpresso.tools.linux_11.6.1.202207200623/tools/bin/../lib/gcc/arm-none-eabi/10.3.1/../../../../arm-none-eabi/lib/thumb/v7e-m+dp/hard/libcr_nohost_nf.a(__ciob.o)
                                                  /usr/local/mcuxpressoide-11.6.1_8255/ide/plugins/com.nxp.mcuxpresso.tools.linux_11.6.1.202207200623/tools/bin/../lib/gcc/arm-none-eabi/10.3.1/../../../../arm-none-eabi/lib/thumb/v7e-m+dp/hard/libcr_c.a(fflush.o)
                                                  /usr/local/mcuxpressoide-11.6.1_8255/ide/plugins/com.nxp.mcuxpresso.tools.linux_11.6.1.202207200623/tools/bin/../lib/gcc/arm-none-eabi/10.3.1/../../../../arm-none-eabi/lib/thumb/v7e-m+dp/hard/libcr_c.a(initio.o)
__Vectors                                         ./startup/startup_mimxrt1021.o
                                                  ./xip/fsl_flexspi_nor_boot.o
__aeabi_idiv0                                     /usr/local/mcuxpressoide-11.6.1_8255/ide/plugins/com.nxp.mcuxpresso.tools.linux_11.6.1.202207200623/tools/bin/../lib/gcc/arm-none-eabi/10.3.1/thumb/v7e-m+dp/hard/libcr_eabihelpers.a(division_idiv0.o)
                                                  /usr/local/mcuxpressoide-11.6.1_8255/ide/plugins/com.nxp.mcuxpresso.tools.linux_11.6.1.202207200623/tools/bin/../lib/gcc/arm-none-eabi/10.3.1/thumb/v7e-m+dp/hard/libcr_eabihelpers.a(division_64.o)
__aeabi_ldivmod                                   /usr/local/mcuxpressoide-11.6.1_8255/ide/plugins/com.nxp.mcuxpresso.tools.linux_11.6.1.202207200623/tools/bin/../lib/gcc/arm-none-eabi/10.3.1/thumb/v7e-m+dp/hard/libcr_eabihelpers.a(division_64.o)
__aeabi_lowlevel_memset                           /usr/local/mcuxpressoide-11.6.1_8255/ide/plugins/com.nxp.mcuxpresso.tools.linux_11.6.1.202207200623/tools/bin/../lib/gcc/arm-none-eabi/10.3.1/thumb/v7e-m+dp/hard/libcr_eabihelpers.a(memcpy.o)
                                                  /usr/local/mcuxpressoide-11.6.1_8255/ide/plugins/com.nxp.mcuxpresso.tools.linux_11.6.1.202207200623/tools/bin/../lib/gcc/arm-none-eabi/10.3.1/../../../../arm-none-eabi/lib/thumb/v7e-m+dp/hard/libcr_c.a(memset.o)
__aeabi_memclr                                    /usr/local/mcuxpressoide-11.6.1_8255/ide/plugins/com.nxp.mcuxpresso.tools.linux_11.6.1.202207200623/tools/bin/../lib/gcc/arm-none-eabi/10.3.1/thumb/v7e-m+dp/hard/libcr_eabihelpers.a(memcpy.o)
__aeabi_memclr4                                   /usr/local/mcuxpressoide-11.6.1_8255/ide/plugins/com.nxp.mcuxpresso.tools.linux_11.6.1.202207200623/tools/bin/../lib/gcc/arm-none-eabi/10.3.1/thumb/v7e-m+dp/hard/libcr_eabihelpers.a(memcpy.o)
__aeabi_memclr8                                   /usr/local/mcuxpressoide-11.6.1_8255/ide/plugins/com.nxp.mcuxpresso.tools.linux_11.6.1.202207200623/tools/bin/../lib/gcc/arm-none-eabi/10.3.1/thumb/v7e-m+dp/hard/libcr_eabihelpers.a(memcpy.o)
__aeabi_memcpy                                    /usr/local/mcuxpressoide-11.6.1_8255/ide/plugins/com.nxp.mcuxpresso.tools.linux_11.6.1.202207200623/tools/bin/../lib/gcc/arm-none-eabi/10.3.1/thumb/v7e-m+dp/hard/libcr_eabihelpers.a(memcpy.o)
                                                  /usr/local/mcuxpressoide-11.6.1_8255/ide/plugins/com.nxp.mcuxpresso.tools.linux_11.6.1.202207200623/tools/bin/../lib/gcc/arm-none-eabi/10.3.1/../../../../arm-none-eabi/lib/thumb/v7e-m+dp/hard/libcr_c.a(memcpy.o)
__aeabi_memcpy4                                   /usr/local/mcuxpressoide-11.6.1_8255/ide/plugins/com.nxp.mcuxpresso.tools.linux_11.6.1.202207200623/tools/bin/../lib/gcc/arm-none-eabi/10.3.1/thumb/v7e-m+dp/hard/libcr_eabihelpers.a(memcpy.o)
__aeabi_memcpy8                                   /usr/local/mcuxpressoide-11.6.1_8255/ide/plugins/com.nxp.mcuxpresso.tools.linux_11.6.1.202207200623/tools/bin/../lib/gcc/arm-none-eabi/10.3.1/thumb/v7e-m+dp/hard/libcr_eabihelpers.a(memcpy.o)
__aeabi_memmove                                   /usr/local/mcuxpressoide-11.6.1_8255/ide/plugins/com.nxp.mcuxpresso.tools.linux_11.6.1.202207200623/tools/bin/../lib/gcc/arm-none-eabi/10.3.1/thumb/v7e-m+dp/hard/libcr_eabihelpers.a(memcpy.o)
__aeabi_memmove4                                  /usr/local/mcuxpressoide-11.6.1_8255/ide/plugins/com.nxp.mcuxpresso.tools.linux_11.6.1.202207200623/tools/bin/../lib/gcc/arm-none-eabi/10.3.1/thumb/v7e-m+dp/hard/libcr_eabihelpers.a(memcpy.o)
__aeabi_memmove8                                  /usr/local/mcuxpressoide-11.6.1_8255/ide/plugins/com.nxp.mcuxpresso.tools.linux_11.6.1.202207200623/tools/bin/../lib/gcc/arm-none-eabi/10.3.1/thumb/v7e-m+dp/hard/libcr_eabihelpers.a(memcpy.o)
__aeabi_memset                                    /usr/local/mcuxpressoide-11.6.1_8255/ide/plugins/com.nxp.mcuxpresso.tools.linux_11.6.1.202207200623/tools/bin/../lib/gcc/arm-none-eabi/10.3.1/thumb/v7e-m+dp/hard/libcr_eabihelpers.a(memcpy.o)
__aeabi_memset4                                   /usr/local/mcuxpressoide-11.6.1_8255/ide/plugins/com.nxp.mcuxpresso.tools.linux_11.6.1.202207200623/tools/bin/../lib/gcc/arm-none-eabi/10.3.1/thumb/v7e-m+dp/hard/libcr_eabihelpers.a(memcpy.o)
__aeabi_memset8                                   /usr/local/mcuxpressoide-11.6.1_8255/ide/plugins/com.nxp.mcuxpresso.tools.linux_11.6.1.202207200623/tools/bin/../lib/gcc/arm-none-eabi/10.3.1/thumb/v7e-m+dp/hard/libcr_eabihelpers.a(memcpy.o)
__aeabi_uldivmod                                  /usr/local/mcuxpressoide-11.6.1_8255/ide/plugins/com.nxp.mcuxpresso.tools.linux_11.6.1.202207200623/tools/bin/../lib/gcc/arm-none-eabi/10.3.1/thumb/v7e-m+dp/hard/libcr_eabihelpers.a(division_64.o)
                                                  ./device/system_MIMXRT1021.o
                                                  ./drivers/fsl_common_arm.o
__assertion_failed                                ./utilities/fsl_assert.o
                                                  ./board/pin_mux.o
                                                  ./board/clock_config.o
                                                  ./board/board.o
                                                  ./component/silicon_id/fsl_silicon_id.o
                                                  ./component/uart/fsl_adapter_lpuart.o
                                                  ./drivers/fsl_lpuart.o
                                                  ./drivers/fsl_gpio.o
                                                  ./drivers/fsl_common_arm.o
                                                  ./drivers/fsl_clock.o
__base_NCACHE_REGION                              ./board/board.o
__bhs_ldivmod1                                    /usr/local/mcuxpressoide-11.6.1_8255/ide/plugins/com.nxp.mcuxpresso.tools.linux_11.6.1.202207200623/tools/bin/../lib/gcc/arm-none-eabi/10.3.1/thumb/v7e-m+dp/hard/libcr_eabihelpers.a(division_64.o)
__bss_section_table_end                           ./startup/startup_mimxrt1021.o
__check_heap_overflow                             /usr/local/mcuxpressoide-11.6.1_8255/ide/plugins/com.nxp.mcuxpresso.tools.linux_11.6.1.202207200623/tools/bin/../lib/gcc/arm-none-eabi/10.3.1/../../../../arm-none-eabi/lib/thumb/v7e-m+dp/hard/libcr_c.a(_cr_check_heap.o)
                                                  /usr/local/mcuxpressoide-11.6.1_8255/ide/plugins/com.nxp.mcuxpresso.tools.linux_11.6.1.202207200623/tools/bin/../lib/gcc/arm-none-eabi/10.3.1/../../../../arm-none-eabi/lib/thumb/v7e-m+dp/hard/libcr_c.a(_cr_sbrk.o)
__data_section_table                              ./startup/startup_mimxrt1021.o
__data_section_table_end                          ./startup/startup_mimxrt1021.o
__end_of_heap                                     /usr/local/mcuxpressoide-11.6.1_8255/ide/plugins/com.nxp.mcuxpresso.tools.linux_11.6.1.202207200623/tools/bin/../lib/gcc/arm-none-eabi/10.3.1/../../../../arm-none-eabi/lib/thumb/v7e-m+dp/hard/libcr_c.a(__init_alloc.o)
                                                  /usr/local/mcuxpressoide-11.6.1_8255/ide/plugins/com.nxp.mcuxpresso.tools.linux_11.6.1.202207200623/tools/bin/../lib/gcc/arm-none-eabi/10.3.1/../../../../arm-none-eabi/lib/thumb/v7e-m+dp/hard/libcr_c.a(_cr_sbrk.o)
__exit                                            /usr/local/mcuxpressoide-11.6.1_8255/ide/plugins/com.nxp.mcuxpresso.tools.linux_11.6.1.202207200623/tools/bin/../lib/gcc/arm-none-eabi/10.3.1/../../../../arm-none-eabi/lib/thumb/v7e-m+dp/hard/libcr_nohost_nf.a(__sys_appexit.o)
__flsbuf                                          /usr/local/mcuxpressoide-11.6.1_8255/ide/plugins/com.nxp.mcuxpresso.tools.linux_11.6.1.202207200623/tools/bin/../lib/gcc/arm-none-eabi/10.3.1/../../../../arm-none-eabi/lib/thumb/v7e-m+dp/hard/libcr_c.a(_deferredlazyseek.o)
__heaps                                           /usr/local/mcuxpressoide-11.6.1_8255/ide/plugins/com.nxp.mcuxpresso.tools.linux_11.6.1.202207200623/tools/bin/../lib/gcc/arm-none-eabi/10.3.1/../../../../arm-none-eabi/lib/thumb/v7e-m+dp/hard/libcr_c.a(__init_alloc.o)
                                                  /usr/local/mcuxpressoide-11.6.1_8255/ide/plugins/com.nxp.mcuxpresso.tools.linux_11.6.1.202207200623/tools/bin/../lib/gcc/arm-none-eabi/10.3.1/../../../../arm-none-eabi/lib/thumb/v7e-m+dp/hard/libcr_c.a(alloc.o)
__main                                            /usr/local/mcuxpressoide-11.6.1_8255/ide/plugins/com.nxp.mcuxpresso.tools.linux_11.6.1.202207200623/tools/bin/../lib/gcc/arm-none-eabi/10.3.1/../../../../arm-none-eabi/lib/thumb/v7e-m+dp/hard/libcr_nohost_nf.a(_cr__main.o)
                                                  ./startup/startup_mimxrt1021.o
__num_Ciob_streams                                /usr/local/mcuxpressoide-11.6.1_8255/ide/plugins/com.nxp.mcuxpresso.tools.linux_11.6.1.202207200623/tools/bin/../lib/gcc/arm-none-eabi/10.3.1/../../../../arm-none-eabi/lib/thumb/v7e-m+dp/hard/libcr_nohost_nf.a(__ciob.o)
                                                  /usr/local/mcuxpressoide-11.6.1_8255/ide/plugins/com.nxp.mcuxpresso.tools.linux_11.6.1.202207200623/tools/bin/../lib/gcc/arm-none-eabi/10.3.1/../../../../arm-none-eabi/lib/thumb/v7e-m+dp/hard/libcr_c.a(fflush.o)
                                                  /usr/local/mcuxpressoide-11.6.1_8255/ide/plugins/com.nxp.mcuxpresso.tools.linux_11.6.1.202207200623/tools/bin/../lib/gcc/arm-none-eabi/10.3.1/../../../../arm-none-eabi/lib/thumb/v7e-m+dp/hard/libcr_c.a(initio.o)
__sys_appexit                                     /usr/local/mcuxpressoide-11.6.1_8255/ide/plugins/com.nxp.mcuxpresso.tools.linux_11.6.1.202207200623/tools/bin/../lib/gcc/arm-none-eabi/10.3.1/../../../../arm-none-eabi/lib/thumb/v7e-m+dp/hard/libcr_nohost_nf.a(__sys_appexit.o)
                                                  /usr/local/mcuxpressoide-11.6.1_8255/ide/plugins/com.nxp.mcuxpresso.tools.linux_11.6.1.202207200623/tools/bin/../lib/gcc/arm-none-eabi/10.3.1/../../../../arm-none-eabi/lib/thumb/v7e-m+dp/hard/libcr_c.a(alloc.o)
__sys_close                                       /usr/local/mcuxpressoide-11.6.1_8255/ide/plugins/com.nxp.mcuxpresso.tools.linux_11.6.1.202207200623/tools/bin/../lib/gcc/arm-none-eabi/10.3.1/../../../../arm-none-eabi/lib/thumb/v7e-m+dp/hard/libcr_nohost_nf.a(__sys_close.o)
                                                  /usr/local/mcuxpressoide-11.6.1_8255/ide/plugins/com.nxp.mcuxpresso.tools.linux_11.6.1.202207200623/tools/bin/../lib/gcc/arm-none-eabi/10.3.1/../../../../arm-none-eabi/lib/thumb/v7e-m+dp/hard/libcr_c.a(fclose.o)
__sys_flen                                        /usr/local/mcuxpressoide-11.6.1_8255/ide/plugins/com.nxp.mcuxpresso.tools.linux_11.6.1.202207200623/tools/bin/../lib/gcc/arm-none-eabi/10.3.1/../../../../arm-none-eabi/lib/thumb/v7e-m+dp/hard/libcr_nohost_nf.a(__sys_flen.o)
                                                  /usr/local/mcuxpressoide-11.6.1_8255/ide/plugins/com.nxp.mcuxpresso.tools.linux_11.6.1.202207200623/tools/bin/../lib/gcc/arm-none-eabi/10.3.1/../../../../arm-none-eabi/lib/thumb/v7e-m+dp/hard/libcr_c.a(_writebuf.o)
                                                  /usr/local/mcuxpressoide-11.6.1_8255/ide/plugins/com.nxp.mcuxpresso.tools.linux_11.6.1.202207200623/tools/bin/../lib/gcc/arm-none-eabi/10.3.1/../../../../arm-none-eabi/lib/thumb/v7e-m+dp/hard/libcr_c.a(fseek.o)
__sys_istty                                       /usr/local/mcuxpressoide-11.6.1_8255/ide/plugins/com.nxp.mcuxpresso.tools.linux_11.6.1.202207200623/tools/bin/../lib/gcc/arm-none-eabi/10.3.1/../../../../arm-none-eabi/lib/thumb/v7e-m+dp/hard/libcr_nohost_nf.a(__sys_istty.o)
                                                  /usr/local/mcuxpressoide-11.6.1_8255/ide/plugins/com.nxp.mcuxpresso.tools.linux_11.6.1.202207200623/tools/bin/../lib/gcc/arm-none-eabi/10.3.1/../../../../arm-none-eabi/lib/thumb/v7e-m+dp/hard/libcr_c.a(_deferredlazyseek.o)
                                                  /usr/local/mcuxpressoide-11.6.1_8255/ide/plugins/com.nxp.mcuxpresso.tools.linux_11.6.1.202207200623/tools/bin/../lib/gcc/arm-none-eabi/10.3.1/../../../../arm-none-eabi/lib/thumb/v7e-m+dp/hard/libcr_c.a(fseek.o)
__sys_remove                                      /usr/local/mcuxpressoide-11.6.1_8255/ide/plugins/com.nxp.mcuxpresso.tools.linux_11.6.1.202207200623/tools/bin/../lib/gcc/arm-none-eabi/10.3.1/../../../../arm-none-eabi/lib/thumb/v7e-m+dp/hard/libcr_nohost_nf.a(__sys_remove.o)
                                                  /usr/local/mcuxpressoide-11.6.1_8255/ide/plugins/com.nxp.mcuxpresso.tools.linux_11.6.1.202207200623/tools/bin/../lib/gcc/arm-none-eabi/10.3.1/../../../../arm-none-eabi/lib/thumb/v7e-m+dp/hard/libcr_c.a(remove.o)
__sys_rename                                      /usr/local/mcuxpressoide-11.6.1_8255/ide/plugins/com.nxp.mcuxpresso.tools.linux_11.6.1.202207200623/tools/bin/../lib/gcc/arm-none-eabi/10.3.1/../../../../arm-none-eabi/lib/thumb/v7e-m+dp/hard/libcr_nohost_nf.a(__sys_rename.o)
                                                  /usr/local/mcuxpressoide-11.6.1_8255/ide/plugins/com.nxp.mcuxpresso.tools.linux_11.6.1.202207200623/tools/bin/../lib/gcc/arm-none-eabi/10.3.1/../../../../arm-none-eabi/lib/thumb/v7e-m+dp/hard/libcr_c.a(remove.o)
__sys_seek                                        /usr/local/mcuxpressoide-11.6.1_8255/ide/plugins/com.nxp.mcuxpresso.tools.linux_11.6.1.202207200623/tools/bin/../lib/gcc/arm-none-eabi/10.3.1/../../../../arm-none-eabi/lib/thumb/v7e-m+dp/hard/libcr_nohost_nf.a(__sys_seek.o)
                                                  /usr/local/mcuxpressoide-11.6.1_8255/ide/plugins/com.nxp.mcuxpresso.tools.linux_11.6.1.202207200623/tools/bin/../lib/gcc/arm-none-eabi/10.3.1/../../../../arm-none-eabi/lib/thumb/v7e-m+dp/hard/libcr_c.a(_writebuf.o)
__sys_tmpnam                                      /usr/local/mcuxpressoide-11.6.1_8255/ide/plugins/com.nxp.mcuxpresso.tools.linux_11.6.1.202207200623/tools/bin/../lib/gcc/arm-none-eabi/10.3.1/../../../../arm-none-eabi/lib/thumb/v7e-m+dp/hard/libcr_nohost_nf.a(__sys_tmpnam.o)
                                                  /usr/local/mcuxpressoide-11.6.1_8255/ide/plugins/com.nxp.mcuxpresso.tools.linux_11.6.1.202207200623/tools/bin/../lib/gcc/arm-none-eabi/10.3.1/../../../../arm-none-eabi/lib/thumb/v7e-m+dp/hard/libcr_c.a(fclose.o)
__sys_write                                       /usr/local/mcuxpressoide-11.6.1_8255/ide/plugins/com.nxp.mcuxpresso.tools.linux_11.6.1.202207200623/tools/bin/../lib/gcc/arm-none-eabi/10.3.1/../../../../arm-none-eabi/lib/thumb/v7e-m+dp/hard/libcr_nohost_nf.a(__sys_write.o)
                                                  /usr/local/mcuxpressoide-11.6.1_8255/ide/plugins/com.nxp.mcuxpresso.tools.linux_11.6.1.202207200623/tools/bin/../lib/gcc/arm-none-eabi/10.3.1/../../../../arm-none-eabi/lib/thumb/v7e-m+dp/hard/libcr_c.a(_writebuf.o)
                                                  /usr/local/mcuxpressoide-11.6.1_8255/ide/plugins/com.nxp.mcuxpresso.tools.linux_11.6.1.202207200623/tools/bin/../lib/gcc/arm-none-eabi/10.3.1/../../../../arm-none-eabi/lib/thumb/v7e-m+dp/hard/libcr_c.a(alloc.o)
__top_NCACHE_REGION                               ./board/board.o
_deferredlazyseek                                 /usr/local/mcuxpressoide-11.6.1_8255/ide/plugins/com.nxp.mcuxpresso.tools.linux_11.6.1.202207200623/tools/bin/../lib/gcc/arm-none-eabi/10.3.1/../../../../arm-none-eabi/lib/thumb/v7e-m+dp/hard/libcr_c.a(_deferredlazyseek.o)
                                                  /usr/local/mcuxpressoide-11.6.1_8255/ide/plugins/com.nxp.mcuxpresso.tools.linux_11.6.1.202207200623/tools/bin/../lib/gcc/arm-none-eabi/10.3.1/../../../../arm-none-eabi/lib/thumb/v7e-m+dp/hard/libcr_c.a(_do_fflush.o)
_do_fflush                                        /usr/local/mcuxpressoide-11.6.1_8255/ide/plugins/com.nxp.mcuxpresso.tools.linux_11.6.1.202207200623/tools/bin/../lib/gcc/arm-none-eabi/10.3.1/../../../../arm-none-eabi/lib/thumb/v7e-m+dp/hard/libcr_c.a(_do_fflush.o)
                                                  /usr/local/mcuxpressoide-11.6.1_8255/ide/plugins/com.nxp.mcuxpresso.tools.linux_11.6.1.202207200623/tools/bin/../lib/gcc/arm-none-eabi/10.3.1/../../../../arm-none-eabi/lib/thumb/v7e-m+dp/hard/libcr_c.a(fflush.o)
_fdopen                                           /usr/local/mcuxpressoide-11.6.1_8255/ide/plugins/com.nxp.mcuxpresso.tools.linux_11.6.1.202207200623/tools/bin/../lib/gcc/arm-none-eabi/10.3.1/../../../../arm-none-eabi/lib/thumb/v7e-m+dp/hard/libcr_c.a(_fdopen.o)
                                                  /usr/local/mcuxpressoide-11.6.1_8255/ide/plugins/com.nxp.mcuxpresso.tools.linux_11.6.1.202207200623/tools/bin/../lib/gcc/arm-none-eabi/10.3.1/../../../../arm-none-eabi/lib/thumb/v7e-m+dp/hard/libcr_c.a(initio.o)
_fflush                                           /usr/local/mcuxpressoide-11.6.1_8255/ide/plugins/com.nxp.mcuxpresso.tools.linux_11.6.1.202207200623/tools/bin/../lib/gcc/arm-none-eabi/10.3.1/../../../../arm-none-eabi/lib/thumb/v7e-m+dp/hard/libcr_c.a(_fflush.o)
                                                  /usr/local/mcuxpressoide-11.6.1_8255/ide/plugins/com.nxp.mcuxpresso.tools.linux_11.6.1.202207200623/tools/bin/../lib/gcc/arm-none-eabi/10.3.1/../../../../arm-none-eabi/lib/thumb/v7e-m+dp/hard/libcr_c.a(_deferredlazyseek.o)
                                                  /usr/local/mcuxpressoide-11.6.1_8255/ide/plugins/com.nxp.mcuxpresso.tools.linux_11.6.1.202207200623/tools/bin/../lib/gcc/arm-none-eabi/10.3.1/../../../../arm-none-eabi/lib/thumb/v7e-m+dp/hard/libcr_c.a(_do_fflush.o)
_init_alloc                                       /usr/local/mcuxpressoide-11.6.1_8255/ide/plugins/com.nxp.mcuxpresso.tools.linux_11.6.1.202207200623/tools/bin/../lib/gcc/arm-none-eabi/10.3.1/../../../../arm-none-eabi/lib/thumb/v7e-m+dp/hard/libcr_c.a(__init_alloc.o)
_initio                                           /usr/local/mcuxpressoide-11.6.1_8255/ide/plugins/com.nxp.mcuxpresso.tools.linux_11.6.1.202207200623/tools/bin/../lib/gcc/arm-none-eabi/10.3.1/../../../../arm-none-eabi/lib/thumb/v7e-m+dp/hard/libcr_c.a(initio.o)
                                                  /usr/local/mcuxpressoide-11.6.1_8255/ide/plugins/com.nxp.mcuxpresso.tools.linux_11.6.1.202207200623/tools/bin/../lib/gcc/arm-none-eabi/10.3.1/../../../../arm-none-eabi/lib/thumb/v7e-m+dp/hard/libcr_nohost_nf.a(_cr__main.o)
_pvHeapLimit                                      /usr/local/mcuxpressoide-11.6.1_8255/ide/plugins/com.nxp.mcuxpresso.tools.linux_11.6.1.202207200623/tools/bin/../lib/gcc/arm-none-eabi/10.3.1/../../../../arm-none-eabi/lib/thumb/v7e-m+dp/hard/libcr_c.a(_cr_check_heap.o)
_pvHeapStart                                      /usr/local/mcuxpressoide-11.6.1_8255/ide/plugins/com.nxp.mcuxpresso.tools.linux_11.6.1.202207200623/tools/bin/../lib/gcc/arm-none-eabi/10.3.1/../../../../arm-none-eabi/lib/thumb/v7e-m+dp/hard/libcr_c.a(_cr_sbrk.o)
_sbrk                                             /usr/local/mcuxpressoide-11.6.1_8255/ide/plugins/com.nxp.mcuxpresso.tools.linux_11.6.1.202207200623/tools/bin/../lib/gcc/arm-none-eabi/10.3.1/../../../../arm-none-eabi/lib/thumb/v7e-m+dp/hard/libcr_c.a(_cr_sbrk.o)
                                                  /usr/local/mcuxpressoide-11.6.1_8255/ide/plugins/com.nxp.mcuxpresso.tools.linux_11.6.1.202207200623/tools/bin/../lib/gcc/arm-none-eabi/10.3.1/../../../../arm-none-eabi/lib/thumb/v7e-m+dp/hard/libcr_c.a(alloc.o)
_terminateio                                      /usr/local/mcuxpressoide-11.6.1_8255/ide/plugins/com.nxp.mcuxpresso.tools.linux_11.6.1.202207200623/tools/bin/../lib/gcc/arm-none-eabi/10.3.1/../../../../arm-none-eabi/lib/thumb/v7e-m+dp/hard/libcr_c.a(initio.o)
_vStackTop                                        ./startup/startup_mimxrt1021.o
bss_init                                          ./startup/startup_mimxrt1021.o
calloc                                            /usr/local/mcuxpressoide-11.6.1_8255/ide/plugins/com.nxp.mcuxpresso.tools.linux_11.6.1.202207200623/tools/bin/../lib/gcc/arm-none-eabi/10.3.1/../../../../arm-none-eabi/lib/thumb/v7e-m+dp/hard/libcr_c.a(alloc.o)
data_init                                         ./startup/startup_mimxrt1021.o
dcd_data                                          ./board/dcd.o
enetPllConfig_BOARD_BootClockRUN                  ./board/clock_config.o
errno                                             /usr/local/mcuxpressoide-11.6.1_8255/ide/plugins/com.nxp.mcuxpresso.tools.linux_11.6.1.202207200623/tools/bin/../lib/gcc/arm-none-eabi/10.3.1/../../../../arm-none-eabi/lib/thumb/v7e-m+dp/hard/libcr_c.a(errno.o)
                                                  /usr/local/mcuxpressoide-11.6.1_8255/ide/plugins/com.nxp.mcuxpresso.tools.linux_11.6.1.202207200623/tools/bin/../lib/gcc/arm-none-eabi/10.3.1/../../../../arm-none-eabi/lib/thumb/v7e-m+dp/hard/libcr_c.a(ftell.o)
                                                  /usr/local/mcuxpressoide-11.6.1_8255/ide/plugins/com.nxp.mcuxpresso.tools.linux_11.6.1.202207200623/tools/bin/../lib/gcc/arm-none-eabi/10.3.1/../../../../arm-none-eabi/lib/thumb/v7e-m+dp/hard/libcr_c.a(_cr_sbrk.o)
fclose                                            /usr/local/mcuxpressoide-11.6.1_8255/ide/plugins/com.nxp.mcuxpresso.tools.linux_11.6.1.202207200623/tools/bin/../lib/gcc/arm-none-eabi/10.3.1/../../../../arm-none-eabi/lib/thumb/v7e-m+dp/hard/libcr_c.a(fclose.o)
                                                  /usr/local/mcuxpressoide-11.6.1_8255/ide/plugins/com.nxp.mcuxpresso.tools.linux_11.6.1.202207200623/tools/bin/../lib/gcc/arm-none-eabi/10.3.1/../../../../arm-none-eabi/lib/thumb/v7e-m+dp/hard/libcr_c.a(_fdopen.o)
                                                  /usr/local/mcuxpressoide-11.6.1_8255/ide/plugins/com.nxp.mcuxpresso.tools.linux_11.6.1.202207200623/tools/bin/../lib/gcc/arm-none-eabi/10.3.1/../../../../arm-none-eabi/lib/thumb/v7e-m+dp/hard/libcr_c.a(initio.o)
fflush                                            /usr/local/mcuxpressoide-11.6.1_8255/ide/plugins/com.nxp.mcuxpresso.tools.linux_11.6.1.202207200623/tools/bin/../lib/gcc/arm-none-eabi/10.3.1/../../../../arm-none-eabi/lib/thumb/v7e-m+dp/hard/libcr_c.a(fflush.o)
                                                  /usr/local/mcuxpressoide-11.6.1_8255/ide/plugins/com.nxp.mcuxpresso.tools.linux_11.6.1.202207200623/tools/bin/../lib/gcc/arm-none-eabi/10.3.1/../../../../arm-none-eabi/lib/thumb/v7e-m+dp/hard/libcr_c.a(fclose.o)
free                                              /usr/local/mcuxpressoide-11.6.1_8255/ide/plugins/com.nxp.mcuxpresso.tools.linux_11.6.1.202207200623/tools/bin/../lib/gcc/arm-none-eabi/10.3.1/../../../../arm-none-eabi/lib/thumb/v7e-m+dp/hard/libcr_c.a(alloc.o)
                                                  /usr/local/mcuxpressoide-11.6.1_8255/ide/plugins/com.nxp.mcuxpresso.tools.linux_11.6.1.202207200623/tools/bin/../lib/gcc/arm-none-eabi/10.3.1/../../../../arm-none-eabi/lib/thumb/v7e-m+dp/hard/libcr_c.a(fclose.o)
                                                  ./drivers/fsl_common.o
fseek                                             /usr/local/mcuxpressoide-11.6.1_8255/ide/plugins/com.nxp.mcuxpresso.tools.linux_11.6.1.202207200623/tools/bin/../lib/gcc/arm-none-eabi/10.3.1/../../../../arm-none-eabi/lib/thumb/v7e-m+dp/hard/libcr_c.a(fseek.o)
                                                  /usr/local/mcuxpressoide-11.6.1_8255/ide/plugins/com.nxp.mcuxpresso.tools.linux_11.6.1.202207200623/tools/bin/../lib/gcc/arm-none-eabi/10.3.1/../../../../arm-none-eabi/lib/thumb/v7e-m+dp/hard/libcr_c.a(_deferredlazyseek.o)
                                                  /usr/local/mcuxpressoide-11.6.1_8255/ide/plugins/com.nxp.mcuxpresso.tools.linux_11.6.1.202207200623/tools/bin/../lib/gcc/arm-none-eabi/10.3.1/../../../../arm-none-eabi/lib/thumb/v7e-m+dp/hard/libcr_c.a(_do_fflush.o)
                                                  /usr/local/mcuxpressoide-11.6.1_8255/ide/plugins/com.nxp.mcuxpresso.tools.linux_11.6.1.202207200623/tools/bin/../lib/gcc/arm-none-eabi/10.3.1/../../../../arm-none-eabi/lib/thumb/v7e-m+dp/hard/libcr_c.a(_fdopen.o)
ftell                                             /usr/local/mcuxpressoide-11.6.1_8255/ide/plugins/com.nxp.mcuxpresso.tools.linux_11.6.1.202207200623/tools/bin/../lib/gcc/arm-none-eabi/10.3.1/../../../../arm-none-eabi/lib/thumb/v7e-m+dp/hard/libcr_c.a(ftell.o)
                                                  /usr/local/mcuxpressoide-11.6.1_8255/ide/plugins/com.nxp.mcuxpresso.tools.linux_11.6.1.202207200623/tools/bin/../lib/gcc/arm-none-eabi/10.3.1/../../../../arm-none-eabi/lib/thumb/v7e-m+dp/hard/libcr_c.a(fseek.o)
g_boot_data                                       ./xip/fsl_flexspi_nor_boot.o
g_pfnVectors                                      ./startup/startup_mimxrt1021.o
                                                  ./device/system_MIMXRT1021.o
g_pinSet                                          ./source/gpio_led_output.o
g_rtcXtalFreq                                     ./drivers/fsl_clock.o
                                                  ./board/clock_config.o
g_xtalFreq                                        ./drivers/fsl_clock.o
                                                  ./board/clock_config.o
                                                  ./board/board.o
image_vector_table                                ./xip/fsl_flexspi_nor_boot.o
main                                              ./source/gpio_led_output.o
                                                  /usr/local/mcuxpressoide-11.6.1_8255/ide/plugins/com.nxp.mcuxpresso.tools.linux_11.6.1.202207200623/tools/bin/../lib/gcc/arm-none-eabi/10.3.1/../../../../arm-none-eabi/lib/thumb/v7e-m+dp/hard/libcr_nohost_nf.a(_cr__main.o)
malloc                                            /usr/local/mcuxpressoide-11.6.1_8255/ide/plugins/com.nxp.mcuxpresso.tools.linux_11.6.1.202207200623/tools/bin/../lib/gcc/arm-none-eabi/10.3.1/../../../../arm-none-eabi/lib/thumb/v7e-m+dp/hard/libcr_c.a(alloc.o)
                                                  ./drivers/fsl_common.o
memcpy                                            /usr/local/mcuxpressoide-11.6.1_8255/ide/plugins/com.nxp.mcuxpresso.tools.linux_11.6.1.202207200623/tools/bin/../lib/gcc/arm-none-eabi/10.3.1/../../../../arm-none-eabi/lib/thumb/v7e-m+dp/hard/libcr_c.a(memcpy.o)
                                                  /usr/local/mcuxpressoide-11.6.1_8255/ide/plugins/com.nxp.mcuxpresso.tools.linux_11.6.1.202207200623/tools/bin/../lib/gcc/arm-none-eabi/10.3.1/../../../../arm-none-eabi/lib/thumb/v7e-m+dp/hard/libcr_c.a(alloc.o)
                                                  ./utilities/fsl_debug_console.o
memset                                            /usr/local/mcuxpressoide-11.6.1_8255/ide/plugins/com.nxp.mcuxpresso.tools.linux_11.6.1.202207200623/tools/bin/../lib/gcc/arm-none-eabi/10.3.1/../../../../arm-none-eabi/lib/thumb/v7e-m+dp/hard/libcr_c.a(memset.o)
                                                  /usr/local/mcuxpressoide-11.6.1_8255/ide/plugins/com.nxp.mcuxpresso.tools.linux_11.6.1.202207200623/tools/bin/../lib/gcc/arm-none-eabi/10.3.1/../../../../arm-none-eabi/lib/thumb/v7e-m+dp/hard/libcr_c.a(fclose.o)
                                                  /usr/local/mcuxpressoide-11.6.1_8255/ide/plugins/com.nxp.mcuxpresso.tools.linux_11.6.1.202207200623/tools/bin/../lib/gcc/arm-none-eabi/10.3.1/../../../../arm-none-eabi/lib/thumb/v7e-m+dp/hard/libcr_c.a(alloc.o)
                                                  ./drivers/fsl_lpuart.o
qspiflash_config                                  ./xip/evkmimxrt1020_flexspi_nor_config.o
realloc                                           /usr/local/mcuxpressoide-11.6.1_8255/ide/plugins/com.nxp.mcuxpresso.tools.linux_11.6.1.202207200623/tools/bin/../lib/gcc/arm-none-eabi/10.3.1/../../../../arm-none-eabi/lib/thumb/v7e-m+dp/hard/libcr_c.a(alloc.o)
remove                                            /usr/local/mcuxpressoide-11.6.1_8255/ide/plugins/com.nxp.mcuxpresso.tools.linux_11.6.1.202207200623/tools/bin/../lib/gcc/arm-none-eabi/10.3.1/../../../../arm-none-eabi/lib/thumb/v7e-m+dp/hard/libcr_c.a(remove.o)
                                                  /usr/local/mcuxpressoide-11.6.1_8255/ide/plugins/com.nxp.mcuxpresso.tools.linux_11.6.1.202207200623/tools/bin/../lib/gcc/arm-none-eabi/10.3.1/../../../../arm-none-eabi/lib/thumb/v7e-m+dp/hard/libcr_c.a(fclose.o)
rename                                            /usr/local/mcuxpressoide-11.6.1_8255/ide/plugins/com.nxp.mcuxpresso.tools.linux_11.6.1.202207200623/tools/bin/../lib/gcc/arm-none-eabi/10.3.1/../../../../arm-none-eabi/lib/thumb/v7e-m+dp/hard/libcr_c.a(remove.o)
s_lpuartHandle                                    ./drivers/fsl_lpuart.o
s_lpuartIRQ                                       ./drivers/fsl_lpuart.o
s_lpuartIsr                                       ./drivers/fsl_lpuart.o
setvbuf                                           /usr/local/mcuxpressoide-11.6.1_8255/ide/plugins/com.nxp.mcuxpresso.tools.linux_11.6.1.202207200623/tools/bin/../lib/gcc/arm-none-eabi/10.3.1/../../../../arm-none-eabi/lib/thumb/v7e-m+dp/hard/libcr_c.a(setvbuf.o)
                                                  /usr/local/mcuxpressoide-11.6.1_8255/ide/plugins/com.nxp.mcuxpresso.tools.linux_11.6.1.202207200623/tools/bin/../lib/gcc/arm-none-eabi/10.3.1/../../../../arm-none-eabi/lib/thumb/v7e-m+dp/hard/libcr_c.a(initio.o)
strlen                                            /usr/local/mcuxpressoide-11.6.1_8255/ide/plugins/com.nxp.mcuxpresso.tools.linux_11.6.1.202207200623/tools/bin/../lib/gcc/arm-none-eabi/10.3.1/../../../../arm-none-eabi/lib/thumb/v7e-m+dp/hard/libcr_c.a(strlen.o)
                                                  /usr/local/mcuxpressoide-11.6.1_8255/ide/plugins/com.nxp.mcuxpresso.tools.linux_11.6.1.202207200623/tools/bin/../lib/gcc/arm-none-eabi/10.3.1/../../../../arm-none-eabi/lib/thumb/v7e-m+dp/hard/libcr_c.a(remove.o)
                                                  ./utilities/fsl_debug_console.o
sysPllConfig_BOARD_BootClockRUN                   ./board/clock_config.o
usb1PllConfig_BOARD_BootClockRUN                  ./board/clock_config.o
