Archive member included to satisfy reference by file (symbol)

/home/asmir/Desktop/Dropbox/MCU/gcc/gcc-arm-none-eabi-7-2018-q2-update/bin/../lib/gcc/arm-none-eabi/7.3.1/../../../../arm-none-eabi/lib/thumb/v7e-m/fpv4-sp/hard/libc.a(lib_a-errno.o)
                              /home/asmir/Desktop/Dropbox/MCU/nxp/RT1021/projects/alencon-systems/bootloader-v0.3/build/fsl_sbrk.o (__errno)
/home/asmir/Desktop/Dropbox/MCU/gcc/gcc-arm-none-eabi-7-2018-q2-update/bin/../lib/gcc/arm-none-eabi/7.3.1/../../../../arm-none-eabi/lib/thumb/v7e-m/fpv4-sp/hard/libc.a(lib_a-exit.o)
                              /home/asmir/Desktop/Dropbox/MCU/gcc/gcc-arm-none-eabi-7-2018-q2-update/bin/../lib/gcc/arm-none-eabi/7.3.1/../../../../arm-none-eabi/lib/thumb/v7e-m/fpv4-sp/hard/crt0.o (exit)
/home/asmir/Desktop/Dropbox/MCU/gcc/gcc-arm-none-eabi-7-2018-q2-update/bin/../lib/gcc/arm-none-eabi/7.3.1/../../../../arm-none-eabi/lib/thumb/v7e-m/fpv4-sp/hard/libc.a(lib_a-impure.o)
                              /home/asmir/Desktop/Dropbox/MCU/gcc/gcc-arm-none-eabi-7-2018-q2-update/bin/../lib/gcc/arm-none-eabi/7.3.1/../../../../arm-none-eabi/lib/thumb/v7e-m/fpv4-sp/hard/libc.a(lib_a-exit.o) (_global_impure_ptr)
/home/asmir/Desktop/Dropbox/MCU/gcc/gcc-arm-none-eabi-7-2018-q2-update/bin/../lib/gcc/arm-none-eabi/7.3.1/../../../../arm-none-eabi/lib/thumb/v7e-m/fpv4-sp/hard/libc.a(lib_a-init.o)
                              /home/asmir/Desktop/Dropbox/MCU/gcc/gcc-arm-none-eabi-7-2018-q2-update/bin/../lib/gcc/arm-none-eabi/7.3.1/../../../../arm-none-eabi/lib/thumb/v7e-m/fpv4-sp/hard/crt0.o (__libc_init_array)
/home/asmir/Desktop/Dropbox/MCU/gcc/gcc-arm-none-eabi-7-2018-q2-update/bin/../lib/gcc/arm-none-eabi/7.3.1/../../../../arm-none-eabi/lib/thumb/v7e-m/fpv4-sp/hard/libc.a(lib_a-malloc.o)
                              /home/asmir/Desktop/Dropbox/MCU/nxp/RT1021/projects/alencon-systems/bootloader-v0.3/build/fsl_common.o (malloc)
/home/asmir/Desktop/Dropbox/MCU/gcc/gcc-arm-none-eabi-7-2018-q2-update/bin/../lib/gcc/arm-none-eabi/7.3.1/../../../../arm-none-eabi/lib/thumb/v7e-m/fpv4-sp/hard/libc.a(lib_a-mallocr.o)
                              /home/asmir/Desktop/Dropbox/MCU/gcc/gcc-arm-none-eabi-7-2018-q2-update/bin/../lib/gcc/arm-none-eabi/7.3.1/../../../../arm-none-eabi/lib/thumb/v7e-m/fpv4-sp/hard/libc.a(lib_a-malloc.o) (_malloc_r)
/home/asmir/Desktop/Dropbox/MCU/gcc/gcc-arm-none-eabi-7-2018-q2-update/bin/../lib/gcc/arm-none-eabi/7.3.1/../../../../arm-none-eabi/lib/thumb/v7e-m/fpv4-sp/hard/libc.a(lib_a-memcmp.o)
                              /home/asmir/Desktop/Dropbox/MCU/nxp/RT1021/projects/alencon-systems/bootloader-v0.3/build/nvm_objects.o (memcmp)
/home/asmir/Desktop/Dropbox/MCU/gcc/gcc-arm-none-eabi-7-2018-q2-update/bin/../lib/gcc/arm-none-eabi/7.3.1/../../../../arm-none-eabi/lib/thumb/v7e-m/fpv4-sp/hard/libc.a(lib_a-memcpy.o)
                              /home/asmir/Desktop/Dropbox/MCU/nxp/RT1021/projects/alencon-systems/bootloader-v0.3/build/flexspi_nor_flash_ops.o (memcpy)
/home/asmir/Desktop/Dropbox/MCU/gcc/gcc-arm-none-eabi-7-2018-q2-update/bin/../lib/gcc/arm-none-eabi/7.3.1/../../../../arm-none-eabi/lib/thumb/v7e-m/fpv4-sp/hard/libc.a(lib_a-memset.o)
                              /home/asmir/Desktop/Dropbox/MCU/gcc/gcc-arm-none-eabi-7-2018-q2-update/bin/../lib/gcc/arm-none-eabi/7.3.1/../../../../arm-none-eabi/lib/thumb/v7e-m/fpv4-sp/hard/crt0.o (memset)
/home/asmir/Desktop/Dropbox/MCU/gcc/gcc-arm-none-eabi-7-2018-q2-update/bin/../lib/gcc/arm-none-eabi/7.3.1/../../../../arm-none-eabi/lib/thumb/v7e-m/fpv4-sp/hard/libc.a(lib_a-mlock.o)
                              /home/asmir/Desktop/Dropbox/MCU/gcc/gcc-arm-none-eabi-7-2018-q2-update/bin/../lib/gcc/arm-none-eabi/7.3.1/../../../../arm-none-eabi/lib/thumb/v7e-m/fpv4-sp/hard/libc.a(lib_a-mallocr.o) (__malloc_lock)
/home/asmir/Desktop/Dropbox/MCU/gcc/gcc-arm-none-eabi-7-2018-q2-update/bin/../lib/gcc/arm-none-eabi/7.3.1/../../../../arm-none-eabi/lib/thumb/v7e-m/fpv4-sp/hard/libc.a(lib_a-sbrkr.o)
                              /home/asmir/Desktop/Dropbox/MCU/gcc/gcc-arm-none-eabi-7-2018-q2-update/bin/../lib/gcc/arm-none-eabi/7.3.1/../../../../arm-none-eabi/lib/thumb/v7e-m/fpv4-sp/hard/libc.a(lib_a-mallocr.o) (_sbrk_r)
/home/asmir/Desktop/Dropbox/MCU/gcc/gcc-arm-none-eabi-7-2018-q2-update/bin/../lib/gcc/arm-none-eabi/7.3.1/../../../../arm-none-eabi/lib/thumb/v7e-m/fpv4-sp/hard/libc.a(lib_a-strcasecmp.o)
                              /home/asmir/Desktop/Dropbox/MCU/nxp/RT1021/projects/alencon-systems/bootloader-v0.3/build/subsys.o (strcasecmp)
/home/asmir/Desktop/Dropbox/MCU/gcc/gcc-arm-none-eabi-7-2018-q2-update/bin/../lib/gcc/arm-none-eabi/7.3.1/../../../../arm-none-eabi/lib/thumb/v7e-m/fpv4-sp/hard/libc.a(lib_a-strlen.o)
                              /home/asmir/Desktop/Dropbox/MCU/nxp/RT1021/projects/alencon-systems/bootloader-v0.3/build/subsys.o (strlen)
/home/asmir/Desktop/Dropbox/MCU/gcc/gcc-arm-none-eabi-7-2018-q2-update/bin/../lib/gcc/arm-none-eabi/7.3.1/../../../../arm-none-eabi/lib/thumb/v7e-m/fpv4-sp/hard/libc.a(lib_a-__call_atexit.o)
                              /home/asmir/Desktop/Dropbox/MCU/gcc/gcc-arm-none-eabi-7-2018-q2-update/bin/../lib/gcc/arm-none-eabi/7.3.1/../../../../arm-none-eabi/lib/thumb/v7e-m/fpv4-sp/hard/libc.a(lib_a-exit.o) (__call_exitprocs)
/home/asmir/Desktop/Dropbox/MCU/gcc/gcc-arm-none-eabi-7-2018-q2-update/bin/../lib/gcc/arm-none-eabi/7.3.1/../../../../arm-none-eabi/lib/thumb/v7e-m/fpv4-sp/hard/libc.a(lib_a-atexit.o)
                              /home/asmir/Desktop/Dropbox/MCU/gcc/gcc-arm-none-eabi-7-2018-q2-update/bin/../lib/gcc/arm-none-eabi/7.3.1/../../../../arm-none-eabi/lib/thumb/v7e-m/fpv4-sp/hard/libc.a(lib_a-__call_atexit.o) (atexit)
/home/asmir/Desktop/Dropbox/MCU/gcc/gcc-arm-none-eabi-7-2018-q2-update/bin/../lib/gcc/arm-none-eabi/7.3.1/../../../../arm-none-eabi/lib/thumb/v7e-m/fpv4-sp/hard/libc.a(lib_a-fini.o)
                              /home/asmir/Desktop/Dropbox/MCU/gcc/gcc-arm-none-eabi-7-2018-q2-update/bin/../lib/gcc/arm-none-eabi/7.3.1/../../../../arm-none-eabi/lib/thumb/v7e-m/fpv4-sp/hard/libc.a(lib_a-__call_atexit.o) (__libc_fini_array)
/home/asmir/Desktop/Dropbox/MCU/gcc/gcc-arm-none-eabi-7-2018-q2-update/bin/../lib/gcc/arm-none-eabi/7.3.1/../../../../arm-none-eabi/lib/thumb/v7e-m/fpv4-sp/hard/libc.a(lib_a-freer.o)
                              /home/asmir/Desktop/Dropbox/MCU/gcc/gcc-arm-none-eabi-7-2018-q2-update/bin/../lib/gcc/arm-none-eabi/7.3.1/../../../../arm-none-eabi/lib/thumb/v7e-m/fpv4-sp/hard/libc.a(lib_a-malloc.o) (_free_r)
/home/asmir/Desktop/Dropbox/MCU/gcc/gcc-arm-none-eabi-7-2018-q2-update/bin/../lib/gcc/arm-none-eabi/7.3.1/../../../../arm-none-eabi/lib/thumb/v7e-m/fpv4-sp/hard/libc.a(lib_a-locale.o)
                              /home/asmir/Desktop/Dropbox/MCU/gcc/gcc-arm-none-eabi-7-2018-q2-update/bin/../lib/gcc/arm-none-eabi/7.3.1/../../../../arm-none-eabi/lib/thumb/v7e-m/fpv4-sp/hard/libc.a(lib_a-strcasecmp.o) (__locale_ctype_ptr)
/home/asmir/Desktop/Dropbox/MCU/gcc/gcc-arm-none-eabi-7-2018-q2-update/bin/../lib/gcc/arm-none-eabi/7.3.1/../../../../arm-none-eabi/lib/thumb/v7e-m/fpv4-sp/hard/libc.a(lib_a-lock.o)
                              /home/asmir/Desktop/Dropbox/MCU/gcc/gcc-arm-none-eabi-7-2018-q2-update/bin/../lib/gcc/arm-none-eabi/7.3.1/../../../../arm-none-eabi/lib/thumb/v7e-m/fpv4-sp/hard/libc.a(lib_a-mlock.o) (__retarget_lock_acquire_recursive)
/home/asmir/Desktop/Dropbox/MCU/gcc/gcc-arm-none-eabi-7-2018-q2-update/bin/../lib/gcc/arm-none-eabi/7.3.1/../../../../arm-none-eabi/lib/thumb/v7e-m/fpv4-sp/hard/libc.a(lib_a-mbtowc_r.o)
                              /home/asmir/Desktop/Dropbox/MCU/gcc/gcc-arm-none-eabi-7-2018-q2-update/bin/../lib/gcc/arm-none-eabi/7.3.1/../../../../arm-none-eabi/lib/thumb/v7e-m/fpv4-sp/hard/libc.a(lib_a-locale.o) (__ascii_mbtowc)
/home/asmir/Desktop/Dropbox/MCU/gcc/gcc-arm-none-eabi-7-2018-q2-update/bin/../lib/gcc/arm-none-eabi/7.3.1/../../../../arm-none-eabi/lib/thumb/v7e-m/fpv4-sp/hard/libc.a(lib_a-reent.o)
                              /home/asmir/Desktop/Dropbox/MCU/gcc/gcc-arm-none-eabi-7-2018-q2-update/bin/../lib/gcc/arm-none-eabi/7.3.1/../../../../arm-none-eabi/lib/thumb/v7e-m/fpv4-sp/hard/libc.a(lib_a-sbrkr.o) (errno)
/home/asmir/Desktop/Dropbox/MCU/gcc/gcc-arm-none-eabi-7-2018-q2-update/bin/../lib/gcc/arm-none-eabi/7.3.1/../../../../arm-none-eabi/lib/thumb/v7e-m/fpv4-sp/hard/libc.a(lib_a-strcmp.o)
                              /home/asmir/Desktop/Dropbox/MCU/gcc/gcc-arm-none-eabi-7-2018-q2-update/bin/../lib/gcc/arm-none-eabi/7.3.1/../../../../arm-none-eabi/lib/thumb/v7e-m/fpv4-sp/hard/libc.a(lib_a-locale.o) (strcmp)
/home/asmir/Desktop/Dropbox/MCU/gcc/gcc-arm-none-eabi-7-2018-q2-update/bin/../lib/gcc/arm-none-eabi/7.3.1/../../../../arm-none-eabi/lib/thumb/v7e-m/fpv4-sp/hard/libc.a(lib_a-wctomb_r.o)
                              /home/asmir/Desktop/Dropbox/MCU/gcc/gcc-arm-none-eabi-7-2018-q2-update/bin/../lib/gcc/arm-none-eabi/7.3.1/../../../../arm-none-eabi/lib/thumb/v7e-m/fpv4-sp/hard/libc.a(lib_a-locale.o) (__ascii_wctomb)
/home/asmir/Desktop/Dropbox/MCU/gcc/gcc-arm-none-eabi-7-2018-q2-update/bin/../lib/gcc/arm-none-eabi/7.3.1/../../../../arm-none-eabi/lib/thumb/v7e-m/fpv4-sp/hard/libc.a(lib_a-__atexit.o)
                              /home/asmir/Desktop/Dropbox/MCU/gcc/gcc-arm-none-eabi-7-2018-q2-update/bin/../lib/gcc/arm-none-eabi/7.3.1/../../../../arm-none-eabi/lib/thumb/v7e-m/fpv4-sp/hard/libc.a(lib_a-atexit.o) (__register_exitproc)
/home/asmir/Desktop/Dropbox/MCU/gcc/gcc-arm-none-eabi-7-2018-q2-update/bin/../lib/gcc/arm-none-eabi/7.3.1/../../../../arm-none-eabi/lib/thumb/v7e-m/fpv4-sp/hard/libc.a(lib_a-ctype_.o)
                              /home/asmir/Desktop/Dropbox/MCU/gcc/gcc-arm-none-eabi-7-2018-q2-update/bin/../lib/gcc/arm-none-eabi/7.3.1/../../../../arm-none-eabi/lib/thumb/v7e-m/fpv4-sp/hard/libc.a(lib_a-locale.o) (_ctype_)
/home/asmir/Desktop/Dropbox/MCU/gcc/gcc-arm-none-eabi-7-2018-q2-update/bin/../lib/gcc/arm-none-eabi/7.3.1/../../../../arm-none-eabi/lib/thumb/v7e-m/fpv4-sp/hard/libnosys.a(_exit.o)
                              /home/asmir/Desktop/Dropbox/MCU/gcc/gcc-arm-none-eabi-7-2018-q2-update/bin/../lib/gcc/arm-none-eabi/7.3.1/../../../../arm-none-eabi/lib/thumb/v7e-m/fpv4-sp/hard/libc.a(lib_a-exit.o) (_exit)
/home/asmir/Desktop/Dropbox/MCU/gcc/gcc-arm-none-eabi-7-2018-q2-update/bin/../lib/gcc/arm-none-eabi/7.3.1/thumb/v7e-m/fpv4-sp/hard/libgcc.a(_aeabi_ldivmod.o)
                              /home/asmir/Desktop/Dropbox/MCU/nxp/RT1021/projects/alencon-systems/bootloader-v0.3/build/system_MIMXRT1021.o (__aeabi_ldivmod)
/home/asmir/Desktop/Dropbox/MCU/gcc/gcc-arm-none-eabi-7-2018-q2-update/bin/../lib/gcc/arm-none-eabi/7.3.1/thumb/v7e-m/fpv4-sp/hard/libgcc.a(_aeabi_uldivmod.o)
                              /home/asmir/Desktop/Dropbox/MCU/nxp/RT1021/projects/alencon-systems/bootloader-v0.3/build/fsl_common_arm.o (__aeabi_uldivmod)
/home/asmir/Desktop/Dropbox/MCU/gcc/gcc-arm-none-eabi-7-2018-q2-update/bin/../lib/gcc/arm-none-eabi/7.3.1/thumb/v7e-m/fpv4-sp/hard/libgcc.a(_udivmoddi4.o)
                              /home/asmir/Desktop/Dropbox/MCU/gcc/gcc-arm-none-eabi-7-2018-q2-update/bin/../lib/gcc/arm-none-eabi/7.3.1/thumb/v7e-m/fpv4-sp/hard/libgcc.a(_aeabi_ldivmod.o) (__udivmoddi4)
/home/asmir/Desktop/Dropbox/MCU/gcc/gcc-arm-none-eabi-7-2018-q2-update/bin/../lib/gcc/arm-none-eabi/7.3.1/thumb/v7e-m/fpv4-sp/hard/libgcc.a(_dvmd_tls.o)
                              /home/asmir/Desktop/Dropbox/MCU/gcc/gcc-arm-none-eabi-7-2018-q2-update/bin/../lib/gcc/arm-none-eabi/7.3.1/thumb/v7e-m/fpv4-sp/hard/libgcc.a(_aeabi_ldivmod.o) (__aeabi_ldiv0)

Allocating common symbols
Common symbol       size              file

__lock___atexit_recursive_mutex
                    0x1               /home/asmir/Desktop/Dropbox/MCU/gcc/gcc-arm-none-eabi-7-2018-q2-update/bin/../lib/gcc/arm-none-eabi/7.3.1/../../../../arm-none-eabi/lib/thumb/v7e-m/fpv4-sp/hard/libc.a(lib_a-lock.o)
__lock___arc4random_mutex
                    0x1               /home/asmir/Desktop/Dropbox/MCU/gcc/gcc-arm-none-eabi-7-2018-q2-update/bin/../lib/gcc/arm-none-eabi/7.3.1/../../../../arm-none-eabi/lib/thumb/v7e-m/fpv4-sp/hard/libc.a(lib_a-lock.o)
errno               0x4               /home/asmir/Desktop/Dropbox/MCU/gcc/gcc-arm-none-eabi-7-2018-q2-update/bin/../lib/gcc/arm-none-eabi/7.3.1/../../../../arm-none-eabi/lib/thumb/v7e-m/fpv4-sp/hard/libc.a(lib_a-reent.o)
__lock___env_recursive_mutex
                    0x1               /home/asmir/Desktop/Dropbox/MCU/gcc/gcc-arm-none-eabi-7-2018-q2-update/bin/../lib/gcc/arm-none-eabi/7.3.1/../../../../arm-none-eabi/lib/thumb/v7e-m/fpv4-sp/hard/libc.a(lib_a-lock.o)
__lock___sinit_recursive_mutex
                    0x1               /home/asmir/Desktop/Dropbox/MCU/gcc/gcc-arm-none-eabi-7-2018-q2-update/bin/../lib/gcc/arm-none-eabi/7.3.1/../../../../arm-none-eabi/lib/thumb/v7e-m/fpv4-sp/hard/libc.a(lib_a-lock.o)
__lock___malloc_recursive_mutex
                    0x1               /home/asmir/Desktop/Dropbox/MCU/gcc/gcc-arm-none-eabi-7-2018-q2-update/bin/../lib/gcc/arm-none-eabi/7.3.1/../../../../arm-none-eabi/lib/thumb/v7e-m/fpv4-sp/hard/libc.a(lib_a-lock.o)
__lock___at_quick_exit_mutex
                    0x1               /home/asmir/Desktop/Dropbox/MCU/gcc/gcc-arm-none-eabi-7-2018-q2-update/bin/../lib/gcc/arm-none-eabi/7.3.1/../../../../arm-none-eabi/lib/thumb/v7e-m/fpv4-sp/hard/libc.a(lib_a-lock.o)
__lock___dd_hash_mutex
                    0x1               /home/asmir/Desktop/Dropbox/MCU/gcc/gcc-arm-none-eabi-7-2018-q2-update/bin/../lib/gcc/arm-none-eabi/7.3.1/../../../../arm-none-eabi/lib/thumb/v7e-m/fpv4-sp/hard/libc.a(lib_a-lock.o)
__lock___tz_mutex   0x1               /home/asmir/Desktop/Dropbox/MCU/gcc/gcc-arm-none-eabi-7-2018-q2-update/bin/../lib/gcc/arm-none-eabi/7.3.1/../../../../arm-none-eabi/lib/thumb/v7e-m/fpv4-sp/hard/libc.a(lib_a-lock.o)
__lock___sfp_recursive_mutex
                    0x1               /home/asmir/Desktop/Dropbox/MCU/gcc/gcc-arm-none-eabi-7-2018-q2-update/bin/../lib/gcc/arm-none-eabi/7.3.1/../../../../arm-none-eabi/lib/thumb/v7e-m/fpv4-sp/hard/libc.a(lib_a-lock.o)

Discarded input sections

 .text          0x0000000000000000        0x0 /home/asmir/Desktop/Dropbox/MCU/gcc/gcc-arm-none-eabi-7-2018-q2-update/bin/../lib/gcc/arm-none-eabi/7.3.1/thumb/v7e-m/fpv4-sp/hard/crti.o
 .data          0x0000000000000000        0x0 /home/asmir/Desktop/Dropbox/MCU/gcc/gcc-arm-none-eabi-7-2018-q2-update/bin/../lib/gcc/arm-none-eabi/7.3.1/thumb/v7e-m/fpv4-sp/hard/crti.o
 .bss           0x0000000000000000        0x0 /home/asmir/Desktop/Dropbox/MCU/gcc/gcc-arm-none-eabi-7-2018-q2-update/bin/../lib/gcc/arm-none-eabi/7.3.1/thumb/v7e-m/fpv4-sp/hard/crti.o
 .data          0x0000000000000000        0x4 /home/asmir/Desktop/Dropbox/MCU/gcc/gcc-arm-none-eabi-7-2018-q2-update/bin/../lib/gcc/arm-none-eabi/7.3.1/thumb/v7e-m/fpv4-sp/hard/crtbegin.o
 .text          0x0000000000000000       0x74 /home/asmir/Desktop/Dropbox/MCU/gcc/gcc-arm-none-eabi-7-2018-q2-update/bin/../lib/gcc/arm-none-eabi/7.3.1/../../../../arm-none-eabi/lib/thumb/v7e-m/fpv4-sp/hard/crt0.o
 .data          0x0000000000000000        0x0 /home/asmir/Desktop/Dropbox/MCU/gcc/gcc-arm-none-eabi-7-2018-q2-update/bin/../lib/gcc/arm-none-eabi/7.3.1/../../../../arm-none-eabi/lib/thumb/v7e-m/fpv4-sp/hard/crt0.o
 .bss           0x0000000000000000        0x0 /home/asmir/Desktop/Dropbox/MCU/gcc/gcc-arm-none-eabi-7-2018-q2-update/bin/../lib/gcc/arm-none-eabi/7.3.1/../../../../arm-none-eabi/lib/thumb/v7e-m/fpv4-sp/hard/crt0.o
 .ARM.extab     0x0000000000000000        0x0 /home/asmir/Desktop/Dropbox/MCU/gcc/gcc-arm-none-eabi-7-2018-q2-update/bin/../lib/gcc/arm-none-eabi/7.3.1/../../../../arm-none-eabi/lib/thumb/v7e-m/fpv4-sp/hard/crt0.o
 .ARM.exidx     0x0000000000000000        0x8 /home/asmir/Desktop/Dropbox/MCU/gcc/gcc-arm-none-eabi-7-2018-q2-update/bin/../lib/gcc/arm-none-eabi/7.3.1/../../../../arm-none-eabi/lib/thumb/v7e-m/fpv4-sp/hard/crt0.o
 .ARM.attributes
                0x0000000000000000       0x20 /home/asmir/Desktop/Dropbox/MCU/gcc/gcc-arm-none-eabi-7-2018-q2-update/bin/../lib/gcc/arm-none-eabi/7.3.1/../../../../arm-none-eabi/lib/thumb/v7e-m/fpv4-sp/hard/crt0.o
 .text          0x0000000000000000        0x0 /home/asmir/Desktop/Dropbox/MCU/nxp/RT1021/projects/alencon-systems/bootloader-v0.3/build/main.o
 .data          0x0000000000000000        0x0 /home/asmir/Desktop/Dropbox/MCU/nxp/RT1021/projects/alencon-systems/bootloader-v0.3/build/main.o
 .bss           0x0000000000000000        0x0 /home/asmir/Desktop/Dropbox/MCU/nxp/RT1021/projects/alencon-systems/bootloader-v0.3/build/main.o
 .text          0x0000000000000000        0x0 /home/asmir/Desktop/Dropbox/MCU/nxp/RT1021/projects/alencon-systems/bootloader-v0.3/build/systemclk.o
 .data          0x0000000000000000        0x0 /home/asmir/Desktop/Dropbox/MCU/nxp/RT1021/projects/alencon-systems/bootloader-v0.3/build/systemclk.o
 .bss           0x0000000000000000        0x0 /home/asmir/Desktop/Dropbox/MCU/nxp/RT1021/projects/alencon-systems/bootloader-v0.3/build/systemclk.o
 .text          0x0000000000000000        0x0 /home/asmir/Desktop/Dropbox/MCU/nxp/RT1021/projects/alencon-systems/bootloader-v0.3/build/delay.o
 .data          0x0000000000000000        0x0 /home/asmir/Desktop/Dropbox/MCU/nxp/RT1021/projects/alencon-systems/bootloader-v0.3/build/delay.o
 .bss           0x0000000000000000        0x0 /home/asmir/Desktop/Dropbox/MCU/nxp/RT1021/projects/alencon-systems/bootloader-v0.3/build/delay.o
 .text.delay_ms
                0x0000000000000000       0x3c /home/asmir/Desktop/Dropbox/MCU/nxp/RT1021/projects/alencon-systems/bootloader-v0.3/build/delay.o
 .text.delay_us
                0x0000000000000000       0x3c /home/asmir/Desktop/Dropbox/MCU/nxp/RT1021/projects/alencon-systems/bootloader-v0.3/build/delay.o
 .text.chk4TimeoutSYSTIM
                0x0000000000000000       0x28 /home/asmir/Desktop/Dropbox/MCU/nxp/RT1021/projects/alencon-systems/bootloader-v0.3/build/delay.o
 .text.getElapsedTimeSYSTIM
                0x0000000000000000       0x14 /home/asmir/Desktop/Dropbox/MCU/nxp/RT1021/projects/alencon-systems/bootloader-v0.3/build/delay.o
 .text          0x0000000000000000        0x0 /home/asmir/Desktop/Dropbox/MCU/nxp/RT1021/projects/alencon-systems/bootloader-v0.3/build/fwver.o
 .data          0x0000000000000000        0x0 /home/asmir/Desktop/Dropbox/MCU/nxp/RT1021/projects/alencon-systems/bootloader-v0.3/build/fwver.o
 .bss           0x0000000000000000        0x0 /home/asmir/Desktop/Dropbox/MCU/nxp/RT1021/projects/alencon-systems/bootloader-v0.3/build/fwver.o
 .text          0x0000000000000000        0x0 /home/asmir/Desktop/Dropbox/MCU/nxp/RT1021/projects/alencon-systems/bootloader-v0.3/build/debug.o
 .data          0x0000000000000000        0x0 /home/asmir/Desktop/Dropbox/MCU/nxp/RT1021/projects/alencon-systems/bootloader-v0.3/build/debug.o
 .bss           0x0000000000000000        0x0 /home/asmir/Desktop/Dropbox/MCU/nxp/RT1021/projects/alencon-systems/bootloader-v0.3/build/debug.o
 .text          0x0000000000000000        0x0 /home/asmir/Desktop/Dropbox/MCU/nxp/RT1021/projects/alencon-systems/bootloader-v0.3/build/misc.o
 .data          0x0000000000000000        0x0 /home/asmir/Desktop/Dropbox/MCU/nxp/RT1021/projects/alencon-systems/bootloader-v0.3/build/misc.o
 .bss           0x0000000000000000        0x0 /home/asmir/Desktop/Dropbox/MCU/nxp/RT1021/projects/alencon-systems/bootloader-v0.3/build/misc.o
 .text.getDNumMISC
                0x0000000000000000       0x40 /home/asmir/Desktop/Dropbox/MCU/nxp/RT1021/projects/alencon-systems/bootloader-v0.3/build/misc.o
 .text.getStrMISC
                0x0000000000000000      0x464 /home/asmir/Desktop/Dropbox/MCU/nxp/RT1021/projects/alencon-systems/bootloader-v0.3/build/misc.o
 .text.cpyStrMISC
                0x0000000000000000       0x24 /home/asmir/Desktop/Dropbox/MCU/nxp/RT1021/projects/alencon-systems/bootloader-v0.3/build/misc.o
 .text.catStrMISC
                0x0000000000000000       0x38 /home/asmir/Desktop/Dropbox/MCU/nxp/RT1021/projects/alencon-systems/bootloader-v0.3/build/misc.o
 .text.lenStrMISC
                0x0000000000000000       0x14 /home/asmir/Desktop/Dropbox/MCU/nxp/RT1021/projects/alencon-systems/bootloader-v0.3/build/misc.o
 .text.cmpStrMISC
                0x0000000000000000       0x74 /home/asmir/Desktop/Dropbox/MCU/nxp/RT1021/projects/alencon-systems/bootloader-v0.3/build/misc.o
 .text.cmpStrWithLenMISC
                0x0000000000000000       0x40 /home/asmir/Desktop/Dropbox/MCU/nxp/RT1021/projects/alencon-systems/bootloader-v0.3/build/misc.o
 .text.getStr4AddrMISC
                0x0000000000000000       0xe4 /home/asmir/Desktop/Dropbox/MCU/nxp/RT1021/projects/alencon-systems/bootloader-v0.3/build/misc.o
 .text          0x0000000000000000        0x0 /home/asmir/Desktop/Dropbox/MCU/nxp/RT1021/projects/alencon-systems/bootloader-v0.3/build/lpuart.o
 .data          0x0000000000000000        0x0 /home/asmir/Desktop/Dropbox/MCU/nxp/RT1021/projects/alencon-systems/bootloader-v0.3/build/lpuart.o
 .bss           0x0000000000000000        0x0 /home/asmir/Desktop/Dropbox/MCU/nxp/RT1021/projects/alencon-systems/bootloader-v0.3/build/lpuart.o
 .text.txLPUART2
                0x0000000000000000       0x38 /home/asmir/Desktop/Dropbox/MCU/nxp/RT1021/projects/alencon-systems/bootloader-v0.3/build/lpuart.o
 .text.putcharLPUART2
                0x0000000000000000       0x1c /home/asmir/Desktop/Dropbox/MCU/nxp/RT1021/projects/alencon-systems/bootloader-v0.3/build/lpuart.o
 .text.deinitLPUART1
                0x0000000000000000        0x4 /home/asmir/Desktop/Dropbox/MCU/nxp/RT1021/projects/alencon-systems/bootloader-v0.3/build/lpuart.o
 .text.initLPUART2
                0x0000000000000000       0x88 /home/asmir/Desktop/Dropbox/MCU/nxp/RT1021/projects/alencon-systems/bootloader-v0.3/build/lpuart.o
 .bss.g_lpuart1_cnt
                0x0000000000000000        0x4 /home/asmir/Desktop/Dropbox/MCU/nxp/RT1021/projects/alencon-systems/bootloader-v0.3/build/lpuart.o
 .bss.g_lpuart1_stat
                0x0000000000000000        0x4 /home/asmir/Desktop/Dropbox/MCU/nxp/RT1021/projects/alencon-systems/bootloader-v0.3/build/lpuart.o
 .bss.g_lpuart2_cnt
                0x0000000000000000        0x1 /home/asmir/Desktop/Dropbox/MCU/nxp/RT1021/projects/alencon-systems/bootloader-v0.3/build/lpuart.o
 .bss.g_lpuart2_data
                0x0000000000000000        0x4 /home/asmir/Desktop/Dropbox/MCU/nxp/RT1021/projects/alencon-systems/bootloader-v0.3/build/lpuart.o
 .rodata.initLPUART2.str1.4
                0x0000000000000000       0x13 /home/asmir/Desktop/Dropbox/MCU/nxp/RT1021/projects/alencon-systems/bootloader-v0.3/build/lpuart.o
 .text          0x0000000000000000        0x0 /home/asmir/Desktop/Dropbox/MCU/nxp/RT1021/projects/alencon-systems/bootloader-v0.3/build/board.o
 .data          0x0000000000000000        0x0 /home/asmir/Desktop/Dropbox/MCU/nxp/RT1021/projects/alencon-systems/bootloader-v0.3/build/board.o
 .bss           0x0000000000000000        0x0 /home/asmir/Desktop/Dropbox/MCU/nxp/RT1021/projects/alencon-systems/bootloader-v0.3/build/board.o
 .text.BOARD_DebugConsoleSrcFreq
                0x0000000000000000       0x60 /home/asmir/Desktop/Dropbox/MCU/nxp/RT1021/projects/alencon-systems/bootloader-v0.3/build/board.o
 .text.BOARD_InitDebugConsole
                0x0000000000000000        0x4 /home/asmir/Desktop/Dropbox/MCU/nxp/RT1021/projects/alencon-systems/bootloader-v0.3/build/board.o
 .text.BOARD_ConfigMPU
                0x0000000000000000      0x270 /home/asmir/Desktop/Dropbox/MCU/nxp/RT1021/projects/alencon-systems/bootloader-v0.3/build/board.o
 .rodata.BOARD_ConfigMPU.str1.4
                0x0000000000000000       0x4f /home/asmir/Desktop/Dropbox/MCU/nxp/RT1021/projects/alencon-systems/bootloader-v0.3/build/board.o
 .rodata.__func__.10249
                0x0000000000000000       0x10 /home/asmir/Desktop/Dropbox/MCU/nxp/RT1021/projects/alencon-systems/bootloader-v0.3/build/board.o
 .debug_info    0x0000000000000000     0x18d0 /home/asmir/Desktop/Dropbox/MCU/nxp/RT1021/projects/alencon-systems/bootloader-v0.3/build/board.o
 .debug_abbrev  0x0000000000000000      0x3c5 /home/asmir/Desktop/Dropbox/MCU/nxp/RT1021/projects/alencon-systems/bootloader-v0.3/build/board.o
 .debug_loc     0x0000000000000000       0xfc /home/asmir/Desktop/Dropbox/MCU/nxp/RT1021/projects/alencon-systems/bootloader-v0.3/build/board.o
 .debug_aranges
                0x0000000000000000       0x30 /home/asmir/Desktop/Dropbox/MCU/nxp/RT1021/projects/alencon-systems/bootloader-v0.3/build/board.o
 .debug_ranges  0x0000000000000000       0x98 /home/asmir/Desktop/Dropbox/MCU/nxp/RT1021/projects/alencon-systems/bootloader-v0.3/build/board.o
 .debug_line    0x0000000000000000      0x403 /home/asmir/Desktop/Dropbox/MCU/nxp/RT1021/projects/alencon-systems/bootloader-v0.3/build/board.o
 .debug_str     0x0000000000000000     0x1082 /home/asmir/Desktop/Dropbox/MCU/nxp/RT1021/projects/alencon-systems/bootloader-v0.3/build/board.o
 .comment       0x0000000000000000       0x80 /home/asmir/Desktop/Dropbox/MCU/nxp/RT1021/projects/alencon-systems/bootloader-v0.3/build/board.o
 .debug_frame   0x0000000000000000       0x60 /home/asmir/Desktop/Dropbox/MCU/nxp/RT1021/projects/alencon-systems/bootloader-v0.3/build/board.o
 .ARM.attributes
                0x0000000000000000       0x37 /home/asmir/Desktop/Dropbox/MCU/nxp/RT1021/projects/alencon-systems/bootloader-v0.3/build/board.o
 .text          0x0000000000000000        0x0 /home/asmir/Desktop/Dropbox/MCU/nxp/RT1021/projects/alencon-systems/bootloader-v0.3/build/evkmimxrt1020_flexspi_nor_config.o
 .data          0x0000000000000000        0x0 /home/asmir/Desktop/Dropbox/MCU/nxp/RT1021/projects/alencon-systems/bootloader-v0.3/build/evkmimxrt1020_flexspi_nor_config.o
 .bss           0x0000000000000000        0x0 /home/asmir/Desktop/Dropbox/MCU/nxp/RT1021/projects/alencon-systems/bootloader-v0.3/build/evkmimxrt1020_flexspi_nor_config.o
 .text          0x0000000000000000        0x0 /home/asmir/Desktop/Dropbox/MCU/nxp/RT1021/projects/alencon-systems/bootloader-v0.3/build/fsl_clock.o
 .data          0x0000000000000000        0x0 /home/asmir/Desktop/Dropbox/MCU/nxp/RT1021/projects/alencon-systems/bootloader-v0.3/build/fsl_clock.o
 .bss           0x0000000000000000        0x0 /home/asmir/Desktop/Dropbox/MCU/nxp/RT1021/projects/alencon-systems/bootloader-v0.3/build/fsl_clock.o
 .text.CLOCK_DeinitExternalClk
                0x0000000000000000       0x10 /home/asmir/Desktop/Dropbox/MCU/nxp/RT1021/projects/alencon-systems/bootloader-v0.3/build/fsl_clock.o
 .text.CLOCK_DeinitRcOsc24M
                0x0000000000000000       0x14 /home/asmir/Desktop/Dropbox/MCU/nxp/RT1021/projects/alencon-systems/bootloader-v0.3/build/fsl_clock.o
 .text.CLOCK_EnableUsbhs0Clock
                0x0000000000000000       0x58 /home/asmir/Desktop/Dropbox/MCU/nxp/RT1021/projects/alencon-systems/bootloader-v0.3/build/fsl_clock.o
 .text.CLOCK_DisableUsbhs0PhyPllClock
                0x0000000000000000       0x20 /home/asmir/Desktop/Dropbox/MCU/nxp/RT1021/projects/alencon-systems/bootloader-v0.3/build/fsl_clock.o
 .text.CLOCK_InitSysPll
                0x0000000000000000       0x70 /home/asmir/Desktop/Dropbox/MCU/nxp/RT1021/projects/alencon-systems/bootloader-v0.3/build/fsl_clock.o
 .text.CLOCK_DeinitSysPll
                0x0000000000000000       0x10 /home/asmir/Desktop/Dropbox/MCU/nxp/RT1021/projects/alencon-systems/bootloader-v0.3/build/fsl_clock.o
 .text.CLOCK_InitUsb1Pll
                0x0000000000000000       0x4c /home/asmir/Desktop/Dropbox/MCU/nxp/RT1021/projects/alencon-systems/bootloader-v0.3/build/fsl_clock.o
 .text.CLOCK_EnableUsbhs0PhyPllClock
                0x0000000000000000       0x48 /home/asmir/Desktop/Dropbox/MCU/nxp/RT1021/projects/alencon-systems/bootloader-v0.3/build/fsl_clock.o
 .text.CLOCK_DeinitUsb1Pll
                0x0000000000000000        0xc /home/asmir/Desktop/Dropbox/MCU/nxp/RT1021/projects/alencon-systems/bootloader-v0.3/build/fsl_clock.o
 .text.CLOCK_InitAudioPll
                0x0000000000000000       0xb4 /home/asmir/Desktop/Dropbox/MCU/nxp/RT1021/projects/alencon-systems/bootloader-v0.3/build/fsl_clock.o
 .text.CLOCK_DeinitEnetPll
                0x0000000000000000       0x10 /home/asmir/Desktop/Dropbox/MCU/nxp/RT1021/projects/alencon-systems/bootloader-v0.3/build/fsl_clock.o
 .text.CLOCK_GetPllFreq
                0x0000000000000000      0x19c /home/asmir/Desktop/Dropbox/MCU/nxp/RT1021/projects/alencon-systems/bootloader-v0.3/build/fsl_clock.o
 .text.CLOCK_GetPllUsb1SWFreq
                0x0000000000000000       0x20 /home/asmir/Desktop/Dropbox/MCU/nxp/RT1021/projects/alencon-systems/bootloader-v0.3/build/fsl_clock.o
 .text.CLOCK_GetPeriphClkFreq
                0x0000000000000000       0xd8 /home/asmir/Desktop/Dropbox/MCU/nxp/RT1021/projects/alencon-systems/bootloader-v0.3/build/fsl_clock.o
 .text.CLOCK_GetAhbFreq
                0x0000000000000000       0x1c /home/asmir/Desktop/Dropbox/MCU/nxp/RT1021/projects/alencon-systems/bootloader-v0.3/build/fsl_clock.o
 .text.CLOCK_GetIpgFreq
                0x0000000000000000       0x28 /home/asmir/Desktop/Dropbox/MCU/nxp/RT1021/projects/alencon-systems/bootloader-v0.3/build/fsl_clock.o
 .text.CLOCK_GetPerClkFreq
                0x0000000000000000       0x44 /home/asmir/Desktop/Dropbox/MCU/nxp/RT1021/projects/alencon-systems/bootloader-v0.3/build/fsl_clock.o
 .text.CLOCK_GetSemcFreq
                0x0000000000000000       0x6c /home/asmir/Desktop/Dropbox/MCU/nxp/RT1021/projects/alencon-systems/bootloader-v0.3/build/fsl_clock.o
 .text.CLOCK_GetFreq
                0x0000000000000000      0x1dc /home/asmir/Desktop/Dropbox/MCU/nxp/RT1021/projects/alencon-systems/bootloader-v0.3/build/fsl_clock.o
 .text.CLOCK_GetClockRootFreq
                0x0000000000000000       0x98 /home/asmir/Desktop/Dropbox/MCU/nxp/RT1021/projects/alencon-systems/bootloader-v0.3/build/fsl_clock.o
 .text.CLOCK_DeinitSysPfd
                0x0000000000000000       0x18 /home/asmir/Desktop/Dropbox/MCU/nxp/RT1021/projects/alencon-systems/bootloader-v0.3/build/fsl_clock.o
 .text.CLOCK_IsSysPfdEnabled
                0x0000000000000000       0x1c /home/asmir/Desktop/Dropbox/MCU/nxp/RT1021/projects/alencon-systems/bootloader-v0.3/build/fsl_clock.o
 .text.CLOCK_InitUsb1Pfd
                0x0000000000000000       0x34 /home/asmir/Desktop/Dropbox/MCU/nxp/RT1021/projects/alencon-systems/bootloader-v0.3/build/fsl_clock.o
 .text.CLOCK_DeinitUsb1Pfd
                0x0000000000000000       0x18 /home/asmir/Desktop/Dropbox/MCU/nxp/RT1021/projects/alencon-systems/bootloader-v0.3/build/fsl_clock.o
 .text.CLOCK_IsUsb1PfdEnabled
                0x0000000000000000       0x1c /home/asmir/Desktop/Dropbox/MCU/nxp/RT1021/projects/alencon-systems/bootloader-v0.3/build/fsl_clock.o
 .text.CLOCK_GetSysPfdFreq
                0x0000000000000000       0x7c /home/asmir/Desktop/Dropbox/MCU/nxp/RT1021/projects/alencon-systems/bootloader-v0.3/build/fsl_clock.o
 .text.CLOCK_GetUsb1PfdFreq
                0x0000000000000000       0x7c /home/asmir/Desktop/Dropbox/MCU/nxp/RT1021/projects/alencon-systems/bootloader-v0.3/build/fsl_clock.o
 .text.CLOCK_SetClockOutput1
                0x0000000000000000       0x34 /home/asmir/Desktop/Dropbox/MCU/nxp/RT1021/projects/alencon-systems/bootloader-v0.3/build/fsl_clock.o
 .text.CLOCK_SetClockOutput2
                0x0000000000000000       0x34 /home/asmir/Desktop/Dropbox/MCU/nxp/RT1021/projects/alencon-systems/bootloader-v0.3/build/fsl_clock.o
 .text.CLOCK_GetClockOutCLKO1Freq
                0x0000000000000000       0xac /home/asmir/Desktop/Dropbox/MCU/nxp/RT1021/projects/alencon-systems/bootloader-v0.3/build/fsl_clock.o
 .text.CLOCK_GetClockOutClkO2Freq
                0x0000000000000000       0xfc /home/asmir/Desktop/Dropbox/MCU/nxp/RT1021/projects/alencon-systems/bootloader-v0.3/build/fsl_clock.o
 .rodata.CLOCK_GetClockRootFreq.str1.4
                0x0000000000000000       0x23 /home/asmir/Desktop/Dropbox/MCU/nxp/RT1021/projects/alencon-systems/bootloader-v0.3/build/fsl_clock.o
 .rodata.CLOCK_GetPllFreq.str1.4
                0x0000000000000000        0x6 /home/asmir/Desktop/Dropbox/MCU/nxp/RT1021/projects/alencon-systems/bootloader-v0.3/build/fsl_clock.o
 .rodata.__func__.10152
                0x0000000000000000       0x17 /home/asmir/Desktop/Dropbox/MCU/nxp/RT1021/projects/alencon-systems/bootloader-v0.3/build/fsl_clock.o
 .rodata.__func__.10230
                0x0000000000000000       0x11 /home/asmir/Desktop/Dropbox/MCU/nxp/RT1021/projects/alencon-systems/bootloader-v0.3/build/fsl_clock.o
 .rodata.clockRootDivTupleArray.10145
                0x0000000000000000       0x68 /home/asmir/Desktop/Dropbox/MCU/nxp/RT1021/projects/alencon-systems/bootloader-v0.3/build/fsl_clock.o
 .rodata.clockRootMuxTupleArray.10144
                0x0000000000000000       0x34 /home/asmir/Desktop/Dropbox/MCU/nxp/RT1021/projects/alencon-systems/bootloader-v0.3/build/fsl_clock.o
 .rodata.clockRootSourceArray.10143
                0x0000000000000000       0x34 /home/asmir/Desktop/Dropbox/MCU/nxp/RT1021/projects/alencon-systems/bootloader-v0.3/build/fsl_clock.o
 .rodata.enetRefClkFreq.10220
                0x0000000000000000       0x10 /home/asmir/Desktop/Dropbox/MCU/nxp/RT1021/projects/alencon-systems/bootloader-v0.3/build/fsl_clock.o
 .rodata.g_ccmConfigUsbPll.10165
                0x0000000000000000        0x2 /home/asmir/Desktop/Dropbox/MCU/nxp/RT1021/projects/alencon-systems/bootloader-v0.3/build/fsl_clock.o
 .text          0x0000000000000000        0x0 /home/asmir/Desktop/Dropbox/MCU/nxp/RT1021/projects/alencon-systems/bootloader-v0.3/build/fsl_component_generic_list.o
 .data          0x0000000000000000        0x0 /home/asmir/Desktop/Dropbox/MCU/nxp/RT1021/projects/alencon-systems/bootloader-v0.3/build/fsl_component_generic_list.o
 .bss           0x0000000000000000        0x0 /home/asmir/Desktop/Dropbox/MCU/nxp/RT1021/projects/alencon-systems/bootloader-v0.3/build/fsl_component_generic_list.o
 .text.LIST_Init
                0x0000000000000000        0xc /home/asmir/Desktop/Dropbox/MCU/nxp/RT1021/projects/alencon-systems/bootloader-v0.3/build/fsl_component_generic_list.o
 .text.LIST_GetList
                0x0000000000000000        0x4 /home/asmir/Desktop/Dropbox/MCU/nxp/RT1021/projects/alencon-systems/bootloader-v0.3/build/fsl_component_generic_list.o
 .text.LIST_AddTail
                0x0000000000000000       0x3c /home/asmir/Desktop/Dropbox/MCU/nxp/RT1021/projects/alencon-systems/bootloader-v0.3/build/fsl_component_generic_list.o
 .text.LIST_AddHead
                0x0000000000000000       0x38 /home/asmir/Desktop/Dropbox/MCU/nxp/RT1021/projects/alencon-systems/bootloader-v0.3/build/fsl_component_generic_list.o
 .text.LIST_RemoveHead
                0x0000000000000000       0x34 /home/asmir/Desktop/Dropbox/MCU/nxp/RT1021/projects/alencon-systems/bootloader-v0.3/build/fsl_component_generic_list.o
 .text.LIST_GetHead
                0x0000000000000000        0x4 /home/asmir/Desktop/Dropbox/MCU/nxp/RT1021/projects/alencon-systems/bootloader-v0.3/build/fsl_component_generic_list.o
 .text.LIST_GetNext
                0x0000000000000000        0x4 /home/asmir/Desktop/Dropbox/MCU/nxp/RT1021/projects/alencon-systems/bootloader-v0.3/build/fsl_component_generic_list.o
 .text.LIST_GetPrev
                0x0000000000000000        0x4 /home/asmir/Desktop/Dropbox/MCU/nxp/RT1021/projects/alencon-systems/bootloader-v0.3/build/fsl_component_generic_list.o
 .text.LIST_RemoveElement
                0x0000000000000000       0x58 /home/asmir/Desktop/Dropbox/MCU/nxp/RT1021/projects/alencon-systems/bootloader-v0.3/build/fsl_component_generic_list.o
 .text.LIST_AddPrevElement
                0x0000000000000000       0x70 /home/asmir/Desktop/Dropbox/MCU/nxp/RT1021/projects/alencon-systems/bootloader-v0.3/build/fsl_component_generic_list.o
 .text.LIST_GetSize
                0x0000000000000000        0x4 /home/asmir/Desktop/Dropbox/MCU/nxp/RT1021/projects/alencon-systems/bootloader-v0.3/build/fsl_component_generic_list.o
 .text.LIST_GetAvailableSize
                0x0000000000000000        0x8 /home/asmir/Desktop/Dropbox/MCU/nxp/RT1021/projects/alencon-systems/bootloader-v0.3/build/fsl_component_generic_list.o
 .debug_info    0x0000000000000000     0x10a8 /home/asmir/Desktop/Dropbox/MCU/nxp/RT1021/projects/alencon-systems/bootloader-v0.3/build/fsl_component_generic_list.o
 .debug_abbrev  0x0000000000000000      0x3c3 /home/asmir/Desktop/Dropbox/MCU/nxp/RT1021/projects/alencon-systems/bootloader-v0.3/build/fsl_component_generic_list.o
 .debug_loc     0x0000000000000000      0x3a0 /home/asmir/Desktop/Dropbox/MCU/nxp/RT1021/projects/alencon-systems/bootloader-v0.3/build/fsl_component_generic_list.o
 .debug_aranges
                0x0000000000000000       0x78 /home/asmir/Desktop/Dropbox/MCU/nxp/RT1021/projects/alencon-systems/bootloader-v0.3/build/fsl_component_generic_list.o
 .debug_ranges  0x0000000000000000      0x118 /home/asmir/Desktop/Dropbox/MCU/nxp/RT1021/projects/alencon-systems/bootloader-v0.3/build/fsl_component_generic_list.o
 .debug_line    0x0000000000000000      0x431 /home/asmir/Desktop/Dropbox/MCU/nxp/RT1021/projects/alencon-systems/bootloader-v0.3/build/fsl_component_generic_list.o
 .debug_str     0x0000000000000000      0x8bf /home/asmir/Desktop/Dropbox/MCU/nxp/RT1021/projects/alencon-systems/bootloader-v0.3/build/fsl_component_generic_list.o
 .comment       0x0000000000000000       0x80 /home/asmir/Desktop/Dropbox/MCU/nxp/RT1021/projects/alencon-systems/bootloader-v0.3/build/fsl_component_generic_list.o
 .debug_frame   0x0000000000000000      0x124 /home/asmir/Desktop/Dropbox/MCU/nxp/RT1021/projects/alencon-systems/bootloader-v0.3/build/fsl_component_generic_list.o
 .ARM.attributes
                0x0000000000000000       0x37 /home/asmir/Desktop/Dropbox/MCU/nxp/RT1021/projects/alencon-systems/bootloader-v0.3/build/fsl_component_generic_list.o
 .text          0x0000000000000000        0x0 /home/asmir/Desktop/Dropbox/MCU/nxp/RT1021/projects/alencon-systems/bootloader-v0.3/build/fsl_gpio.o
 .data          0x0000000000000000        0x0 /home/asmir/Desktop/Dropbox/MCU/nxp/RT1021/projects/alencon-systems/bootloader-v0.3/build/fsl_gpio.o
 .bss           0x0000000000000000        0x0 /home/asmir/Desktop/Dropbox/MCU/nxp/RT1021/projects/alencon-systems/bootloader-v0.3/build/fsl_gpio.o
 .text.unlikely.GPIO_PinWrite.part.0
                0x0000000000000000       0x1c /home/asmir/Desktop/Dropbox/MCU/nxp/RT1021/projects/alencon-systems/bootloader-v0.3/build/fsl_gpio.o
 .text.GPIO_PinWrite
                0x0000000000000000       0x1c /home/asmir/Desktop/Dropbox/MCU/nxp/RT1021/projects/alencon-systems/bootloader-v0.3/build/fsl_gpio.o
 .text.GPIO_PinSetInterruptConfig
                0x0000000000000000       0x8c /home/asmir/Desktop/Dropbox/MCU/nxp/RT1021/projects/alencon-systems/bootloader-v0.3/build/fsl_gpio.o
 .text.GPIO_PinInit
                0x0000000000000000       0xc0 /home/asmir/Desktop/Dropbox/MCU/nxp/RT1021/projects/alencon-systems/bootloader-v0.3/build/fsl_gpio.o
 .rodata.GPIO_PinInit.str1.4
                0x0000000000000000       0x23 /home/asmir/Desktop/Dropbox/MCU/nxp/RT1021/projects/alencon-systems/bootloader-v0.3/build/fsl_gpio.o
 .rodata.GPIO_PinWrite.part.0.str1.4
                0x0000000000000000       0x21 /home/asmir/Desktop/Dropbox/MCU/nxp/RT1021/projects/alencon-systems/bootloader-v0.3/build/fsl_gpio.o
 .rodata.__func__.10161
                0x0000000000000000       0x11 /home/asmir/Desktop/Dropbox/MCU/nxp/RT1021/projects/alencon-systems/bootloader-v0.3/build/fsl_gpio.o
 .rodata.__func__.10173
                0x0000000000000000        0xe /home/asmir/Desktop/Dropbox/MCU/nxp/RT1021/projects/alencon-systems/bootloader-v0.3/build/fsl_gpio.o
 .rodata.s_gpioClock
                0x0000000000000000        0xc /home/asmir/Desktop/Dropbox/MCU/nxp/RT1021/projects/alencon-systems/bootloader-v0.3/build/fsl_gpio.o
 .debug_info    0x0000000000000000     0x179a /home/asmir/Desktop/Dropbox/MCU/nxp/RT1021/projects/alencon-systems/bootloader-v0.3/build/fsl_gpio.o
 .debug_abbrev  0x0000000000000000      0x3f5 /home/asmir/Desktop/Dropbox/MCU/nxp/RT1021/projects/alencon-systems/bootloader-v0.3/build/fsl_gpio.o
 .debug_loc     0x0000000000000000      0x5fe /home/asmir/Desktop/Dropbox/MCU/nxp/RT1021/projects/alencon-systems/bootloader-v0.3/build/fsl_gpio.o
 .debug_aranges
                0x0000000000000000       0x38 /home/asmir/Desktop/Dropbox/MCU/nxp/RT1021/projects/alencon-systems/bootloader-v0.3/build/fsl_gpio.o
 .debug_ranges  0x0000000000000000       0xa8 /home/asmir/Desktop/Dropbox/MCU/nxp/RT1021/projects/alencon-systems/bootloader-v0.3/build/fsl_gpio.o
 .debug_line    0x0000000000000000      0x339 /home/asmir/Desktop/Dropbox/MCU/nxp/RT1021/projects/alencon-systems/bootloader-v0.3/build/fsl_gpio.o
 .debug_str     0x0000000000000000     0x18fa /home/asmir/Desktop/Dropbox/MCU/nxp/RT1021/projects/alencon-systems/bootloader-v0.3/build/fsl_gpio.o
 .comment       0x0000000000000000       0x80 /home/asmir/Desktop/Dropbox/MCU/nxp/RT1021/projects/alencon-systems/bootloader-v0.3/build/fsl_gpio.o
 .debug_frame   0x0000000000000000       0xa0 /home/asmir/Desktop/Dropbox/MCU/nxp/RT1021/projects/alencon-systems/bootloader-v0.3/build/fsl_gpio.o
 .ARM.attributes
                0x0000000000000000       0x37 /home/asmir/Desktop/Dropbox/MCU/nxp/RT1021/projects/alencon-systems/bootloader-v0.3/build/fsl_gpio.o
 .text          0x0000000000000000        0x0 /home/asmir/Desktop/Dropbox/MCU/nxp/RT1021/projects/alencon-systems/bootloader-v0.3/build/pin_mux.o
 .data          0x0000000000000000        0x0 /home/asmir/Desktop/Dropbox/MCU/nxp/RT1021/projects/alencon-systems/bootloader-v0.3/build/pin_mux.o
 .bss           0x0000000000000000        0x0 /home/asmir/Desktop/Dropbox/MCU/nxp/RT1021/projects/alencon-systems/bootloader-v0.3/build/pin_mux.o
 .text          0x0000000000000000        0x0 /home/asmir/Desktop/Dropbox/MCU/nxp/RT1021/projects/alencon-systems/bootloader-v0.3/build/clock_config.o
 .data          0x0000000000000000        0x0 /home/asmir/Desktop/Dropbox/MCU/nxp/RT1021/projects/alencon-systems/bootloader-v0.3/build/clock_config.o
 .bss           0x0000000000000000        0x0 /home/asmir/Desktop/Dropbox/MCU/nxp/RT1021/projects/alencon-systems/bootloader-v0.3/build/clock_config.o
 .text.unlikely.CLOCK_ControlGate.part.1
                0x0000000000000000       0x1c /home/asmir/Desktop/Dropbox/MCU/nxp/RT1021/projects/alencon-systems/bootloader-v0.3/build/clock_config.o
 .rodata.CLOCK_ControlGate.part.1.str1.4
                0x0000000000000000       0x26 /home/asmir/Desktop/Dropbox/MCU/nxp/RT1021/projects/alencon-systems/bootloader-v0.3/build/clock_config.o
 .rodata.__func__.9905
                0x0000000000000000       0x12 /home/asmir/Desktop/Dropbox/MCU/nxp/RT1021/projects/alencon-systems/bootloader-v0.3/build/clock_config.o
 .rodata.sysPllConfig_BOARD_BootClockRUN
                0x0000000000000000       0x14 /home/asmir/Desktop/Dropbox/MCU/nxp/RT1021/projects/alencon-systems/bootloader-v0.3/build/clock_config.o
 .rodata.usb1PllConfig_BOARD_BootClockRUN
                0x0000000000000000        0x2 /home/asmir/Desktop/Dropbox/MCU/nxp/RT1021/projects/alencon-systems/bootloader-v0.3/build/clock_config.o
 .text          0x0000000000000000        0x0 /home/asmir/Desktop/Dropbox/MCU/nxp/RT1021/projects/alencon-systems/bootloader-v0.3/build/fsl_common_arm.o
 .data          0x0000000000000000        0x0 /home/asmir/Desktop/Dropbox/MCU/nxp/RT1021/projects/alencon-systems/bootloader-v0.3/build/fsl_common_arm.o
 .bss           0x0000000000000000        0x0 /home/asmir/Desktop/Dropbox/MCU/nxp/RT1021/projects/alencon-systems/bootloader-v0.3/build/fsl_common_arm.o
 .text.SDK_DelayAtLeastUs
                0x0000000000000000       0x50 /home/asmir/Desktop/Dropbox/MCU/nxp/RT1021/projects/alencon-systems/bootloader-v0.3/build/fsl_common_arm.o
 .rodata.SDK_DelayAtLeastUs.str1.4
                0x0000000000000000       0x2f /home/asmir/Desktop/Dropbox/MCU/nxp/RT1021/projects/alencon-systems/bootloader-v0.3/build/fsl_common_arm.o
 .rodata.__func__.10051
                0x0000000000000000       0x13 /home/asmir/Desktop/Dropbox/MCU/nxp/RT1021/projects/alencon-systems/bootloader-v0.3/build/fsl_common_arm.o
 .debug_info    0x0000000000000000      0x9ca /home/asmir/Desktop/Dropbox/MCU/nxp/RT1021/projects/alencon-systems/bootloader-v0.3/build/fsl_common_arm.o
 .debug_abbrev  0x0000000000000000      0x23b /home/asmir/Desktop/Dropbox/MCU/nxp/RT1021/projects/alencon-systems/bootloader-v0.3/build/fsl_common_arm.o
 .debug_loc     0x0000000000000000      0x141 /home/asmir/Desktop/Dropbox/MCU/nxp/RT1021/projects/alencon-systems/bootloader-v0.3/build/fsl_common_arm.o
 .debug_aranges
                0x0000000000000000       0x20 /home/asmir/Desktop/Dropbox/MCU/nxp/RT1021/projects/alencon-systems/bootloader-v0.3/build/fsl_common_arm.o
 .debug_ranges  0x0000000000000000       0x10 /home/asmir/Desktop/Dropbox/MCU/nxp/RT1021/projects/alencon-systems/bootloader-v0.3/build/fsl_common_arm.o
 .debug_line    0x0000000000000000      0x219 /home/asmir/Desktop/Dropbox/MCU/nxp/RT1021/projects/alencon-systems/bootloader-v0.3/build/fsl_common_arm.o
 .debug_str     0x0000000000000000      0x6de /home/asmir/Desktop/Dropbox/MCU/nxp/RT1021/projects/alencon-systems/bootloader-v0.3/build/fsl_common_arm.o
 .comment       0x0000000000000000       0x80 /home/asmir/Desktop/Dropbox/MCU/nxp/RT1021/projects/alencon-systems/bootloader-v0.3/build/fsl_common_arm.o
 .debug_frame   0x0000000000000000       0x28 /home/asmir/Desktop/Dropbox/MCU/nxp/RT1021/projects/alencon-systems/bootloader-v0.3/build/fsl_common_arm.o
 .ARM.attributes
                0x0000000000000000       0x37 /home/asmir/Desktop/Dropbox/MCU/nxp/RT1021/projects/alencon-systems/bootloader-v0.3/build/fsl_common_arm.o
 .text          0x0000000000000000        0x0 /home/asmir/Desktop/Dropbox/MCU/nxp/RT1021/projects/alencon-systems/bootloader-v0.3/build/system_MIMXRT1021.o
 .data          0x0000000000000000        0x0 /home/asmir/Desktop/Dropbox/MCU/nxp/RT1021/projects/alencon-systems/bootloader-v0.3/build/system_MIMXRT1021.o
 .bss           0x0000000000000000        0x0 /home/asmir/Desktop/Dropbox/MCU/nxp/RT1021/projects/alencon-systems/bootloader-v0.3/build/system_MIMXRT1021.o
 .text.SystemCoreClockUpdate
                0x0000000000000000      0x108 /home/asmir/Desktop/Dropbox/MCU/nxp/RT1021/projects/alencon-systems/bootloader-v0.3/build/system_MIMXRT1021.o
 .text          0x0000000000000000        0x0 /home/asmir/Desktop/Dropbox/MCU/nxp/RT1021/projects/alencon-systems/bootloader-v0.3/build/dcd.o
 .data          0x0000000000000000        0x0 /home/asmir/Desktop/Dropbox/MCU/nxp/RT1021/projects/alencon-systems/bootloader-v0.3/build/dcd.o
 .bss           0x0000000000000000        0x0 /home/asmir/Desktop/Dropbox/MCU/nxp/RT1021/projects/alencon-systems/bootloader-v0.3/build/dcd.o
 .text          0x0000000000000000        0x0 /home/asmir/Desktop/Dropbox/MCU/nxp/RT1021/projects/alencon-systems/bootloader-v0.3/build/fsl_assert.o
 .data          0x0000000000000000        0x0 /home/asmir/Desktop/Dropbox/MCU/nxp/RT1021/projects/alencon-systems/bootloader-v0.3/build/fsl_assert.o
 .bss           0x0000000000000000        0x0 /home/asmir/Desktop/Dropbox/MCU/nxp/RT1021/projects/alencon-systems/bootloader-v0.3/build/fsl_assert.o
 .text          0x0000000000000000        0x0 /home/asmir/Desktop/Dropbox/MCU/nxp/RT1021/projects/alencon-systems/bootloader-v0.3/build/fsl_common.o
 .data          0x0000000000000000        0x0 /home/asmir/Desktop/Dropbox/MCU/nxp/RT1021/projects/alencon-systems/bootloader-v0.3/build/fsl_common.o
 .bss           0x0000000000000000        0x0 /home/asmir/Desktop/Dropbox/MCU/nxp/RT1021/projects/alencon-systems/bootloader-v0.3/build/fsl_common.o
 .text.SDK_Malloc
                0x0000000000000000       0x44 /home/asmir/Desktop/Dropbox/MCU/nxp/RT1021/projects/alencon-systems/bootloader-v0.3/build/fsl_common.o
 .text.SDK_Free
                0x0000000000000000       0x18 /home/asmir/Desktop/Dropbox/MCU/nxp/RT1021/projects/alencon-systems/bootloader-v0.3/build/fsl_common.o
 .debug_info    0x0000000000000000      0xa76 /home/asmir/Desktop/Dropbox/MCU/nxp/RT1021/projects/alencon-systems/bootloader-v0.3/build/fsl_common.o
 .debug_abbrev  0x0000000000000000      0x22f /home/asmir/Desktop/Dropbox/MCU/nxp/RT1021/projects/alencon-systems/bootloader-v0.3/build/fsl_common.o
 .debug_loc     0x0000000000000000      0x199 /home/asmir/Desktop/Dropbox/MCU/nxp/RT1021/projects/alencon-systems/bootloader-v0.3/build/fsl_common.o
 .debug_aranges
                0x0000000000000000       0x28 /home/asmir/Desktop/Dropbox/MCU/nxp/RT1021/projects/alencon-systems/bootloader-v0.3/build/fsl_common.o
 .debug_ranges  0x0000000000000000       0x18 /home/asmir/Desktop/Dropbox/MCU/nxp/RT1021/projects/alencon-systems/bootloader-v0.3/build/fsl_common.o
 .debug_line    0x0000000000000000      0x21d /home/asmir/Desktop/Dropbox/MCU/nxp/RT1021/projects/alencon-systems/bootloader-v0.3/build/fsl_common.o
 .debug_str     0x0000000000000000      0x74a /home/asmir/Desktop/Dropbox/MCU/nxp/RT1021/projects/alencon-systems/bootloader-v0.3/build/fsl_common.o
 .comment       0x0000000000000000       0x80 /home/asmir/Desktop/Dropbox/MCU/nxp/RT1021/projects/alencon-systems/bootloader-v0.3/build/fsl_common.o
 .debug_frame   0x0000000000000000       0x3c /home/asmir/Desktop/Dropbox/MCU/nxp/RT1021/projects/alencon-systems/bootloader-v0.3/build/fsl_common.o
 .ARM.attributes
                0x0000000000000000       0x37 /home/asmir/Desktop/Dropbox/MCU/nxp/RT1021/projects/alencon-systems/bootloader-v0.3/build/fsl_common.o
 .text          0x0000000000000000        0x0 /home/asmir/Desktop/Dropbox/MCU/nxp/RT1021/projects/alencon-systems/bootloader-v0.3/build/fsl_flexspi_nor_boot.o
 .data          0x0000000000000000        0x0 /home/asmir/Desktop/Dropbox/MCU/nxp/RT1021/projects/alencon-systems/bootloader-v0.3/build/fsl_flexspi_nor_boot.o
 .bss           0x0000000000000000        0x0 /home/asmir/Desktop/Dropbox/MCU/nxp/RT1021/projects/alencon-systems/bootloader-v0.3/build/fsl_flexspi_nor_boot.o
 .text          0x0000000000000000        0x0 /home/asmir/Desktop/Dropbox/MCU/nxp/RT1021/projects/alencon-systems/bootloader-v0.3/build/fsl_sbrk.o
 .data          0x0000000000000000        0x0 /home/asmir/Desktop/Dropbox/MCU/nxp/RT1021/projects/alencon-systems/bootloader-v0.3/build/fsl_sbrk.o
 .bss           0x0000000000000000        0x0 /home/asmir/Desktop/Dropbox/MCU/nxp/RT1021/projects/alencon-systems/bootloader-v0.3/build/fsl_sbrk.o
 .text          0x0000000000000000        0x0 /home/asmir/Desktop/Dropbox/MCU/nxp/RT1021/projects/alencon-systems/bootloader-v0.3/build/flash.o
 .data          0x0000000000000000        0x0 /home/asmir/Desktop/Dropbox/MCU/nxp/RT1021/projects/alencon-systems/bootloader-v0.3/build/flash.o
 .bss           0x0000000000000000        0x0 /home/asmir/Desktop/Dropbox/MCU/nxp/RT1021/projects/alencon-systems/bootloader-v0.3/build/flash.o
 .text          0x0000000000000000        0x0 /home/asmir/Desktop/Dropbox/MCU/nxp/RT1021/projects/alencon-systems/bootloader-v0.3/build/timing.o
 .data          0x0000000000000000        0x0 /home/asmir/Desktop/Dropbox/MCU/nxp/RT1021/projects/alencon-systems/bootloader-v0.3/build/timing.o
 .bss           0x0000000000000000        0x0 /home/asmir/Desktop/Dropbox/MCU/nxp/RT1021/projects/alencon-systems/bootloader-v0.3/build/timing.o
 .text.TimingISR
                0x0000000000000000       0x24 /home/asmir/Desktop/Dropbox/MCU/nxp/RT1021/projects/alencon-systems/bootloader-v0.3/build/timing.o
 .text.hal_Timing_Init
                0x0000000000000000       0x28 /home/asmir/Desktop/Dropbox/MCU/nxp/RT1021/projects/alencon-systems/bootloader-v0.3/build/timing.o
 .text.TimeNowUs
                0x0000000000000000       0x18 /home/asmir/Desktop/Dropbox/MCU/nxp/RT1021/projects/alencon-systems/bootloader-v0.3/build/timing.o
 .text.DelayUs  0x0000000000000000       0x2c /home/asmir/Desktop/Dropbox/MCU/nxp/RT1021/projects/alencon-systems/bootloader-v0.3/build/timing.o
 .text.TimeSinceUs
                0x0000000000000000       0x18 /home/asmir/Desktop/Dropbox/MCU/nxp/RT1021/projects/alencon-systems/bootloader-v0.3/build/timing.o
 .text.Timing_EnableTimer
                0x0000000000000000        0xc /home/asmir/Desktop/Dropbox/MCU/nxp/RT1021/projects/alencon-systems/bootloader-v0.3/build/timing.o
 .text.Timing_DisableTimer
                0x0000000000000000        0xc /home/asmir/Desktop/Dropbox/MCU/nxp/RT1021/projects/alencon-systems/bootloader-v0.3/build/timing.o
 .text.Timing_IsEnabled
                0x0000000000000000        0xc /home/asmir/Desktop/Dropbox/MCU/nxp/RT1021/projects/alencon-systems/bootloader-v0.3/build/timing.o
 .text          0x0000000000000000        0x0 /home/asmir/Desktop/Dropbox/MCU/nxp/RT1021/projects/alencon-systems/bootloader-v0.3/build/fsl_flexspi.o
 .data          0x0000000000000000        0x0 /home/asmir/Desktop/Dropbox/MCU/nxp/RT1021/projects/alencon-systems/bootloader-v0.3/build/fsl_flexspi.o
 .bss           0x0000000000000000        0x0 /home/asmir/Desktop/Dropbox/MCU/nxp/RT1021/projects/alencon-systems/bootloader-v0.3/build/fsl_flexspi.o
 .text.unlikely.FLEXSPI_TransferAbort.part.4
                0x0000000000000000       0x1c /home/asmir/Desktop/Dropbox/MCU/nxp/RT1021/projects/alencon-systems/bootloader-v0.3/build/fsl_flexspi.o
 .text.FLEXSPI_GetInstance
                0x0000000000000000       0x14 /home/asmir/Desktop/Dropbox/MCU/nxp/RT1021/projects/alencon-systems/bootloader-v0.3/build/fsl_flexspi.o
 .text.FLEXSPI_TransferHandleIRQ
                0x0000000000000000      0x160 /home/asmir/Desktop/Dropbox/MCU/nxp/RT1021/projects/alencon-systems/bootloader-v0.3/build/fsl_flexspi.o
 .text.FLEXSPI_Deinit
                0x0000000000000000       0x10 /home/asmir/Desktop/Dropbox/MCU/nxp/RT1021/projects/alencon-systems/bootloader-v0.3/build/fsl_flexspi.o
 .text.FLEXSPI_UpdateRxSampleClock
                0x0000000000000000       0x30 /home/asmir/Desktop/Dropbox/MCU/nxp/RT1021/projects/alencon-systems/bootloader-v0.3/build/fsl_flexspi.o
 .text.FLEXSPI_TransferCreateHandle
                0x0000000000000000       0x64 /home/asmir/Desktop/Dropbox/MCU/nxp/RT1021/projects/alencon-systems/bootloader-v0.3/build/fsl_flexspi.o
 .text.FLEXSPI_TransferNonBlocking
                0x0000000000000000       0xe4 /home/asmir/Desktop/Dropbox/MCU/nxp/RT1021/projects/alencon-systems/bootloader-v0.3/build/fsl_flexspi.o
 .text.FLEXSPI_TransferGetCount
                0x0000000000000000       0x34 /home/asmir/Desktop/Dropbox/MCU/nxp/RT1021/projects/alencon-systems/bootloader-v0.3/build/fsl_flexspi.o
 .text.FLEXSPI_TransferAbort
                0x0000000000000000       0x1c /home/asmir/Desktop/Dropbox/MCU/nxp/RT1021/projects/alencon-systems/bootloader-v0.3/build/fsl_flexspi.o
 .rodata.FLEXSPI_TransferAbort.part.4.str1.4
                0x0000000000000000        0xf /home/asmir/Desktop/Dropbox/MCU/nxp/RT1021/projects/alencon-systems/bootloader-v0.3/build/fsl_flexspi.o
 .rodata.FLEXSPI_TransferNonBlocking.str1.4
                0x0000000000000000        0xd /home/asmir/Desktop/Dropbox/MCU/nxp/RT1021/projects/alencon-systems/bootloader-v0.3/build/fsl_flexspi.o
 .rodata.__func__.11442
                0x0000000000000000       0x1d /home/asmir/Desktop/Dropbox/MCU/nxp/RT1021/projects/alencon-systems/bootloader-v0.3/build/fsl_flexspi.o
 .rodata.__func__.11451
                0x0000000000000000       0x1c /home/asmir/Desktop/Dropbox/MCU/nxp/RT1021/projects/alencon-systems/bootloader-v0.3/build/fsl_flexspi.o
 .rodata.__func__.11457
                0x0000000000000000       0x19 /home/asmir/Desktop/Dropbox/MCU/nxp/RT1021/projects/alencon-systems/bootloader-v0.3/build/fsl_flexspi.o
 .rodata.__func__.11463
                0x0000000000000000       0x16 /home/asmir/Desktop/Dropbox/MCU/nxp/RT1021/projects/alencon-systems/bootloader-v0.3/build/fsl_flexspi.o
 .text          0x0000000000000000        0x0 /home/asmir/Desktop/Dropbox/MCU/nxp/RT1021/projects/alencon-systems/bootloader-v0.3/build/flexspi_nor_flash_ops.o
 .data          0x0000000000000000        0x0 /home/asmir/Desktop/Dropbox/MCU/nxp/RT1021/projects/alencon-systems/bootloader-v0.3/build/flexspi_nor_flash_ops.o
 .bss           0x0000000000000000        0x0 /home/asmir/Desktop/Dropbox/MCU/nxp/RT1021/projects/alencon-systems/bootloader-v0.3/build/flexspi_nor_flash_ops.o
 .text.flexspi_nor_write_enable
                0x0000000000000000       0x24 /home/asmir/Desktop/Dropbox/MCU/nxp/RT1021/projects/alencon-systems/bootloader-v0.3/build/flexspi_nor_flash_ops.o
 .text.flexspi_nor_flash_page_program
                0x0000000000000000       0x8c /home/asmir/Desktop/Dropbox/MCU/nxp/RT1021/projects/alencon-systems/bootloader-v0.3/build/flexspi_nor_flash_ops.o
 .text.flexspi_nor_get_vendor_id
                0x0000000000000000       0x44 /home/asmir/Desktop/Dropbox/MCU/nxp/RT1021/projects/alencon-systems/bootloader-v0.3/build/flexspi_nor_flash_ops.o
 .text.flexspi_nor_erase_chip
                0x0000000000000000       0x68 /home/asmir/Desktop/Dropbox/MCU/nxp/RT1021/projects/alencon-systems/bootloader-v0.3/build/flexspi_nor_flash_ops.o
 .text          0x0000000000000000        0x0 /home/asmir/Desktop/Dropbox/MCU/nxp/RT1021/projects/alencon-systems/bootloader-v0.3/build/fsl_cache.o
 .data          0x0000000000000000        0x0 /home/asmir/Desktop/Dropbox/MCU/nxp/RT1021/projects/alencon-systems/bootloader-v0.3/build/fsl_cache.o
 .bss           0x0000000000000000        0x0 /home/asmir/Desktop/Dropbox/MCU/nxp/RT1021/projects/alencon-systems/bootloader-v0.3/build/fsl_cache.o
 .text.L1CACHE_InvalidateICacheByRange
                0x0000000000000000       0x3c /home/asmir/Desktop/Dropbox/MCU/nxp/RT1021/projects/alencon-systems/bootloader-v0.3/build/fsl_cache.o
 .text.ICACHE_InvalidateByRange
                0x0000000000000000        0x4 /home/asmir/Desktop/Dropbox/MCU/nxp/RT1021/projects/alencon-systems/bootloader-v0.3/build/fsl_cache.o
 .text.DCACHE_CleanByRange
                0x0000000000000000       0x2c /home/asmir/Desktop/Dropbox/MCU/nxp/RT1021/projects/alencon-systems/bootloader-v0.3/build/fsl_cache.o
 .text.DCACHE_CleanInvalidateByRange
                0x0000000000000000       0x2c /home/asmir/Desktop/Dropbox/MCU/nxp/RT1021/projects/alencon-systems/bootloader-v0.3/build/fsl_cache.o
 .text          0x0000000000000000        0x0 /home/asmir/Desktop/Dropbox/MCU/nxp/RT1021/projects/alencon-systems/bootloader-v0.3/build/hal_eeprom.o
 .data          0x0000000000000000        0x0 /home/asmir/Desktop/Dropbox/MCU/nxp/RT1021/projects/alencon-systems/bootloader-v0.3/build/hal_eeprom.o
 .bss           0x0000000000000000        0x0 /home/asmir/Desktop/Dropbox/MCU/nxp/RT1021/projects/alencon-systems/bootloader-v0.3/build/hal_eeprom.o
 .text.hal_EEPROM_EraseAll
                0x0000000000000000       0x50 /home/asmir/Desktop/Dropbox/MCU/nxp/RT1021/projects/alencon-systems/bootloader-v0.3/build/hal_eeprom.o
 .text.hal_EEPROM_WritePartialPage
                0x0000000000000000       0x2c /home/asmir/Desktop/Dropbox/MCU/nxp/RT1021/projects/alencon-systems/bootloader-v0.3/build/hal_eeprom.o
 .text.hal_EEPROM_Write
                0x0000000000000000       0xf4 /home/asmir/Desktop/Dropbox/MCU/nxp/RT1021/projects/alencon-systems/bootloader-v0.3/build/hal_eeprom.o
 .text.hal_EEPROM_WritePage
                0x0000000000000000       0x28 /home/asmir/Desktop/Dropbox/MCU/nxp/RT1021/projects/alencon-systems/bootloader-v0.3/build/hal_eeprom.o
 .text.GetActivePage
                0x0000000000000000       0x20 /home/asmir/Desktop/Dropbox/MCU/nxp/RT1021/projects/alencon-systems/bootloader-v0.3/build/hal_eeprom.o
 .text.GetNextLocation
                0x0000000000000000       0x14 /home/asmir/Desktop/Dropbox/MCU/nxp/RT1021/projects/alencon-systems/bootloader-v0.3/build/hal_eeprom.o
 .text          0x0000000000000000        0x0 /home/asmir/Desktop/Dropbox/MCU/nxp/RT1021/projects/alencon-systems/bootloader-v0.3/build/eeprom.o
 .data          0x0000000000000000        0x0 /home/asmir/Desktop/Dropbox/MCU/nxp/RT1021/projects/alencon-systems/bootloader-v0.3/build/eeprom.o
 .bss           0x0000000000000000        0x0 /home/asmir/Desktop/Dropbox/MCU/nxp/RT1021/projects/alencon-systems/bootloader-v0.3/build/eeprom.o
 .text.EEPROM_Write
                0x0000000000000000        0x4 /home/asmir/Desktop/Dropbox/MCU/nxp/RT1021/projects/alencon-systems/bootloader-v0.3/build/eeprom.o
 .text          0x0000000000000000        0x0 /home/asmir/Desktop/Dropbox/MCU/nxp/RT1021/projects/alencon-systems/bootloader-v0.3/build/nvm_objects.o
 .data          0x0000000000000000        0x0 /home/asmir/Desktop/Dropbox/MCU/nxp/RT1021/projects/alencon-systems/bootloader-v0.3/build/nvm_objects.o
 .bss           0x0000000000000000        0x0 /home/asmir/Desktop/Dropbox/MCU/nxp/RT1021/projects/alencon-systems/bootloader-v0.3/build/nvm_objects.o
 .text.NVM_Object_Init.part.0
                0x0000000000000000       0x60 /home/asmir/Desktop/Dropbox/MCU/nxp/RT1021/projects/alencon-systems/bootloader-v0.3/build/nvm_objects.o
 .text.NVM_Object_EraseAll
                0x0000000000000000       0x78 /home/asmir/Desktop/Dropbox/MCU/nxp/RT1021/projects/alencon-systems/bootloader-v0.3/build/nvm_objects.o
 .text.NVM_Object_Get
                0x0000000000000000       0x78 /home/asmir/Desktop/Dropbox/MCU/nxp/RT1021/projects/alencon-systems/bootloader-v0.3/build/nvm_objects.o
 .text.RepackObjects
                0x0000000000000000      0x118 /home/asmir/Desktop/Dropbox/MCU/nxp/RT1021/projects/alencon-systems/bootloader-v0.3/build/nvm_objects.o
 .text.NVM_Object_Set
                0x0000000000000000       0x7c /home/asmir/Desktop/Dropbox/MCU/nxp/RT1021/projects/alencon-systems/bootloader-v0.3/build/nvm_objects.o
 .text.NVM_Object_Get_AltBank
                0x0000000000000000       0x30 /home/asmir/Desktop/Dropbox/MCU/nxp/RT1021/projects/alencon-systems/bootloader-v0.3/build/nvm_objects.o
 .bss.init.11549
                0x0000000000000000        0x4 /home/asmir/Desktop/Dropbox/MCU/nxp/RT1021/projects/alencon-systems/bootloader-v0.3/build/nvm_objects.o
 .bss.nvm_object
                0x0000000000000000        0x8 /home/asmir/Desktop/Dropbox/MCU/nxp/RT1021/projects/alencon-systems/bootloader-v0.3/build/nvm_objects.o
 .bss.packed.11584
                0x0000000000000000        0x1 /home/asmir/Desktop/Dropbox/MCU/nxp/RT1021/projects/alencon-systems/bootloader-v0.3/build/nvm_objects.o
 .debug_info    0x0000000000000000     0x1422 /home/asmir/Desktop/Dropbox/MCU/nxp/RT1021/projects/alencon-systems/bootloader-v0.3/build/nvm_objects.o
 .debug_abbrev  0x0000000000000000      0x39a /home/asmir/Desktop/Dropbox/MCU/nxp/RT1021/projects/alencon-systems/bootloader-v0.3/build/nvm_objects.o
 .debug_loc     0x0000000000000000      0x4e5 /home/asmir/Desktop/Dropbox/MCU/nxp/RT1021/projects/alencon-systems/bootloader-v0.3/build/nvm_objects.o
 .debug_aranges
                0x0000000000000000       0x48 /home/asmir/Desktop/Dropbox/MCU/nxp/RT1021/projects/alencon-systems/bootloader-v0.3/build/nvm_objects.o
 .debug_ranges  0x0000000000000000       0xb0 /home/asmir/Desktop/Dropbox/MCU/nxp/RT1021/projects/alencon-systems/bootloader-v0.3/build/nvm_objects.o
 .debug_line    0x0000000000000000      0x3bf /home/asmir/Desktop/Dropbox/MCU/nxp/RT1021/projects/alencon-systems/bootloader-v0.3/build/nvm_objects.o
 .debug_str     0x0000000000000000     0x13df /home/asmir/Desktop/Dropbox/MCU/nxp/RT1021/projects/alencon-systems/bootloader-v0.3/build/nvm_objects.o
 .comment       0x0000000000000000       0x80 /home/asmir/Desktop/Dropbox/MCU/nxp/RT1021/projects/alencon-systems/bootloader-v0.3/build/nvm_objects.o
 .debug_frame   0x0000000000000000      0x100 /home/asmir/Desktop/Dropbox/MCU/nxp/RT1021/projects/alencon-systems/bootloader-v0.3/build/nvm_objects.o
 .ARM.attributes
                0x0000000000000000       0x37 /home/asmir/Desktop/Dropbox/MCU/nxp/RT1021/projects/alencon-systems/bootloader-v0.3/build/nvm_objects.o
 .text          0x0000000000000000        0x0 /home/asmir/Desktop/Dropbox/MCU/nxp/RT1021/projects/alencon-systems/bootloader-v0.3/build/hal_uart.o
 .data          0x0000000000000000        0x0 /home/asmir/Desktop/Dropbox/MCU/nxp/RT1021/projects/alencon-systems/bootloader-v0.3/build/hal_uart.o
 .bss           0x0000000000000000        0x0 /home/asmir/Desktop/Dropbox/MCU/nxp/RT1021/projects/alencon-systems/bootloader-v0.3/build/hal_uart.o
 .text.UART_GetInstance
                0x0000000000000000       0x18 /home/asmir/Desktop/Dropbox/MCU/nxp/RT1021/projects/alencon-systems/bootloader-v0.3/build/hal_uart.o
 .text.hal_UART_Enable
                0x0000000000000000       0x24 /home/asmir/Desktop/Dropbox/MCU/nxp/RT1021/projects/alencon-systems/bootloader-v0.3/build/hal_uart.o
 .text.hal_UART_EnableRxInterrupt
                0x0000000000000000       0x20 /home/asmir/Desktop/Dropbox/MCU/nxp/RT1021/projects/alencon-systems/bootloader-v0.3/build/hal_uart.o
 .text.hal_UART_DisableRxInterrupt
                0x0000000000000000       0x20 /home/asmir/Desktop/Dropbox/MCU/nxp/RT1021/projects/alencon-systems/bootloader-v0.3/build/hal_uart.o
 .text          0x0000000000000000        0x0 /home/asmir/Desktop/Dropbox/MCU/nxp/RT1021/projects/alencon-systems/bootloader-v0.3/build/uart.o
 .data          0x0000000000000000        0x0 /home/asmir/Desktop/Dropbox/MCU/nxp/RT1021/projects/alencon-systems/bootloader-v0.3/build/uart.o
 .bss           0x0000000000000000        0x0 /home/asmir/Desktop/Dropbox/MCU/nxp/RT1021/projects/alencon-systems/bootloader-v0.3/build/uart.o
 .text.UART_ReconfigureBaud
                0x0000000000000000        0x4 /home/asmir/Desktop/Dropbox/MCU/nxp/RT1021/projects/alencon-systems/bootloader-v0.3/build/uart.o
 .text.UART_Write
                0x0000000000000000       0x38 /home/asmir/Desktop/Dropbox/MCU/nxp/RT1021/projects/alencon-systems/bootloader-v0.3/build/uart.o
 .text.UART_UnregisterReceiver
                0x0000000000000000       0xbc /home/asmir/Desktop/Dropbox/MCU/nxp/RT1021/projects/alencon-systems/bootloader-v0.3/build/uart.o
 .text.UART_IsTransmitting
                0x0000000000000000       0x24 /home/asmir/Desktop/Dropbox/MCU/nxp/RT1021/projects/alencon-systems/bootloader-v0.3/build/uart.o
 .text.UART_Error_Handler
                0x0000000000000000       0x30 /home/asmir/Desktop/Dropbox/MCU/nxp/RT1021/projects/alencon-systems/bootloader-v0.3/build/uart.o
 .text.UART_RegisterErrorCallback
                0x0000000000000000       0x14 /home/asmir/Desktop/Dropbox/MCU/nxp/RT1021/projects/alencon-systems/bootloader-v0.3/build/uart.o
 .text.UART_RegisterTxOverwriteCallback
                0x0000000000000000       0x14 /home/asmir/Desktop/Dropbox/MCU/nxp/RT1021/projects/alencon-systems/bootloader-v0.3/build/uart.o
 .text.UART_RegisterRxOverwriteCallback
                0x0000000000000000       0x14 /home/asmir/Desktop/Dropbox/MCU/nxp/RT1021/projects/alencon-systems/bootloader-v0.3/build/uart.o
 .text          0x0000000000000000        0x0 /home/asmir/Desktop/Dropbox/MCU/nxp/RT1021/projects/alencon-systems/bootloader-v0.3/build/buffer.o
 .data          0x0000000000000000        0x0 /home/asmir/Desktop/Dropbox/MCU/nxp/RT1021/projects/alencon-systems/bootloader-v0.3/build/buffer.o
 .bss           0x0000000000000000        0x0 /home/asmir/Desktop/Dropbox/MCU/nxp/RT1021/projects/alencon-systems/bootloader-v0.3/build/buffer.o
 .text.Buffer_SetCallback
                0x0000000000000000        0x4 /home/asmir/Desktop/Dropbox/MCU/nxp/RT1021/projects/alencon-systems/bootloader-v0.3/build/buffer.o
 .text.Buffer_ClearCallback
                0x0000000000000000        0x8 /home/asmir/Desktop/Dropbox/MCU/nxp/RT1021/projects/alencon-systems/bootloader-v0.3/build/buffer.o
 .text.Buffer_EnqueueData
                0x0000000000000000       0x88 /home/asmir/Desktop/Dropbox/MCU/nxp/RT1021/projects/alencon-systems/bootloader-v0.3/build/buffer.o
 .text          0x0000000000000000        0x0 /home/asmir/Desktop/Dropbox/MCU/nxp/RT1021/projects/alencon-systems/bootloader-v0.3/build/buffer_printf.o
 .data          0x0000000000000000        0x0 /home/asmir/Desktop/Dropbox/MCU/nxp/RT1021/projects/alencon-systems/bootloader-v0.3/build/buffer_printf.o
 .bss           0x0000000000000000        0x0 /home/asmir/Desktop/Dropbox/MCU/nxp/RT1021/projects/alencon-systems/bootloader-v0.3/build/buffer_printf.o
 .text.Buffer_Binary16
                0x0000000000000000       0x28 /home/asmir/Desktop/Dropbox/MCU/nxp/RT1021/projects/alencon-systems/bootloader-v0.3/build/buffer_printf.o
 .text.Buffer_Str
                0x0000000000000000       0x1c /home/asmir/Desktop/Dropbox/MCU/nxp/RT1021/projects/alencon-systems/bootloader-v0.3/build/buffer_printf.o
 .text.Buffer_printf
                0x0000000000000000       0x20 /home/asmir/Desktop/Dropbox/MCU/nxp/RT1021/projects/alencon-systems/bootloader-v0.3/build/buffer_printf.o
 .text          0x0000000000000000        0x0 /home/asmir/Desktop/Dropbox/MCU/nxp/RT1021/projects/alencon-systems/bootloader-v0.3/build/task.o
 .data          0x0000000000000000        0x0 /home/asmir/Desktop/Dropbox/MCU/nxp/RT1021/projects/alencon-systems/bootloader-v0.3/build/task.o
 .bss           0x0000000000000000        0x0 /home/asmir/Desktop/Dropbox/MCU/nxp/RT1021/projects/alencon-systems/bootloader-v0.3/build/task.o
 .text.SystemTick
                0x0000000000000000       0x7c /home/asmir/Desktop/Dropbox/MCU/nxp/RT1021/projects/alencon-systems/bootloader-v0.3/build/task.o
 .text.Task_Queue
                0x0000000000000000       0x24 /home/asmir/Desktop/Dropbox/MCU/nxp/RT1021/projects/alencon-systems/bootloader-v0.3/build/task.o
 .text.Task_SetIdleTask
                0x0000000000000000       0x14 /home/asmir/Desktop/Dropbox/MCU/nxp/RT1021/projects/alencon-systems/bootloader-v0.3/build/task.o
 .text.Task_Remove
                0x0000000000000000       0x7c /home/asmir/Desktop/Dropbox/MCU/nxp/RT1021/projects/alencon-systems/bootloader-v0.3/build/task.o
 .text.WaitMs   0x0000000000000000       0x1c /home/asmir/Desktop/Dropbox/MCU/nxp/RT1021/projects/alencon-systems/bootloader-v0.3/build/task.o
 .text.Task_IsScheduled
                0x0000000000000000       0x20 /home/asmir/Desktop/Dropbox/MCU/nxp/RT1021/projects/alencon-systems/bootloader-v0.3/build/task.o
 .text.Task_ChangePeriod
                0x0000000000000000       0x44 /home/asmir/Desktop/Dropbox/MCU/nxp/RT1021/projects/alencon-systems/bootloader-v0.3/build/task.o
 .text          0x0000000000000000        0x0 /home/asmir/Desktop/Dropbox/MCU/nxp/RT1021/projects/alencon-systems/bootloader-v0.3/build/list.o
 .data          0x0000000000000000        0x0 /home/asmir/Desktop/Dropbox/MCU/nxp/RT1021/projects/alencon-systems/bootloader-v0.3/build/list.o
 .bss           0x0000000000000000        0x0 /home/asmir/Desktop/Dropbox/MCU/nxp/RT1021/projects/alencon-systems/bootloader-v0.3/build/list.o
 .text.Link     0x0000000000000000       0xac /home/asmir/Desktop/Dropbox/MCU/nxp/RT1021/projects/alencon-systems/bootloader-v0.3/build/list.o
 .text.Unlink.part.0
                0x0000000000000000       0x74 /home/asmir/Desktop/Dropbox/MCU/nxp/RT1021/projects/alencon-systems/bootloader-v0.3/build/list.o
 .text.List_AddAndLink
                0x0000000000000000       0x2c /home/asmir/Desktop/Dropbox/MCU/nxp/RT1021/projects/alencon-systems/bootloader-v0.3/build/list.o
 .text.List_Add
                0x0000000000000000       0x1c /home/asmir/Desktop/Dropbox/MCU/nxp/RT1021/projects/alencon-systems/bootloader-v0.3/build/list.o
 .text.List_Link
                0x0000000000000000       0x78 /home/asmir/Desktop/Dropbox/MCU/nxp/RT1021/projects/alencon-systems/bootloader-v0.3/build/list.o
 .text.List_ResortFirst
                0x0000000000000000       0x28 /home/asmir/Desktop/Dropbox/MCU/nxp/RT1021/projects/alencon-systems/bootloader-v0.3/build/list.o
 .text.List_ResortLast
                0x0000000000000000       0x28 /home/asmir/Desktop/Dropbox/MCU/nxp/RT1021/projects/alencon-systems/bootloader-v0.3/build/list.o
 .text.List_LinkItem
                0x0000000000000000       0x9c /home/asmir/Desktop/Dropbox/MCU/nxp/RT1021/projects/alencon-systems/bootloader-v0.3/build/list.o
 .text.List_GetLast
                0x0000000000000000       0x14 /home/asmir/Desktop/Dropbox/MCU/nxp/RT1021/projects/alencon-systems/bootloader-v0.3/build/list.o
 .text.List_GetItem
                0x0000000000000000       0x94 /home/asmir/Desktop/Dropbox/MCU/nxp/RT1021/projects/alencon-systems/bootloader-v0.3/build/list.o
 .text.List_RemoveFirst
                0x0000000000000000       0x20 /home/asmir/Desktop/Dropbox/MCU/nxp/RT1021/projects/alencon-systems/bootloader-v0.3/build/list.o
 .text.List_RemoveLast
                0x0000000000000000       0x20 /home/asmir/Desktop/Dropbox/MCU/nxp/RT1021/projects/alencon-systems/bootloader-v0.3/build/list.o
 .text.List_Remove
                0x0000000000000000       0x28 /home/asmir/Desktop/Dropbox/MCU/nxp/RT1021/projects/alencon-systems/bootloader-v0.3/build/list.o
 .text.List_RemoveAll
                0x0000000000000000       0x38 /home/asmir/Desktop/Dropbox/MCU/nxp/RT1021/projects/alencon-systems/bootloader-v0.3/build/list.o
 .text.List_UnlinkItem
                0x0000000000000000       0x24 /home/asmir/Desktop/Dropbox/MCU/nxp/RT1021/projects/alencon-systems/bootloader-v0.3/build/list.o
 .text.List_UnlinkFirst
                0x0000000000000000       0x18 /home/asmir/Desktop/Dropbox/MCU/nxp/RT1021/projects/alencon-systems/bootloader-v0.3/build/list.o
 .text.List_UnlinkLast
                0x0000000000000000       0x18 /home/asmir/Desktop/Dropbox/MCU/nxp/RT1021/projects/alencon-systems/bootloader-v0.3/build/list.o
 .text.List_RunFunction
                0x0000000000000000       0x14 /home/asmir/Desktop/Dropbox/MCU/nxp/RT1021/projects/alencon-systems/bootloader-v0.3/build/list.o
 .text          0x0000000000000000        0x0 /home/asmir/Desktop/Dropbox/MCU/nxp/RT1021/projects/alencon-systems/bootloader-v0.3/build/crc16.o
 .data          0x0000000000000000        0x0 /home/asmir/Desktop/Dropbox/MCU/nxp/RT1021/projects/alencon-systems/bootloader-v0.3/build/crc16.o
 .bss           0x0000000000000000        0x0 /home/asmir/Desktop/Dropbox/MCU/nxp/RT1021/projects/alencon-systems/bootloader-v0.3/build/crc16.o
 .text          0x0000000000000000        0x0 /home/asmir/Desktop/Dropbox/MCU/nxp/RT1021/projects/alencon-systems/bootloader-v0.3/build/subsys.o
 .data          0x0000000000000000        0x0 /home/asmir/Desktop/Dropbox/MCU/nxp/RT1021/projects/alencon-systems/bootloader-v0.3/build/subsys.o
 .bss           0x0000000000000000        0x0 /home/asmir/Desktop/Dropbox/MCU/nxp/RT1021/projects/alencon-systems/bootloader-v0.3/build/subsys.o
 .text.GetSubsystemName
                0x0000000000000000       0x1c /home/asmir/Desktop/Dropbox/MCU/nxp/RT1021/projects/alencon-systems/bootloader-v0.3/build/subsys.o
 .text.Subsystem_SystemDisable
                0x0000000000000000        0xc /home/asmir/Desktop/Dropbox/MCU/nxp/RT1021/projects/alencon-systems/bootloader-v0.3/build/subsys.o
 .text.Subsystem_SystemEnable
                0x0000000000000000        0xc /home/asmir/Desktop/Dropbox/MCU/nxp/RT1021/projects/alencon-systems/bootloader-v0.3/build/subsys.o
 .text.Subsystem_RegisterCallback
                0x0000000000000000       0x10 /home/asmir/Desktop/Dropbox/MCU/nxp/RT1021/projects/alencon-systems/bootloader-v0.3/build/subsys.o
 .text.LogVersion
                0x0000000000000000       0x30 /home/asmir/Desktop/Dropbox/MCU/nxp/RT1021/projects/alencon-systems/bootloader-v0.3/build/subsys.o
 .text.ArgToU32
                0x0000000000000000       0x28 /home/asmir/Desktop/Dropbox/MCU/nxp/RT1021/projects/alencon-systems/bootloader-v0.3/build/subsys.o
 .text.ArgToU16
                0x0000000000000000       0x2c /home/asmir/Desktop/Dropbox/MCU/nxp/RT1021/projects/alencon-systems/bootloader-v0.3/build/subsys.o
 .text.ArgToU8  0x0000000000000000       0x30 /home/asmir/Desktop/Dropbox/MCU/nxp/RT1021/projects/alencon-systems/bootloader-v0.3/build/subsys.o
 .text.Log_EchoOn
                0x0000000000000000       0x10 /home/asmir/Desktop/Dropbox/MCU/nxp/RT1021/projects/alencon-systems/bootloader-v0.3/build/subsys.o
 .text.Log_EchoOff
                0x0000000000000000       0x10 /home/asmir/Desktop/Dropbox/MCU/nxp/RT1021/projects/alencon-systems/bootloader-v0.3/build/subsys.o
 .text.Log_GetEcho
                0x0000000000000000       0x10 /home/asmir/Desktop/Dropbox/MCU/nxp/RT1021/projects/alencon-systems/bootloader-v0.3/build/subsys.o
 .text.MuteAll  0x0000000000000000       0x10 /home/asmir/Desktop/Dropbox/MCU/nxp/RT1021/projects/alencon-systems/bootloader-v0.3/build/subsys.o
 .text.UnmuteAll
                0x0000000000000000       0x10 /home/asmir/Desktop/Dropbox/MCU/nxp/RT1021/projects/alencon-systems/bootloader-v0.3/build/subsys.o
 .text.MuteSys  0x0000000000000000       0x18 /home/asmir/Desktop/Dropbox/MCU/nxp/RT1021/projects/alencon-systems/bootloader-v0.3/build/subsys.o
 .text.UnmuteSys
                0x0000000000000000       0x18 /home/asmir/Desktop/Dropbox/MCU/nxp/RT1021/projects/alencon-systems/bootloader-v0.3/build/subsys.o
 .rodata.LogVersion.str1.4
                0x0000000000000000        0xe /home/asmir/Desktop/Dropbox/MCU/nxp/RT1021/projects/alencon-systems/bootloader-v0.3/build/subsys.o
 .text          0x0000000000000000        0x0 /home/asmir/Desktop/Dropbox/MCU/nxp/RT1021/projects/alencon-systems/bootloader-v0.3/build/charReceiverList.o
 .data          0x0000000000000000        0x0 /home/asmir/Desktop/Dropbox/MCU/nxp/RT1021/projects/alencon-systems/bootloader-v0.3/build/charReceiverList.o
 .bss           0x0000000000000000        0x0 /home/asmir/Desktop/Dropbox/MCU/nxp/RT1021/projects/alencon-systems/bootloader-v0.3/build/charReceiverList.o
 .text.CharReceiverList_Init
                0x0000000000000000        0xc /home/asmir/Desktop/Dropbox/MCU/nxp/RT1021/projects/alencon-systems/bootloader-v0.3/build/charReceiverList.o
 .text.CharReceiverList_Add
                0x0000000000000000       0x4c /home/asmir/Desktop/Dropbox/MCU/nxp/RT1021/projects/alencon-systems/bootloader-v0.3/build/charReceiverList.o
 .text.CharReceiverList_Remove
                0x0000000000000000       0xa8 /home/asmir/Desktop/Dropbox/MCU/nxp/RT1021/projects/alencon-systems/bootloader-v0.3/build/charReceiverList.o
 .text.CharReceiverList_Run
                0x0000000000000000       0x44 /home/asmir/Desktop/Dropbox/MCU/nxp/RT1021/projects/alencon-systems/bootloader-v0.3/build/charReceiverList.o
 .debug_info    0x0000000000000000      0xbc9 /home/asmir/Desktop/Dropbox/MCU/nxp/RT1021/projects/alencon-systems/bootloader-v0.3/build/charReceiverList.o
 .debug_abbrev  0x0000000000000000      0x253 /home/asmir/Desktop/Dropbox/MCU/nxp/RT1021/projects/alencon-systems/bootloader-v0.3/build/charReceiverList.o
 .debug_loc     0x0000000000000000       0xb9 /home/asmir/Desktop/Dropbox/MCU/nxp/RT1021/projects/alencon-systems/bootloader-v0.3/build/charReceiverList.o
 .debug_aranges
                0x0000000000000000       0x38 /home/asmir/Desktop/Dropbox/MCU/nxp/RT1021/projects/alencon-systems/bootloader-v0.3/build/charReceiverList.o
 .debug_ranges  0x0000000000000000       0x28 /home/asmir/Desktop/Dropbox/MCU/nxp/RT1021/projects/alencon-systems/bootloader-v0.3/build/charReceiverList.o
 .debug_line    0x0000000000000000      0x2b8 /home/asmir/Desktop/Dropbox/MCU/nxp/RT1021/projects/alencon-systems/bootloader-v0.3/build/charReceiverList.o
 .debug_str     0x0000000000000000      0x8b2 /home/asmir/Desktop/Dropbox/MCU/nxp/RT1021/projects/alencon-systems/bootloader-v0.3/build/charReceiverList.o
 .comment       0x0000000000000000       0x80 /home/asmir/Desktop/Dropbox/MCU/nxp/RT1021/projects/alencon-systems/bootloader-v0.3/build/charReceiverList.o
 .debug_frame   0x0000000000000000       0xa0 /home/asmir/Desktop/Dropbox/MCU/nxp/RT1021/projects/alencon-systems/bootloader-v0.3/build/charReceiverList.o
 .ARM.attributes
                0x0000000000000000       0x37 /home/asmir/Desktop/Dropbox/MCU/nxp/RT1021/projects/alencon-systems/bootloader-v0.3/build/charReceiverList.o
 .text          0x0000000000000000        0x0 /home/asmir/Desktop/Dropbox/MCU/nxp/RT1021/projects/alencon-systems/bootloader-v0.3/build/bootloader.o
 .data          0x0000000000000000        0x0 /home/asmir/Desktop/Dropbox/MCU/nxp/RT1021/projects/alencon-systems/bootloader-v0.3/build/bootloader.o
 .bss           0x0000000000000000        0x0 /home/asmir/Desktop/Dropbox/MCU/nxp/RT1021/projects/alencon-systems/bootloader-v0.3/build/bootloader.o
 .text.Bootloader_DeinitAppModules
                0x0000000000000000       0x10 /home/asmir/Desktop/Dropbox/MCU/nxp/RT1021/projects/alencon-systems/bootloader-v0.3/build/bootloader.o
 .bss.dcdc_id   0x0000000000000000        0x1 /home/asmir/Desktop/Dropbox/MCU/nxp/RT1021/projects/alencon-systems/bootloader-v0.3/build/bootloader.o
 .bss.my_address
                0x0000000000000000        0x1 /home/asmir/Desktop/Dropbox/MCU/nxp/RT1021/projects/alencon-systems/bootloader-v0.3/build/bootloader.o
 .bss.subsys_uart
                0x0000000000000000        0x1 /home/asmir/Desktop/Dropbox/MCU/nxp/RT1021/projects/alencon-systems/bootloader-v0.3/build/bootloader.o
 .text          0x0000000000000000        0x0 /home/asmir/Desktop/Dropbox/MCU/nxp/RT1021/projects/alencon-systems/bootloader-v0.3/build/hardware.o
 .data          0x0000000000000000        0x0 /home/asmir/Desktop/Dropbox/MCU/nxp/RT1021/projects/alencon-systems/bootloader-v0.3/build/hardware.o
 .bss           0x0000000000000000        0x0 /home/asmir/Desktop/Dropbox/MCU/nxp/RT1021/projects/alencon-systems/bootloader-v0.3/build/hardware.o
 .text.Hardware_HasSecondaryDriverBoard
                0x0000000000000000        0x4 /home/asmir/Desktop/Dropbox/MCU/nxp/RT1021/projects/alencon-systems/bootloader-v0.3/build/hardware.o
 .text.Hardware_HasHumiditySensor
                0x0000000000000000        0x4 /home/asmir/Desktop/Dropbox/MCU/nxp/RT1021/projects/alencon-systems/bootloader-v0.3/build/hardware.o
 .text.Hardware_HasOVP_Internal_Comparator
                0x0000000000000000        0x4 /home/asmir/Desktop/Dropbox/MCU/nxp/RT1021/projects/alencon-systems/bootloader-v0.3/build/hardware.o
 .text.Hardware_HasSecondOVP
                0x0000000000000000        0x4 /home/asmir/Desktop/Dropbox/MCU/nxp/RT1021/projects/alencon-systems/bootloader-v0.3/build/hardware.o
 .text.Hardware_HasSpotV6PinoutCMP
                0x0000000000000000        0x4 /home/asmir/Desktop/Dropbox/MCU/nxp/RT1021/projects/alencon-systems/bootloader-v0.3/build/hardware.o
 .text.Hardware_HasBatteryGateFaultDetection
                0x0000000000000000        0x4 /home/asmir/Desktop/Dropbox/MCU/nxp/RT1021/projects/alencon-systems/bootloader-v0.3/build/hardware.o
 .text.Hardware_HasExternalFan
                0x0000000000000000        0x4 /home/asmir/Desktop/Dropbox/MCU/nxp/RT1021/projects/alencon-systems/bootloader-v0.3/build/hardware.o
 .text.Hardware_HasSecondExternalFan
                0x0000000000000000        0x4 /home/asmir/Desktop/Dropbox/MCU/nxp/RT1021/projects/alencon-systems/bootloader-v0.3/build/hardware.o
 .text.Hardware_HasNewGateDriver
                0x0000000000000000        0x4 /home/asmir/Desktop/Dropbox/MCU/nxp/RT1021/projects/alencon-systems/bootloader-v0.3/build/hardware.o
 .text.Hardware_HasResonantTopology
                0x0000000000000000        0x4 /home/asmir/Desktop/Dropbox/MCU/nxp/RT1021/projects/alencon-systems/bootloader-v0.3/build/hardware.o
 .text.Hardware_HasGroundFaultDetector
                0x0000000000000000        0x4 /home/asmir/Desktop/Dropbox/MCU/nxp/RT1021/projects/alencon-systems/bootloader-v0.3/build/hardware.o
 .text.Hardware_HasLatestVoltageGain
                0x0000000000000000        0x4 /home/asmir/Desktop/Dropbox/MCU/nxp/RT1021/projects/alencon-systems/bootloader-v0.3/build/hardware.o
 .text.Hardware_HasHO25CurrentSensor
                0x0000000000000000        0x4 /home/asmir/Desktop/Dropbox/MCU/nxp/RT1021/projects/alencon-systems/bootloader-v0.3/build/hardware.o
 .text.Hardware_HasV3ADC0
                0x0000000000000000        0x4 /home/asmir/Desktop/Dropbox/MCU/nxp/RT1021/projects/alencon-systems/bootloader-v0.3/build/hardware.o
 .text.Hardware_HasV4ADC0
                0x0000000000000000        0x4 /home/asmir/Desktop/Dropbox/MCU/nxp/RT1021/projects/alencon-systems/bootloader-v0.3/build/hardware.o
 .text.Hardware_Has1_65VrefOnPTC0
                0x0000000000000000        0x4 /home/asmir/Desktop/Dropbox/MCU/nxp/RT1021/projects/alencon-systems/bootloader-v0.3/build/hardware.o
 .text.Hardware_HasRJ45_Shutdown
                0x0000000000000000        0x4 /home/asmir/Desktop/Dropbox/MCU/nxp/RT1021/projects/alencon-systems/bootloader-v0.3/build/hardware.o
 .text.Hardware_HasVincotechThermistor
                0x0000000000000000        0x4 /home/asmir/Desktop/Dropbox/MCU/nxp/RT1021/projects/alencon-systems/bootloader-v0.3/build/hardware.o
 .text.Hardware_HasAuxUVP
                0x0000000000000000        0x4 /home/asmir/Desktop/Dropbox/MCU/nxp/RT1021/projects/alencon-systems/bootloader-v0.3/build/hardware.o
 .text.Hardware_HasTransformerTemperatureSensor
                0x0000000000000000        0x4 /home/asmir/Desktop/Dropbox/MCU/nxp/RT1021/projects/alencon-systems/bootloader-v0.3/build/hardware.o
 .text.Hardware_HasBuckboostTopology
                0x0000000000000000        0x4 /home/asmir/Desktop/Dropbox/MCU/nxp/RT1021/projects/alencon-systems/bootloader-v0.3/build/hardware.o
 .text.Hardware_HasFaultyZeroCurrentOffset
                0x0000000000000000        0x4 /home/asmir/Desktop/Dropbox/MCU/nxp/RT1021/projects/alencon-systems/bootloader-v0.3/build/hardware.o
 .text.Hardware_HasMKV5Pinout
                0x0000000000000000        0x4 /home/asmir/Desktop/Dropbox/MCU/nxp/RT1021/projects/alencon-systems/bootloader-v0.3/build/hardware.o
 .text          0x0000000000000000        0x0 /home/asmir/Desktop/Dropbox/MCU/nxp/RT1021/projects/alencon-systems/bootloader-v0.3/build/RS485Serial.o
 .data          0x0000000000000000        0x0 /home/asmir/Desktop/Dropbox/MCU/nxp/RT1021/projects/alencon-systems/bootloader-v0.3/build/RS485Serial.o
 .bss           0x0000000000000000        0x0 /home/asmir/Desktop/Dropbox/MCU/nxp/RT1021/projects/alencon-systems/bootloader-v0.3/build/RS485Serial.o
 .text.RS485_ReadByte
                0x0000000000000000       0x2c /home/asmir/Desktop/Dropbox/MCU/nxp/RT1021/projects/alencon-systems/bootloader-v0.3/build/RS485Serial.o
 .text.RS485_Get_Buffer_Size
                0x0000000000000000       0x24 /home/asmir/Desktop/Dropbox/MCU/nxp/RT1021/projects/alencon-systems/bootloader-v0.3/build/RS485Serial.o
 .text.RS485_Serial_Get_Tx_Fifo_length
                0x0000000000000000        0x4 /home/asmir/Desktop/Dropbox/MCU/nxp/RT1021/projects/alencon-systems/bootloader-v0.3/build/RS485Serial.o
 .text          0x0000000000000000        0x0 /home/asmir/Desktop/Dropbox/MCU/nxp/RT1021/projects/alencon-systems/bootloader-v0.3/build/mbcrc.o
 .data          0x0000000000000000        0x0 /home/asmir/Desktop/Dropbox/MCU/nxp/RT1021/projects/alencon-systems/bootloader-v0.3/build/mbcrc.o
 .bss           0x0000000000000000        0x0 /home/asmir/Desktop/Dropbox/MCU/nxp/RT1021/projects/alencon-systems/bootloader-v0.3/build/mbcrc.o
 .text          0x0000000000000000        0x0 /home/asmir/Desktop/Dropbox/MCU/nxp/RT1021/projects/alencon-systems/bootloader-v0.3/build/mbfunccoils.o
 .data          0x0000000000000000        0x0 /home/asmir/Desktop/Dropbox/MCU/nxp/RT1021/projects/alencon-systems/bootloader-v0.3/build/mbfunccoils.o
 .bss           0x0000000000000000        0x0 /home/asmir/Desktop/Dropbox/MCU/nxp/RT1021/projects/alencon-systems/bootloader-v0.3/build/mbfunccoils.o
 .text          0x0000000000000000        0x0 /home/asmir/Desktop/Dropbox/MCU/nxp/RT1021/projects/alencon-systems/bootloader-v0.3/build/mbfuncdiag.o
 .data          0x0000000000000000        0x0 /home/asmir/Desktop/Dropbox/MCU/nxp/RT1021/projects/alencon-systems/bootloader-v0.3/build/mbfuncdiag.o
 .bss           0x0000000000000000        0x0 /home/asmir/Desktop/Dropbox/MCU/nxp/RT1021/projects/alencon-systems/bootloader-v0.3/build/mbfuncdiag.o
 .debug_line    0x0000000000000000        0x0 /home/asmir/Desktop/Dropbox/MCU/nxp/RT1021/projects/alencon-systems/bootloader-v0.3/build/mbfuncdiag.o
 .debug_str     0x0000000000000000      0x1f2 /home/asmir/Desktop/Dropbox/MCU/nxp/RT1021/projects/alencon-systems/bootloader-v0.3/build/mbfuncdiag.o
 .comment       0x0000000000000000       0x80 /home/asmir/Desktop/Dropbox/MCU/nxp/RT1021/projects/alencon-systems/bootloader-v0.3/build/mbfuncdiag.o
 .ARM.attributes
                0x0000000000000000       0x37 /home/asmir/Desktop/Dropbox/MCU/nxp/RT1021/projects/alencon-systems/bootloader-v0.3/build/mbfuncdiag.o
 .text          0x0000000000000000        0x0 /home/asmir/Desktop/Dropbox/MCU/nxp/RT1021/projects/alencon-systems/bootloader-v0.3/build/mbfuncdisc.o
 .data          0x0000000000000000        0x0 /home/asmir/Desktop/Dropbox/MCU/nxp/RT1021/projects/alencon-systems/bootloader-v0.3/build/mbfuncdisc.o
 .bss           0x0000000000000000        0x0 /home/asmir/Desktop/Dropbox/MCU/nxp/RT1021/projects/alencon-systems/bootloader-v0.3/build/mbfuncdisc.o
 .text          0x0000000000000000        0x0 /home/asmir/Desktop/Dropbox/MCU/nxp/RT1021/projects/alencon-systems/bootloader-v0.3/build/mbfuncholding.o
 .data          0x0000000000000000        0x0 /home/asmir/Desktop/Dropbox/MCU/nxp/RT1021/projects/alencon-systems/bootloader-v0.3/build/mbfuncholding.o
 .bss           0x0000000000000000        0x0 /home/asmir/Desktop/Dropbox/MCU/nxp/RT1021/projects/alencon-systems/bootloader-v0.3/build/mbfuncholding.o
 .text          0x0000000000000000        0x0 /home/asmir/Desktop/Dropbox/MCU/nxp/RT1021/projects/alencon-systems/bootloader-v0.3/build/mbfuncinput.o
 .data          0x0000000000000000        0x0 /home/asmir/Desktop/Dropbox/MCU/nxp/RT1021/projects/alencon-systems/bootloader-v0.3/build/mbfuncinput.o
 .bss           0x0000000000000000        0x0 /home/asmir/Desktop/Dropbox/MCU/nxp/RT1021/projects/alencon-systems/bootloader-v0.3/build/mbfuncinput.o
 .text          0x0000000000000000        0x0 /home/asmir/Desktop/Dropbox/MCU/nxp/RT1021/projects/alencon-systems/bootloader-v0.3/build/mbfuncother.o
 .data          0x0000000000000000        0x0 /home/asmir/Desktop/Dropbox/MCU/nxp/RT1021/projects/alencon-systems/bootloader-v0.3/build/mbfuncother.o
 .bss           0x0000000000000000        0x0 /home/asmir/Desktop/Dropbox/MCU/nxp/RT1021/projects/alencon-systems/bootloader-v0.3/build/mbfuncother.o
 .text          0x0000000000000000        0x0 /home/asmir/Desktop/Dropbox/MCU/nxp/RT1021/projects/alencon-systems/bootloader-v0.3/build/mbutils.o
 .data          0x0000000000000000        0x0 /home/asmir/Desktop/Dropbox/MCU/nxp/RT1021/projects/alencon-systems/bootloader-v0.3/build/mbutils.o
 .bss           0x0000000000000000        0x0 /home/asmir/Desktop/Dropbox/MCU/nxp/RT1021/projects/alencon-systems/bootloader-v0.3/build/mbutils.o
 .text.xMBUtilSetBits
                0x0000000000000000       0x54 /home/asmir/Desktop/Dropbox/MCU/nxp/RT1021/projects/alencon-systems/bootloader-v0.3/build/mbutils.o
 .text.xMBUtilGetBits
                0x0000000000000000       0x28 /home/asmir/Desktop/Dropbox/MCU/nxp/RT1021/projects/alencon-systems/bootloader-v0.3/build/mbutils.o
 .rodata.__func__.11677
                0x0000000000000000        0xf /home/asmir/Desktop/Dropbox/MCU/nxp/RT1021/projects/alencon-systems/bootloader-v0.3/build/mbutils.o
 .rodata.xMBUtilSetBits.str1.4
                0x0000000000000000       0x55 /home/asmir/Desktop/Dropbox/MCU/nxp/RT1021/projects/alencon-systems/bootloader-v0.3/build/mbutils.o
 .text          0x0000000000000000        0x0 /home/asmir/Desktop/Dropbox/MCU/nxp/RT1021/projects/alencon-systems/bootloader-v0.3/build/mb.o
 .data          0x0000000000000000        0x0 /home/asmir/Desktop/Dropbox/MCU/nxp/RT1021/projects/alencon-systems/bootloader-v0.3/build/mb.o
 .bss           0x0000000000000000        0x0 /home/asmir/Desktop/Dropbox/MCU/nxp/RT1021/projects/alencon-systems/bootloader-v0.3/build/mb.o
 .text.eMBRegisterCB
                0x0000000000000000       0x74 /home/asmir/Desktop/Dropbox/MCU/nxp/RT1021/projects/alencon-systems/bootloader-v0.3/build/mb.o
 .bss.pxMBFrameCBReceiveFSMCur
                0x0000000000000000        0x4 /home/asmir/Desktop/Dropbox/MCU/nxp/RT1021/projects/alencon-systems/bootloader-v0.3/build/mb.o
 .bss.pxMBFrameCBTransmitFSMCur
                0x0000000000000000        0x4 /home/asmir/Desktop/Dropbox/MCU/nxp/RT1021/projects/alencon-systems/bootloader-v0.3/build/mb.o
 .text          0x0000000000000000        0x0 /home/asmir/Desktop/Dropbox/MCU/nxp/RT1021/projects/alencon-systems/bootloader-v0.3/build/AlenconModbus.o
 .data          0x0000000000000000        0x0 /home/asmir/Desktop/Dropbox/MCU/nxp/RT1021/projects/alencon-systems/bootloader-v0.3/build/AlenconModbus.o
 .bss           0x0000000000000000        0x0 /home/asmir/Desktop/Dropbox/MCU/nxp/RT1021/projects/alencon-systems/bootloader-v0.3/build/AlenconModbus.o
 .text.Modbus_Reset
                0x0000000000000000       0x28 /home/asmir/Desktop/Dropbox/MCU/nxp/RT1021/projects/alencon-systems/bootloader-v0.3/build/AlenconModbus.o
 .text.Modbus_LongToRegisters
                0x0000000000000000        0x8 /home/asmir/Desktop/Dropbox/MCU/nxp/RT1021/projects/alencon-systems/bootloader-v0.3/build/AlenconModbus.o
 .text.Modbus_FloatToRegisters
                0x0000000000000000       0x28 /home/asmir/Desktop/Dropbox/MCU/nxp/RT1021/projects/alencon-systems/bootloader-v0.3/build/AlenconModbus.o
 .text.Modbus_RegistersToFloat
                0x0000000000000000       0x1c /home/asmir/Desktop/Dropbox/MCU/nxp/RT1021/projects/alencon-systems/bootloader-v0.3/build/AlenconModbus.o
 .text          0x0000000000000000        0x0 /home/asmir/Desktop/Dropbox/MCU/nxp/RT1021/projects/alencon-systems/bootloader-v0.3/build/AlenconModbusBootloader.o
 .data          0x0000000000000000        0x0 /home/asmir/Desktop/Dropbox/MCU/nxp/RT1021/projects/alencon-systems/bootloader-v0.3/build/AlenconModbusBootloader.o
 .bss           0x0000000000000000        0x0 /home/asmir/Desktop/Dropbox/MCU/nxp/RT1021/projects/alencon-systems/bootloader-v0.3/build/AlenconModbusBootloader.o
 .bss.firmware_status_e
                0x0000000000000000        0x1 /home/asmir/Desktop/Dropbox/MCU/nxp/RT1021/projects/alencon-systems/bootloader-v0.3/build/AlenconModbusBootloader.o
 .bss.ramFunc   0x0000000000000000      0x100 /home/asmir/Desktop/Dropbox/MCU/nxp/RT1021/projects/alencon-systems/bootloader-v0.3/build/AlenconModbusBootloader.o
 .text          0x0000000000000000        0x0 /home/asmir/Desktop/Dropbox/MCU/nxp/RT1021/projects/alencon-systems/bootloader-v0.3/build/mbportevent.o
 .data          0x0000000000000000        0x0 /home/asmir/Desktop/Dropbox/MCU/nxp/RT1021/projects/alencon-systems/bootloader-v0.3/build/mbportevent.o
 .bss           0x0000000000000000        0x0 /home/asmir/Desktop/Dropbox/MCU/nxp/RT1021/projects/alencon-systems/bootloader-v0.3/build/mbportevent.o
 .text          0x0000000000000000        0x0 /home/asmir/Desktop/Dropbox/MCU/nxp/RT1021/projects/alencon-systems/bootloader-v0.3/build/mbportother.o
 .data          0x0000000000000000        0x0 /home/asmir/Desktop/Dropbox/MCU/nxp/RT1021/projects/alencon-systems/bootloader-v0.3/build/mbportother.o
 .bss           0x0000000000000000        0x0 /home/asmir/Desktop/Dropbox/MCU/nxp/RT1021/projects/alencon-systems/bootloader-v0.3/build/mbportother.o
 .text          0x0000000000000000        0x0 /home/asmir/Desktop/Dropbox/MCU/nxp/RT1021/projects/alencon-systems/bootloader-v0.3/build/mbporttimer.o
 .data          0x0000000000000000        0x0 /home/asmir/Desktop/Dropbox/MCU/nxp/RT1021/projects/alencon-systems/bootloader-v0.3/build/mbporttimer.o
 .bss           0x0000000000000000        0x0 /home/asmir/Desktop/Dropbox/MCU/nxp/RT1021/projects/alencon-systems/bootloader-v0.3/build/mbporttimer.o
 .text          0x0000000000000000        0x0 /home/asmir/Desktop/Dropbox/MCU/nxp/RT1021/projects/alencon-systems/bootloader-v0.3/build/DCDC_mbrtu.o
 .data          0x0000000000000000        0x0 /home/asmir/Desktop/Dropbox/MCU/nxp/RT1021/projects/alencon-systems/bootloader-v0.3/build/DCDC_mbrtu.o
 .bss           0x0000000000000000        0x0 /home/asmir/Desktop/Dropbox/MCU/nxp/RT1021/projects/alencon-systems/bootloader-v0.3/build/DCDC_mbrtu.o
 .text.xMBPortSerialInit
                0x0000000000000000       0x20 /home/asmir/Desktop/Dropbox/MCU/nxp/RT1021/projects/alencon-systems/bootloader-v0.3/build/DCDC_mbrtu.o
 .data          0x0000000000000000        0x0 /home/asmir/Desktop/Dropbox/MCU/nxp/RT1021/projects/alencon-systems/bootloader-v0.3/build/startup_MIMXRT1021.o
 .bss           0x0000000000000000        0x0 /home/asmir/Desktop/Dropbox/MCU/nxp/RT1021/projects/alencon-systems/bootloader-v0.3/build/startup_MIMXRT1021.o
 .text          0x0000000000000000        0x0 /home/asmir/Desktop/Dropbox/MCU/gcc/gcc-arm-none-eabi-7-2018-q2-update/bin/../lib/gcc/arm-none-eabi/7.3.1/../../../../arm-none-eabi/lib/thumb/v7e-m/fpv4-sp/hard/libc.a(lib_a-errno.o)
 .data          0x0000000000000000        0x0 /home/asmir/Desktop/Dropbox/MCU/gcc/gcc-arm-none-eabi-7-2018-q2-update/bin/../lib/gcc/arm-none-eabi/7.3.1/../../../../arm-none-eabi/lib/thumb/v7e-m/fpv4-sp/hard/libc.a(lib_a-errno.o)
 .bss           0x0000000000000000        0x0 /home/asmir/Desktop/Dropbox/MCU/gcc/gcc-arm-none-eabi-7-2018-q2-update/bin/../lib/gcc/arm-none-eabi/7.3.1/../../../../arm-none-eabi/lib/thumb/v7e-m/fpv4-sp/hard/libc.a(lib_a-errno.o)
 .text          0x0000000000000000        0x0 /home/asmir/Desktop/Dropbox/MCU/gcc/gcc-arm-none-eabi-7-2018-q2-update/bin/../lib/gcc/arm-none-eabi/7.3.1/../../../../arm-none-eabi/lib/thumb/v7e-m/fpv4-sp/hard/libc.a(lib_a-exit.o)
 .data          0x0000000000000000        0x0 /home/asmir/Desktop/Dropbox/MCU/gcc/gcc-arm-none-eabi-7-2018-q2-update/bin/../lib/gcc/arm-none-eabi/7.3.1/../../../../arm-none-eabi/lib/thumb/v7e-m/fpv4-sp/hard/libc.a(lib_a-exit.o)
 .bss           0x0000000000000000        0x0 /home/asmir/Desktop/Dropbox/MCU/gcc/gcc-arm-none-eabi-7-2018-q2-update/bin/../lib/gcc/arm-none-eabi/7.3.1/../../../../arm-none-eabi/lib/thumb/v7e-m/fpv4-sp/hard/libc.a(lib_a-exit.o)
 .text.exit     0x0000000000000000       0x20 /home/asmir/Desktop/Dropbox/MCU/gcc/gcc-arm-none-eabi-7-2018-q2-update/bin/../lib/gcc/arm-none-eabi/7.3.1/../../../../arm-none-eabi/lib/thumb/v7e-m/fpv4-sp/hard/libc.a(lib_a-exit.o)
 .debug_frame   0x0000000000000000       0x28 /home/asmir/Desktop/Dropbox/MCU/gcc/gcc-arm-none-eabi-7-2018-q2-update/bin/../lib/gcc/arm-none-eabi/7.3.1/../../../../arm-none-eabi/lib/thumb/v7e-m/fpv4-sp/hard/libc.a(lib_a-exit.o)
 .ARM.attributes
                0x0000000000000000       0x34 /home/asmir/Desktop/Dropbox/MCU/gcc/gcc-arm-none-eabi-7-2018-q2-update/bin/../lib/gcc/arm-none-eabi/7.3.1/../../../../arm-none-eabi/lib/thumb/v7e-m/fpv4-sp/hard/libc.a(lib_a-exit.o)
 .text          0x0000000000000000        0x0 /home/asmir/Desktop/Dropbox/MCU/gcc/gcc-arm-none-eabi-7-2018-q2-update/bin/../lib/gcc/arm-none-eabi/7.3.1/../../../../arm-none-eabi/lib/thumb/v7e-m/fpv4-sp/hard/libc.a(lib_a-impure.o)
 .data          0x0000000000000000        0x0 /home/asmir/Desktop/Dropbox/MCU/gcc/gcc-arm-none-eabi-7-2018-q2-update/bin/../lib/gcc/arm-none-eabi/7.3.1/../../../../arm-none-eabi/lib/thumb/v7e-m/fpv4-sp/hard/libc.a(lib_a-impure.o)
 .bss           0x0000000000000000        0x0 /home/asmir/Desktop/Dropbox/MCU/gcc/gcc-arm-none-eabi-7-2018-q2-update/bin/../lib/gcc/arm-none-eabi/7.3.1/../../../../arm-none-eabi/lib/thumb/v7e-m/fpv4-sp/hard/libc.a(lib_a-impure.o)
 .text          0x0000000000000000        0x0 /home/asmir/Desktop/Dropbox/MCU/gcc/gcc-arm-none-eabi-7-2018-q2-update/bin/../lib/gcc/arm-none-eabi/7.3.1/../../../../arm-none-eabi/lib/thumb/v7e-m/fpv4-sp/hard/libc.a(lib_a-init.o)
 .data          0x0000000000000000        0x0 /home/asmir/Desktop/Dropbox/MCU/gcc/gcc-arm-none-eabi-7-2018-q2-update/bin/../lib/gcc/arm-none-eabi/7.3.1/../../../../arm-none-eabi/lib/thumb/v7e-m/fpv4-sp/hard/libc.a(lib_a-init.o)
 .bss           0x0000000000000000        0x0 /home/asmir/Desktop/Dropbox/MCU/gcc/gcc-arm-none-eabi-7-2018-q2-update/bin/../lib/gcc/arm-none-eabi/7.3.1/../../../../arm-none-eabi/lib/thumb/v7e-m/fpv4-sp/hard/libc.a(lib_a-init.o)
 .text          0x0000000000000000        0x0 /home/asmir/Desktop/Dropbox/MCU/gcc/gcc-arm-none-eabi-7-2018-q2-update/bin/../lib/gcc/arm-none-eabi/7.3.1/../../../../arm-none-eabi/lib/thumb/v7e-m/fpv4-sp/hard/libc.a(lib_a-malloc.o)
 .data          0x0000000000000000        0x0 /home/asmir/Desktop/Dropbox/MCU/gcc/gcc-arm-none-eabi-7-2018-q2-update/bin/../lib/gcc/arm-none-eabi/7.3.1/../../../../arm-none-eabi/lib/thumb/v7e-m/fpv4-sp/hard/libc.a(lib_a-malloc.o)
 .bss           0x0000000000000000        0x0 /home/asmir/Desktop/Dropbox/MCU/gcc/gcc-arm-none-eabi-7-2018-q2-update/bin/../lib/gcc/arm-none-eabi/7.3.1/../../../../arm-none-eabi/lib/thumb/v7e-m/fpv4-sp/hard/libc.a(lib_a-malloc.o)
 .text.free     0x0000000000000000       0x10 /home/asmir/Desktop/Dropbox/MCU/gcc/gcc-arm-none-eabi-7-2018-q2-update/bin/../lib/gcc/arm-none-eabi/7.3.1/../../../../arm-none-eabi/lib/thumb/v7e-m/fpv4-sp/hard/libc.a(lib_a-malloc.o)
 .text          0x0000000000000000        0x0 /home/asmir/Desktop/Dropbox/MCU/gcc/gcc-arm-none-eabi-7-2018-q2-update/bin/../lib/gcc/arm-none-eabi/7.3.1/../../../../arm-none-eabi/lib/thumb/v7e-m/fpv4-sp/hard/libc.a(lib_a-mallocr.o)
 .data          0x0000000000000000        0x0 /home/asmir/Desktop/Dropbox/MCU/gcc/gcc-arm-none-eabi-7-2018-q2-update/bin/../lib/gcc/arm-none-eabi/7.3.1/../../../../arm-none-eabi/lib/thumb/v7e-m/fpv4-sp/hard/libc.a(lib_a-mallocr.o)
 .bss           0x0000000000000000        0x0 /home/asmir/Desktop/Dropbox/MCU/gcc/gcc-arm-none-eabi-7-2018-q2-update/bin/../lib/gcc/arm-none-eabi/7.3.1/../../../../arm-none-eabi/lib/thumb/v7e-m/fpv4-sp/hard/libc.a(lib_a-mallocr.o)
 .text          0x0000000000000000        0x0 /home/asmir/Desktop/Dropbox/MCU/gcc/gcc-arm-none-eabi-7-2018-q2-update/bin/../lib/gcc/arm-none-eabi/7.3.1/../../../../arm-none-eabi/lib/thumb/v7e-m/fpv4-sp/hard/libc.a(lib_a-memcmp.o)
 .data          0x0000000000000000        0x0 /home/asmir/Desktop/Dropbox/MCU/gcc/gcc-arm-none-eabi-7-2018-q2-update/bin/../lib/gcc/arm-none-eabi/7.3.1/../../../../arm-none-eabi/lib/thumb/v7e-m/fpv4-sp/hard/libc.a(lib_a-memcmp.o)
 .bss           0x0000000000000000        0x0 /home/asmir/Desktop/Dropbox/MCU/gcc/gcc-arm-none-eabi-7-2018-q2-update/bin/../lib/gcc/arm-none-eabi/7.3.1/../../../../arm-none-eabi/lib/thumb/v7e-m/fpv4-sp/hard/libc.a(lib_a-memcmp.o)
 .data          0x0000000000000000        0x0 /home/asmir/Desktop/Dropbox/MCU/gcc/gcc-arm-none-eabi-7-2018-q2-update/bin/../lib/gcc/arm-none-eabi/7.3.1/../../../../arm-none-eabi/lib/thumb/v7e-m/fpv4-sp/hard/libc.a(lib_a-memcpy.o)
 .bss           0x0000000000000000        0x0 /home/asmir/Desktop/Dropbox/MCU/gcc/gcc-arm-none-eabi-7-2018-q2-update/bin/../lib/gcc/arm-none-eabi/7.3.1/../../../../arm-none-eabi/lib/thumb/v7e-m/fpv4-sp/hard/libc.a(lib_a-memcpy.o)
 .text          0x0000000000000000        0x0 /home/asmir/Desktop/Dropbox/MCU/gcc/gcc-arm-none-eabi-7-2018-q2-update/bin/../lib/gcc/arm-none-eabi/7.3.1/../../../../arm-none-eabi/lib/thumb/v7e-m/fpv4-sp/hard/libc.a(lib_a-memset.o)
 .data          0x0000000000000000        0x0 /home/asmir/Desktop/Dropbox/MCU/gcc/gcc-arm-none-eabi-7-2018-q2-update/bin/../lib/gcc/arm-none-eabi/7.3.1/../../../../arm-none-eabi/lib/thumb/v7e-m/fpv4-sp/hard/libc.a(lib_a-memset.o)
 .bss           0x0000000000000000        0x0 /home/asmir/Desktop/Dropbox/MCU/gcc/gcc-arm-none-eabi-7-2018-q2-update/bin/../lib/gcc/arm-none-eabi/7.3.1/../../../../arm-none-eabi/lib/thumb/v7e-m/fpv4-sp/hard/libc.a(lib_a-memset.o)
 .text          0x0000000000000000        0x0 /home/asmir/Desktop/Dropbox/MCU/gcc/gcc-arm-none-eabi-7-2018-q2-update/bin/../lib/gcc/arm-none-eabi/7.3.1/../../../../arm-none-eabi/lib/thumb/v7e-m/fpv4-sp/hard/libc.a(lib_a-mlock.o)
 .data          0x0000000000000000        0x0 /home/asmir/Desktop/Dropbox/MCU/gcc/gcc-arm-none-eabi-7-2018-q2-update/bin/../lib/gcc/arm-none-eabi/7.3.1/../../../../arm-none-eabi/lib/thumb/v7e-m/fpv4-sp/hard/libc.a(lib_a-mlock.o)
 .bss           0x0000000000000000        0x0 /home/asmir/Desktop/Dropbox/MCU/gcc/gcc-arm-none-eabi-7-2018-q2-update/bin/../lib/gcc/arm-none-eabi/7.3.1/../../../../arm-none-eabi/lib/thumb/v7e-m/fpv4-sp/hard/libc.a(lib_a-mlock.o)
 .text          0x0000000000000000        0x0 /home/asmir/Desktop/Dropbox/MCU/gcc/gcc-arm-none-eabi-7-2018-q2-update/bin/../lib/gcc/arm-none-eabi/7.3.1/../../../../arm-none-eabi/lib/thumb/v7e-m/fpv4-sp/hard/libc.a(lib_a-sbrkr.o)
 .data          0x0000000000000000        0x0 /home/asmir/Desktop/Dropbox/MCU/gcc/gcc-arm-none-eabi-7-2018-q2-update/bin/../lib/gcc/arm-none-eabi/7.3.1/../../../../arm-none-eabi/lib/thumb/v7e-m/fpv4-sp/hard/libc.a(lib_a-sbrkr.o)
 .bss           0x0000000000000000        0x0 /home/asmir/Desktop/Dropbox/MCU/gcc/gcc-arm-none-eabi-7-2018-q2-update/bin/../lib/gcc/arm-none-eabi/7.3.1/../../../../arm-none-eabi/lib/thumb/v7e-m/fpv4-sp/hard/libc.a(lib_a-sbrkr.o)
 .text          0x0000000000000000        0x0 /home/asmir/Desktop/Dropbox/MCU/gcc/gcc-arm-none-eabi-7-2018-q2-update/bin/../lib/gcc/arm-none-eabi/7.3.1/../../../../arm-none-eabi/lib/thumb/v7e-m/fpv4-sp/hard/libc.a(lib_a-strcasecmp.o)
 .data          0x0000000000000000        0x0 /home/asmir/Desktop/Dropbox/MCU/gcc/gcc-arm-none-eabi-7-2018-q2-update/bin/../lib/gcc/arm-none-eabi/7.3.1/../../../../arm-none-eabi/lib/thumb/v7e-m/fpv4-sp/hard/libc.a(lib_a-strcasecmp.o)
 .bss           0x0000000000000000        0x0 /home/asmir/Desktop/Dropbox/MCU/gcc/gcc-arm-none-eabi-7-2018-q2-update/bin/../lib/gcc/arm-none-eabi/7.3.1/../../../../arm-none-eabi/lib/thumb/v7e-m/fpv4-sp/hard/libc.a(lib_a-strcasecmp.o)
 .text          0x0000000000000000       0xdc /home/asmir/Desktop/Dropbox/MCU/gcc/gcc-arm-none-eabi-7-2018-q2-update/bin/../lib/gcc/arm-none-eabi/7.3.1/../../../../arm-none-eabi/lib/thumb/v7e-m/fpv4-sp/hard/libc.a(lib_a-strlen.o)
 .data          0x0000000000000000        0x0 /home/asmir/Desktop/Dropbox/MCU/gcc/gcc-arm-none-eabi-7-2018-q2-update/bin/../lib/gcc/arm-none-eabi/7.3.1/../../../../arm-none-eabi/lib/thumb/v7e-m/fpv4-sp/hard/libc.a(lib_a-strlen.o)
 .bss           0x0000000000000000        0x0 /home/asmir/Desktop/Dropbox/MCU/gcc/gcc-arm-none-eabi-7-2018-q2-update/bin/../lib/gcc/arm-none-eabi/7.3.1/../../../../arm-none-eabi/lib/thumb/v7e-m/fpv4-sp/hard/libc.a(lib_a-strlen.o)
 .ARM.attributes
                0x0000000000000000       0x20 /home/asmir/Desktop/Dropbox/MCU/gcc/gcc-arm-none-eabi-7-2018-q2-update/bin/../lib/gcc/arm-none-eabi/7.3.1/../../../../arm-none-eabi/lib/thumb/v7e-m/fpv4-sp/hard/libc.a(lib_a-strlen.o)
 .text          0x0000000000000000        0x0 /home/asmir/Desktop/Dropbox/MCU/gcc/gcc-arm-none-eabi-7-2018-q2-update/bin/../lib/gcc/arm-none-eabi/7.3.1/../../../../arm-none-eabi/lib/thumb/v7e-m/fpv4-sp/hard/libc.a(lib_a-__call_atexit.o)
 .data          0x0000000000000000        0x0 /home/asmir/Desktop/Dropbox/MCU/gcc/gcc-arm-none-eabi-7-2018-q2-update/bin/../lib/gcc/arm-none-eabi/7.3.1/../../../../arm-none-eabi/lib/thumb/v7e-m/fpv4-sp/hard/libc.a(lib_a-__call_atexit.o)
 .bss           0x0000000000000000        0x0 /home/asmir/Desktop/Dropbox/MCU/gcc/gcc-arm-none-eabi-7-2018-q2-update/bin/../lib/gcc/arm-none-eabi/7.3.1/../../../../arm-none-eabi/lib/thumb/v7e-m/fpv4-sp/hard/libc.a(lib_a-__call_atexit.o)
 .text.__call_exitprocs
                0x0000000000000000       0xe8 /home/asmir/Desktop/Dropbox/MCU/gcc/gcc-arm-none-eabi-7-2018-q2-update/bin/../lib/gcc/arm-none-eabi/7.3.1/../../../../arm-none-eabi/lib/thumb/v7e-m/fpv4-sp/hard/libc.a(lib_a-__call_atexit.o)
 .text          0x0000000000000000        0x0 /home/asmir/Desktop/Dropbox/MCU/gcc/gcc-arm-none-eabi-7-2018-q2-update/bin/../lib/gcc/arm-none-eabi/7.3.1/../../../../arm-none-eabi/lib/thumb/v7e-m/fpv4-sp/hard/libc.a(lib_a-atexit.o)
 .data          0x0000000000000000        0x0 /home/asmir/Desktop/Dropbox/MCU/gcc/gcc-arm-none-eabi-7-2018-q2-update/bin/../lib/gcc/arm-none-eabi/7.3.1/../../../../arm-none-eabi/lib/thumb/v7e-m/fpv4-sp/hard/libc.a(lib_a-atexit.o)
 .bss           0x0000000000000000        0x0 /home/asmir/Desktop/Dropbox/MCU/gcc/gcc-arm-none-eabi-7-2018-q2-update/bin/../lib/gcc/arm-none-eabi/7.3.1/../../../../arm-none-eabi/lib/thumb/v7e-m/fpv4-sp/hard/libc.a(lib_a-atexit.o)
 .text          0x0000000000000000        0x0 /home/asmir/Desktop/Dropbox/MCU/gcc/gcc-arm-none-eabi-7-2018-q2-update/bin/../lib/gcc/arm-none-eabi/7.3.1/../../../../arm-none-eabi/lib/thumb/v7e-m/fpv4-sp/hard/libc.a(lib_a-fini.o)
 .data          0x0000000000000000        0x0 /home/asmir/Desktop/Dropbox/MCU/gcc/gcc-arm-none-eabi-7-2018-q2-update/bin/../lib/gcc/arm-none-eabi/7.3.1/../../../../arm-none-eabi/lib/thumb/v7e-m/fpv4-sp/hard/libc.a(lib_a-fini.o)
 .bss           0x0000000000000000        0x0 /home/asmir/Desktop/Dropbox/MCU/gcc/gcc-arm-none-eabi-7-2018-q2-update/bin/../lib/gcc/arm-none-eabi/7.3.1/../../../../arm-none-eabi/lib/thumb/v7e-m/fpv4-sp/hard/libc.a(lib_a-fini.o)
 .text          0x0000000000000000        0x0 /home/asmir/Desktop/Dropbox/MCU/gcc/gcc-arm-none-eabi-7-2018-q2-update/bin/../lib/gcc/arm-none-eabi/7.3.1/../../../../arm-none-eabi/lib/thumb/v7e-m/fpv4-sp/hard/libc.a(lib_a-freer.o)
 .data          0x0000000000000000        0x0 /home/asmir/Desktop/Dropbox/MCU/gcc/gcc-arm-none-eabi-7-2018-q2-update/bin/../lib/gcc/arm-none-eabi/7.3.1/../../../../arm-none-eabi/lib/thumb/v7e-m/fpv4-sp/hard/libc.a(lib_a-freer.o)
 .bss           0x0000000000000000        0x0 /home/asmir/Desktop/Dropbox/MCU/gcc/gcc-arm-none-eabi-7-2018-q2-update/bin/../lib/gcc/arm-none-eabi/7.3.1/../../../../arm-none-eabi/lib/thumb/v7e-m/fpv4-sp/hard/libc.a(lib_a-freer.o)
 .text          0x0000000000000000        0x0 /home/asmir/Desktop/Dropbox/MCU/gcc/gcc-arm-none-eabi-7-2018-q2-update/bin/../lib/gcc/arm-none-eabi/7.3.1/../../../../arm-none-eabi/lib/thumb/v7e-m/fpv4-sp/hard/libc.a(lib_a-locale.o)
 .data          0x0000000000000000        0x0 /home/asmir/Desktop/Dropbox/MCU/gcc/gcc-arm-none-eabi-7-2018-q2-update/bin/../lib/gcc/arm-none-eabi/7.3.1/../../../../arm-none-eabi/lib/thumb/v7e-m/fpv4-sp/hard/libc.a(lib_a-locale.o)
 .bss           0x0000000000000000        0x0 /home/asmir/Desktop/Dropbox/MCU/gcc/gcc-arm-none-eabi-7-2018-q2-update/bin/../lib/gcc/arm-none-eabi/7.3.1/../../../../arm-none-eabi/lib/thumb/v7e-m/fpv4-sp/hard/libc.a(lib_a-locale.o)
 .text._setlocale_r
                0x0000000000000000       0x40 /home/asmir/Desktop/Dropbox/MCU/gcc/gcc-arm-none-eabi-7-2018-q2-update/bin/../lib/gcc/arm-none-eabi/7.3.1/../../../../arm-none-eabi/lib/thumb/v7e-m/fpv4-sp/hard/libc.a(lib_a-locale.o)
 .text.__locale_mb_cur_max
                0x0000000000000000       0x1c /home/asmir/Desktop/Dropbox/MCU/gcc/gcc-arm-none-eabi-7-2018-q2-update/bin/../lib/gcc/arm-none-eabi/7.3.1/../../../../arm-none-eabi/lib/thumb/v7e-m/fpv4-sp/hard/libc.a(lib_a-locale.o)
 .text.__locale_ctype_ptr_l
                0x0000000000000000        0x8 /home/asmir/Desktop/Dropbox/MCU/gcc/gcc-arm-none-eabi-7-2018-q2-update/bin/../lib/gcc/arm-none-eabi/7.3.1/../../../../arm-none-eabi/lib/thumb/v7e-m/fpv4-sp/hard/libc.a(lib_a-locale.o)
 .text.setlocale
                0x0000000000000000       0x10 /home/asmir/Desktop/Dropbox/MCU/gcc/gcc-arm-none-eabi-7-2018-q2-update/bin/../lib/gcc/arm-none-eabi/7.3.1/../../../../arm-none-eabi/lib/thumb/v7e-m/fpv4-sp/hard/libc.a(lib_a-locale.o)
 .bss._PathLocale
                0x0000000000000000        0x4 /home/asmir/Desktop/Dropbox/MCU/gcc/gcc-arm-none-eabi-7-2018-q2-update/bin/../lib/gcc/arm-none-eabi/7.3.1/../../../../arm-none-eabi/lib/thumb/v7e-m/fpv4-sp/hard/libc.a(lib_a-locale.o)
 .text          0x0000000000000000        0x0 /home/asmir/Desktop/Dropbox/MCU/gcc/gcc-arm-none-eabi-7-2018-q2-update/bin/../lib/gcc/arm-none-eabi/7.3.1/../../../../arm-none-eabi/lib/thumb/v7e-m/fpv4-sp/hard/libc.a(lib_a-lock.o)
 .data          0x0000000000000000        0x0 /home/asmir/Desktop/Dropbox/MCU/gcc/gcc-arm-none-eabi-7-2018-q2-update/bin/../lib/gcc/arm-none-eabi/7.3.1/../../../../arm-none-eabi/lib/thumb/v7e-m/fpv4-sp/hard/libc.a(lib_a-lock.o)
 .bss           0x0000000000000000        0x0 /home/asmir/Desktop/Dropbox/MCU/gcc/gcc-arm-none-eabi-7-2018-q2-update/bin/../lib/gcc/arm-none-eabi/7.3.1/../../../../arm-none-eabi/lib/thumb/v7e-m/fpv4-sp/hard/libc.a(lib_a-lock.o)
 .text.__retarget_lock_init
                0x0000000000000000        0x4 /home/asmir/Desktop/Dropbox/MCU/gcc/gcc-arm-none-eabi-7-2018-q2-update/bin/../lib/gcc/arm-none-eabi/7.3.1/../../../../arm-none-eabi/lib/thumb/v7e-m/fpv4-sp/hard/libc.a(lib_a-lock.o)
 .text.__retarget_lock_init_recursive
                0x0000000000000000        0x4 /home/asmir/Desktop/Dropbox/MCU/gcc/gcc-arm-none-eabi-7-2018-q2-update/bin/../lib/gcc/arm-none-eabi/7.3.1/../../../../arm-none-eabi/lib/thumb/v7e-m/fpv4-sp/hard/libc.a(lib_a-lock.o)
 .text.__retarget_lock_close
                0x0000000000000000        0x4 /home/asmir/Desktop/Dropbox/MCU/gcc/gcc-arm-none-eabi-7-2018-q2-update/bin/../lib/gcc/arm-none-eabi/7.3.1/../../../../arm-none-eabi/lib/thumb/v7e-m/fpv4-sp/hard/libc.a(lib_a-lock.o)
 .text.__retarget_lock_close_recursive
                0x0000000000000000        0x4 /home/asmir/Desktop/Dropbox/MCU/gcc/gcc-arm-none-eabi-7-2018-q2-update/bin/../lib/gcc/arm-none-eabi/7.3.1/../../../../arm-none-eabi/lib/thumb/v7e-m/fpv4-sp/hard/libc.a(lib_a-lock.o)
 .text.__retarget_lock_acquire
                0x0000000000000000        0x4 /home/asmir/Desktop/Dropbox/MCU/gcc/gcc-arm-none-eabi-7-2018-q2-update/bin/../lib/gcc/arm-none-eabi/7.3.1/../../../../arm-none-eabi/lib/thumb/v7e-m/fpv4-sp/hard/libc.a(lib_a-lock.o)
 .text.__retarget_lock_try_acquire
                0x0000000000000000        0x4 /home/asmir/Desktop/Dropbox/MCU/gcc/gcc-arm-none-eabi-7-2018-q2-update/bin/../lib/gcc/arm-none-eabi/7.3.1/../../../../arm-none-eabi/lib/thumb/v7e-m/fpv4-sp/hard/libc.a(lib_a-lock.o)
 .text.__retarget_lock_try_acquire_recursive
                0x0000000000000000        0x4 /home/asmir/Desktop/Dropbox/MCU/gcc/gcc-arm-none-eabi-7-2018-q2-update/bin/../lib/gcc/arm-none-eabi/7.3.1/../../../../arm-none-eabi/lib/thumb/v7e-m/fpv4-sp/hard/libc.a(lib_a-lock.o)
 .text.__retarget_lock_release
                0x0000000000000000        0x4 /home/asmir/Desktop/Dropbox/MCU/gcc/gcc-arm-none-eabi-7-2018-q2-update/bin/../lib/gcc/arm-none-eabi/7.3.1/../../../../arm-none-eabi/lib/thumb/v7e-m/fpv4-sp/hard/libc.a(lib_a-lock.o)
 .text          0x0000000000000000        0x0 /home/asmir/Desktop/Dropbox/MCU/gcc/gcc-arm-none-eabi-7-2018-q2-update/bin/../lib/gcc/arm-none-eabi/7.3.1/../../../../arm-none-eabi/lib/thumb/v7e-m/fpv4-sp/hard/libc.a(lib_a-mbtowc_r.o)
 .data          0x0000000000000000        0x0 /home/asmir/Desktop/Dropbox/MCU/gcc/gcc-arm-none-eabi-7-2018-q2-update/bin/../lib/gcc/arm-none-eabi/7.3.1/../../../../arm-none-eabi/lib/thumb/v7e-m/fpv4-sp/hard/libc.a(lib_a-mbtowc_r.o)
 .bss           0x0000000000000000        0x0 /home/asmir/Desktop/Dropbox/MCU/gcc/gcc-arm-none-eabi-7-2018-q2-update/bin/../lib/gcc/arm-none-eabi/7.3.1/../../../../arm-none-eabi/lib/thumb/v7e-m/fpv4-sp/hard/libc.a(lib_a-mbtowc_r.o)
 .text._mbtowc_r
                0x0000000000000000       0x24 /home/asmir/Desktop/Dropbox/MCU/gcc/gcc-arm-none-eabi-7-2018-q2-update/bin/../lib/gcc/arm-none-eabi/7.3.1/../../../../arm-none-eabi/lib/thumb/v7e-m/fpv4-sp/hard/libc.a(lib_a-mbtowc_r.o)
 .text          0x0000000000000000        0x0 /home/asmir/Desktop/Dropbox/MCU/gcc/gcc-arm-none-eabi-7-2018-q2-update/bin/../lib/gcc/arm-none-eabi/7.3.1/../../../../arm-none-eabi/lib/thumb/v7e-m/fpv4-sp/hard/libc.a(lib_a-reent.o)
 .data          0x0000000000000000        0x0 /home/asmir/Desktop/Dropbox/MCU/gcc/gcc-arm-none-eabi-7-2018-q2-update/bin/../lib/gcc/arm-none-eabi/7.3.1/../../../../arm-none-eabi/lib/thumb/v7e-m/fpv4-sp/hard/libc.a(lib_a-reent.o)
 .bss           0x0000000000000000        0x0 /home/asmir/Desktop/Dropbox/MCU/gcc/gcc-arm-none-eabi-7-2018-q2-update/bin/../lib/gcc/arm-none-eabi/7.3.1/../../../../arm-none-eabi/lib/thumb/v7e-m/fpv4-sp/hard/libc.a(lib_a-reent.o)
 .text.cleanup_glue
                0x0000000000000000       0x28 /home/asmir/Desktop/Dropbox/MCU/gcc/gcc-arm-none-eabi-7-2018-q2-update/bin/../lib/gcc/arm-none-eabi/7.3.1/../../../../arm-none-eabi/lib/thumb/v7e-m/fpv4-sp/hard/libc.a(lib_a-reent.o)
 .text._reclaim_reent
                0x0000000000000000       0x88 /home/asmir/Desktop/Dropbox/MCU/gcc/gcc-arm-none-eabi-7-2018-q2-update/bin/../lib/gcc/arm-none-eabi/7.3.1/../../../../arm-none-eabi/lib/thumb/v7e-m/fpv4-sp/hard/libc.a(lib_a-reent.o)
 .text          0x0000000000000000      0x2dc /home/asmir/Desktop/Dropbox/MCU/gcc/gcc-arm-none-eabi-7-2018-q2-update/bin/../lib/gcc/arm-none-eabi/7.3.1/../../../../arm-none-eabi/lib/thumb/v7e-m/fpv4-sp/hard/libc.a(lib_a-strcmp.o)
 .data          0x0000000000000000        0x0 /home/asmir/Desktop/Dropbox/MCU/gcc/gcc-arm-none-eabi-7-2018-q2-update/bin/../lib/gcc/arm-none-eabi/7.3.1/../../../../arm-none-eabi/lib/thumb/v7e-m/fpv4-sp/hard/libc.a(lib_a-strcmp.o)
 .bss           0x0000000000000000        0x0 /home/asmir/Desktop/Dropbox/MCU/gcc/gcc-arm-none-eabi-7-2018-q2-update/bin/../lib/gcc/arm-none-eabi/7.3.1/../../../../arm-none-eabi/lib/thumb/v7e-m/fpv4-sp/hard/libc.a(lib_a-strcmp.o)
 .debug_frame   0x0000000000000000       0x68 /home/asmir/Desktop/Dropbox/MCU/gcc/gcc-arm-none-eabi-7-2018-q2-update/bin/../lib/gcc/arm-none-eabi/7.3.1/../../../../arm-none-eabi/lib/thumb/v7e-m/fpv4-sp/hard/libc.a(lib_a-strcmp.o)
 .ARM.attributes
                0x0000000000000000       0x20 /home/asmir/Desktop/Dropbox/MCU/gcc/gcc-arm-none-eabi-7-2018-q2-update/bin/../lib/gcc/arm-none-eabi/7.3.1/../../../../arm-none-eabi/lib/thumb/v7e-m/fpv4-sp/hard/libc.a(lib_a-strcmp.o)
 .text          0x0000000000000000        0x0 /home/asmir/Desktop/Dropbox/MCU/gcc/gcc-arm-none-eabi-7-2018-q2-update/bin/../lib/gcc/arm-none-eabi/7.3.1/../../../../arm-none-eabi/lib/thumb/v7e-m/fpv4-sp/hard/libc.a(lib_a-wctomb_r.o)
 .data          0x0000000000000000        0x0 /home/asmir/Desktop/Dropbox/MCU/gcc/gcc-arm-none-eabi-7-2018-q2-update/bin/../lib/gcc/arm-none-eabi/7.3.1/../../../../arm-none-eabi/lib/thumb/v7e-m/fpv4-sp/hard/libc.a(lib_a-wctomb_r.o)
 .bss           0x0000000000000000        0x0 /home/asmir/Desktop/Dropbox/MCU/gcc/gcc-arm-none-eabi-7-2018-q2-update/bin/../lib/gcc/arm-none-eabi/7.3.1/../../../../arm-none-eabi/lib/thumb/v7e-m/fpv4-sp/hard/libc.a(lib_a-wctomb_r.o)
 .text._wctomb_r
                0x0000000000000000       0x24 /home/asmir/Desktop/Dropbox/MCU/gcc/gcc-arm-none-eabi-7-2018-q2-update/bin/../lib/gcc/arm-none-eabi/7.3.1/../../../../arm-none-eabi/lib/thumb/v7e-m/fpv4-sp/hard/libc.a(lib_a-wctomb_r.o)
 .text          0x0000000000000000        0x0 /home/asmir/Desktop/Dropbox/MCU/gcc/gcc-arm-none-eabi-7-2018-q2-update/bin/../lib/gcc/arm-none-eabi/7.3.1/../../../../arm-none-eabi/lib/thumb/v7e-m/fpv4-sp/hard/libc.a(lib_a-__atexit.o)
 .data          0x0000000000000000        0x0 /home/asmir/Desktop/Dropbox/MCU/gcc/gcc-arm-none-eabi-7-2018-q2-update/bin/../lib/gcc/arm-none-eabi/7.3.1/../../../../arm-none-eabi/lib/thumb/v7e-m/fpv4-sp/hard/libc.a(lib_a-__atexit.o)
 .bss           0x0000000000000000        0x0 /home/asmir/Desktop/Dropbox/MCU/gcc/gcc-arm-none-eabi-7-2018-q2-update/bin/../lib/gcc/arm-none-eabi/7.3.1/../../../../arm-none-eabi/lib/thumb/v7e-m/fpv4-sp/hard/libc.a(lib_a-__atexit.o)
 .text          0x0000000000000000        0x0 /home/asmir/Desktop/Dropbox/MCU/gcc/gcc-arm-none-eabi-7-2018-q2-update/bin/../lib/gcc/arm-none-eabi/7.3.1/../../../../arm-none-eabi/lib/thumb/v7e-m/fpv4-sp/hard/libc.a(lib_a-ctype_.o)
 .data          0x0000000000000000        0x0 /home/asmir/Desktop/Dropbox/MCU/gcc/gcc-arm-none-eabi-7-2018-q2-update/bin/../lib/gcc/arm-none-eabi/7.3.1/../../../../arm-none-eabi/lib/thumb/v7e-m/fpv4-sp/hard/libc.a(lib_a-ctype_.o)
 .bss           0x0000000000000000        0x0 /home/asmir/Desktop/Dropbox/MCU/gcc/gcc-arm-none-eabi-7-2018-q2-update/bin/../lib/gcc/arm-none-eabi/7.3.1/../../../../arm-none-eabi/lib/thumb/v7e-m/fpv4-sp/hard/libc.a(lib_a-ctype_.o)
 .text          0x0000000000000000        0x0 /home/asmir/Desktop/Dropbox/MCU/gcc/gcc-arm-none-eabi-7-2018-q2-update/bin/../lib/gcc/arm-none-eabi/7.3.1/../../../../arm-none-eabi/lib/thumb/v7e-m/fpv4-sp/hard/libnosys.a(_exit.o)
 .data          0x0000000000000000        0x0 /home/asmir/Desktop/Dropbox/MCU/gcc/gcc-arm-none-eabi-7-2018-q2-update/bin/../lib/gcc/arm-none-eabi/7.3.1/../../../../arm-none-eabi/lib/thumb/v7e-m/fpv4-sp/hard/libnosys.a(_exit.o)
 .bss           0x0000000000000000        0x0 /home/asmir/Desktop/Dropbox/MCU/gcc/gcc-arm-none-eabi-7-2018-q2-update/bin/../lib/gcc/arm-none-eabi/7.3.1/../../../../arm-none-eabi/lib/thumb/v7e-m/fpv4-sp/hard/libnosys.a(_exit.o)
 .text._exit    0x0000000000000000        0x4 /home/asmir/Desktop/Dropbox/MCU/gcc/gcc-arm-none-eabi-7-2018-q2-update/bin/../lib/gcc/arm-none-eabi/7.3.1/../../../../arm-none-eabi/lib/thumb/v7e-m/fpv4-sp/hard/libnosys.a(_exit.o)
 .debug_frame   0x0000000000000000       0x20 /home/asmir/Desktop/Dropbox/MCU/gcc/gcc-arm-none-eabi-7-2018-q2-update/bin/../lib/gcc/arm-none-eabi/7.3.1/../../../../arm-none-eabi/lib/thumb/v7e-m/fpv4-sp/hard/libnosys.a(_exit.o)
 .ARM.attributes
                0x0000000000000000       0x34 /home/asmir/Desktop/Dropbox/MCU/gcc/gcc-arm-none-eabi-7-2018-q2-update/bin/../lib/gcc/arm-none-eabi/7.3.1/../../../../arm-none-eabi/lib/thumb/v7e-m/fpv4-sp/hard/libnosys.a(_exit.o)
 .text          0x0000000000000000       0xa0 /home/asmir/Desktop/Dropbox/MCU/gcc/gcc-arm-none-eabi-7-2018-q2-update/bin/../lib/gcc/arm-none-eabi/7.3.1/thumb/v7e-m/fpv4-sp/hard/libgcc.a(_aeabi_ldivmod.o)
 .data          0x0000000000000000        0x0 /home/asmir/Desktop/Dropbox/MCU/gcc/gcc-arm-none-eabi-7-2018-q2-update/bin/../lib/gcc/arm-none-eabi/7.3.1/thumb/v7e-m/fpv4-sp/hard/libgcc.a(_aeabi_ldivmod.o)
 .bss           0x0000000000000000        0x0 /home/asmir/Desktop/Dropbox/MCU/gcc/gcc-arm-none-eabi-7-2018-q2-update/bin/../lib/gcc/arm-none-eabi/7.3.1/thumb/v7e-m/fpv4-sp/hard/libgcc.a(_aeabi_ldivmod.o)
 .debug_frame   0x0000000000000000       0x44 /home/asmir/Desktop/Dropbox/MCU/gcc/gcc-arm-none-eabi-7-2018-q2-update/bin/../lib/gcc/arm-none-eabi/7.3.1/thumb/v7e-m/fpv4-sp/hard/libgcc.a(_aeabi_ldivmod.o)
 .ARM.attributes
                0x0000000000000000       0x22 /home/asmir/Desktop/Dropbox/MCU/gcc/gcc-arm-none-eabi-7-2018-q2-update/bin/../lib/gcc/arm-none-eabi/7.3.1/thumb/v7e-m/fpv4-sp/hard/libgcc.a(_aeabi_ldivmod.o)
 .text          0x0000000000000000       0x30 /home/asmir/Desktop/Dropbox/MCU/gcc/gcc-arm-none-eabi-7-2018-q2-update/bin/../lib/gcc/arm-none-eabi/7.3.1/thumb/v7e-m/fpv4-sp/hard/libgcc.a(_aeabi_uldivmod.o)
 .data          0x0000000000000000        0x0 /home/asmir/Desktop/Dropbox/MCU/gcc/gcc-arm-none-eabi-7-2018-q2-update/bin/../lib/gcc/arm-none-eabi/7.3.1/thumb/v7e-m/fpv4-sp/hard/libgcc.a(_aeabi_uldivmod.o)
 .bss           0x0000000000000000        0x0 /home/asmir/Desktop/Dropbox/MCU/gcc/gcc-arm-none-eabi-7-2018-q2-update/bin/../lib/gcc/arm-none-eabi/7.3.1/thumb/v7e-m/fpv4-sp/hard/libgcc.a(_aeabi_uldivmod.o)
 .debug_frame   0x0000000000000000       0x2c /home/asmir/Desktop/Dropbox/MCU/gcc/gcc-arm-none-eabi-7-2018-q2-update/bin/../lib/gcc/arm-none-eabi/7.3.1/thumb/v7e-m/fpv4-sp/hard/libgcc.a(_aeabi_uldivmod.o)
 .ARM.attributes
                0x0000000000000000       0x22 /home/asmir/Desktop/Dropbox/MCU/gcc/gcc-arm-none-eabi-7-2018-q2-update/bin/../lib/gcc/arm-none-eabi/7.3.1/thumb/v7e-m/fpv4-sp/hard/libgcc.a(_aeabi_uldivmod.o)
 .text          0x0000000000000000      0x2cc /home/asmir/Desktop/Dropbox/MCU/gcc/gcc-arm-none-eabi-7-2018-q2-update/bin/../lib/gcc/arm-none-eabi/7.3.1/thumb/v7e-m/fpv4-sp/hard/libgcc.a(_udivmoddi4.o)
 .data          0x0000000000000000        0x0 /home/asmir/Desktop/Dropbox/MCU/gcc/gcc-arm-none-eabi-7-2018-q2-update/bin/../lib/gcc/arm-none-eabi/7.3.1/thumb/v7e-m/fpv4-sp/hard/libgcc.a(_udivmoddi4.o)
 .bss           0x0000000000000000        0x0 /home/asmir/Desktop/Dropbox/MCU/gcc/gcc-arm-none-eabi-7-2018-q2-update/bin/../lib/gcc/arm-none-eabi/7.3.1/thumb/v7e-m/fpv4-sp/hard/libgcc.a(_udivmoddi4.o)
 .ARM.extab     0x0000000000000000        0x0 /home/asmir/Desktop/Dropbox/MCU/gcc/gcc-arm-none-eabi-7-2018-q2-update/bin/../lib/gcc/arm-none-eabi/7.3.1/thumb/v7e-m/fpv4-sp/hard/libgcc.a(_udivmoddi4.o)
 .ARM.exidx     0x0000000000000000        0x8 /home/asmir/Desktop/Dropbox/MCU/gcc/gcc-arm-none-eabi-7-2018-q2-update/bin/../lib/gcc/arm-none-eabi/7.3.1/thumb/v7e-m/fpv4-sp/hard/libgcc.a(_udivmoddi4.o)
 .debug_frame   0x0000000000000000       0x34 /home/asmir/Desktop/Dropbox/MCU/gcc/gcc-arm-none-eabi-7-2018-q2-update/bin/../lib/gcc/arm-none-eabi/7.3.1/thumb/v7e-m/fpv4-sp/hard/libgcc.a(_udivmoddi4.o)
 .ARM.attributes
                0x0000000000000000       0x34 /home/asmir/Desktop/Dropbox/MCU/gcc/gcc-arm-none-eabi-7-2018-q2-update/bin/../lib/gcc/arm-none-eabi/7.3.1/thumb/v7e-m/fpv4-sp/hard/libgcc.a(_udivmoddi4.o)
 .text          0x0000000000000000        0x4 /home/asmir/Desktop/Dropbox/MCU/gcc/gcc-arm-none-eabi-7-2018-q2-update/bin/../lib/gcc/arm-none-eabi/7.3.1/thumb/v7e-m/fpv4-sp/hard/libgcc.a(_dvmd_tls.o)
 .data          0x0000000000000000        0x0 /home/asmir/Desktop/Dropbox/MCU/gcc/gcc-arm-none-eabi-7-2018-q2-update/bin/../lib/gcc/arm-none-eabi/7.3.1/thumb/v7e-m/fpv4-sp/hard/libgcc.a(_dvmd_tls.o)
 .bss           0x0000000000000000        0x0 /home/asmir/Desktop/Dropbox/MCU/gcc/gcc-arm-none-eabi-7-2018-q2-update/bin/../lib/gcc/arm-none-eabi/7.3.1/thumb/v7e-m/fpv4-sp/hard/libgcc.a(_dvmd_tls.o)
 .ARM.attributes
                0x0000000000000000       0x22 /home/asmir/Desktop/Dropbox/MCU/gcc/gcc-arm-none-eabi-7-2018-q2-update/bin/../lib/gcc/arm-none-eabi/7.3.1/thumb/v7e-m/fpv4-sp/hard/libgcc.a(_dvmd_tls.o)
 .text          0x0000000000000000        0x0 /home/asmir/Desktop/Dropbox/MCU/gcc/gcc-arm-none-eabi-7-2018-q2-update/bin/../lib/gcc/arm-none-eabi/7.3.1/thumb/v7e-m/fpv4-sp/hard/crtend.o
 .data          0x0000000000000000        0x0 /home/asmir/Desktop/Dropbox/MCU/gcc/gcc-arm-none-eabi-7-2018-q2-update/bin/../lib/gcc/arm-none-eabi/7.3.1/thumb/v7e-m/fpv4-sp/hard/crtend.o
 .bss           0x0000000000000000        0x0 /home/asmir/Desktop/Dropbox/MCU/gcc/gcc-arm-none-eabi-7-2018-q2-update/bin/../lib/gcc/arm-none-eabi/7.3.1/thumb/v7e-m/fpv4-sp/hard/crtend.o
 .eh_frame      0x0000000000000000        0x4 /home/asmir/Desktop/Dropbox/MCU/gcc/gcc-arm-none-eabi-7-2018-q2-update/bin/../lib/gcc/arm-none-eabi/7.3.1/thumb/v7e-m/fpv4-sp/hard/crtend.o
 .ARM.attributes
                0x0000000000000000       0x34 /home/asmir/Desktop/Dropbox/MCU/gcc/gcc-arm-none-eabi-7-2018-q2-update/bin/../lib/gcc/arm-none-eabi/7.3.1/thumb/v7e-m/fpv4-sp/hard/crtend.o
 .text          0x0000000000000000        0x0 /home/asmir/Desktop/Dropbox/MCU/gcc/gcc-arm-none-eabi-7-2018-q2-update/bin/../lib/gcc/arm-none-eabi/7.3.1/thumb/v7e-m/fpv4-sp/hard/crtn.o
 .data          0x0000000000000000        0x0 /home/asmir/Desktop/Dropbox/MCU/gcc/gcc-arm-none-eabi-7-2018-q2-update/bin/../lib/gcc/arm-none-eabi/7.3.1/thumb/v7e-m/fpv4-sp/hard/crtn.o
 .bss           0x0000000000000000        0x0 /home/asmir/Desktop/Dropbox/MCU/gcc/gcc-arm-none-eabi-7-2018-q2-update/bin/../lib/gcc/arm-none-eabi/7.3.1/thumb/v7e-m/fpv4-sp/hard/crtn.o

Memory Configuration

Name             Origin             Length             Attributes
m_flash_config   0x0000000060000000 0x0000000000001000 xr
m_ivt            0x0000000060001000 0x0000000000001000 xr
m_interrupts     0x0000000060002000 0x0000000000000400 xr
m_text           0x0000000060002400 0x000000000000dc00 xr
eeprom           0x0000000060010000 0x0000000000010000 rw
nvmobjects       0x0000000060020000 0x0000000000020000 rw
m_qacode         0x0000000000000000 0x0000000000010000 xr
m_data           0x0000000020000000 0x0000000000010000 rw
m_data2          0x0000000020200000 0x0000000000020000 rw
*default*        0x0000000000000000 0xffffffffffffffff

Linker script and memory map

LOAD /home/asmir/Desktop/Dropbox/MCU/gcc/gcc-arm-none-eabi-7-2018-q2-update/bin/../lib/gcc/arm-none-eabi/7.3.1/thumb/v7e-m/fpv4-sp/hard/crti.o
LOAD /home/asmir/Desktop/Dropbox/MCU/gcc/gcc-arm-none-eabi-7-2018-q2-update/bin/../lib/gcc/arm-none-eabi/7.3.1/thumb/v7e-m/fpv4-sp/hard/crtbegin.o
LOAD /home/asmir/Desktop/Dropbox/MCU/gcc/gcc-arm-none-eabi-7-2018-q2-update/bin/../lib/gcc/arm-none-eabi/7.3.1/../../../../arm-none-eabi/lib/thumb/v7e-m/fpv4-sp/hard/crt0.o
LOAD /home/asmir/Desktop/Dropbox/MCU/nxp/RT1021/projects/alencon-systems/bootloader-v0.3/build/main.o
LOAD /home/asmir/Desktop/Dropbox/MCU/nxp/RT1021/projects/alencon-systems/bootloader-v0.3/build/systemclk.o
LOAD /home/asmir/Desktop/Dropbox/MCU/nxp/RT1021/projects/alencon-systems/bootloader-v0.3/build/delay.o
LOAD /home/asmir/Desktop/Dropbox/MCU/nxp/RT1021/projects/alencon-systems/bootloader-v0.3/build/fwver.o
LOAD /home/asmir/Desktop/Dropbox/MCU/nxp/RT1021/projects/alencon-systems/bootloader-v0.3/build/debug.o
LOAD /home/asmir/Desktop/Dropbox/MCU/nxp/RT1021/projects/alencon-systems/bootloader-v0.3/build/misc.o
LOAD /home/asmir/Desktop/Dropbox/MCU/nxp/RT1021/projects/alencon-systems/bootloader-v0.3/build/lpuart.o
LOAD /home/asmir/Desktop/Dropbox/MCU/nxp/RT1021/projects/alencon-systems/bootloader-v0.3/build/board.o
LOAD /home/asmir/Desktop/Dropbox/MCU/nxp/RT1021/projects/alencon-systems/bootloader-v0.3/build/evkmimxrt1020_flexspi_nor_config.o
LOAD /home/asmir/Desktop/Dropbox/MCU/nxp/RT1021/projects/alencon-systems/bootloader-v0.3/build/fsl_clock.o
LOAD /home/asmir/Desktop/Dropbox/MCU/nxp/RT1021/projects/alencon-systems/bootloader-v0.3/build/fsl_component_generic_list.o
LOAD /home/asmir/Desktop/Dropbox/MCU/nxp/RT1021/projects/alencon-systems/bootloader-v0.3/build/fsl_gpio.o
LOAD /home/asmir/Desktop/Dropbox/MCU/nxp/RT1021/projects/alencon-systems/bootloader-v0.3/build/pin_mux.o
LOAD /home/asmir/Desktop/Dropbox/MCU/nxp/RT1021/projects/alencon-systems/bootloader-v0.3/build/clock_config.o
LOAD /home/asmir/Desktop/Dropbox/MCU/nxp/RT1021/projects/alencon-systems/bootloader-v0.3/build/fsl_common_arm.o
LOAD /home/asmir/Desktop/Dropbox/MCU/nxp/RT1021/projects/alencon-systems/bootloader-v0.3/build/system_MIMXRT1021.o
LOAD /home/asmir/Desktop/Dropbox/MCU/nxp/RT1021/projects/alencon-systems/bootloader-v0.3/build/dcd.o
LOAD /home/asmir/Desktop/Dropbox/MCU/nxp/RT1021/projects/alencon-systems/bootloader-v0.3/build/fsl_assert.o
LOAD /home/asmir/Desktop/Dropbox/MCU/nxp/RT1021/projects/alencon-systems/bootloader-v0.3/build/fsl_common.o
LOAD /home/asmir/Desktop/Dropbox/MCU/nxp/RT1021/projects/alencon-systems/bootloader-v0.3/build/fsl_flexspi_nor_boot.o
LOAD /home/asmir/Desktop/Dropbox/MCU/nxp/RT1021/projects/alencon-systems/bootloader-v0.3/build/fsl_sbrk.o
LOAD /home/asmir/Desktop/Dropbox/MCU/nxp/RT1021/projects/alencon-systems/bootloader-v0.3/build/flash.o
LOAD /home/asmir/Desktop/Dropbox/MCU/nxp/RT1021/projects/alencon-systems/bootloader-v0.3/build/timing.o
LOAD /home/asmir/Desktop/Dropbox/MCU/nxp/RT1021/projects/alencon-systems/bootloader-v0.3/build/fsl_flexspi.o
LOAD /home/asmir/Desktop/Dropbox/MCU/nxp/RT1021/projects/alencon-systems/bootloader-v0.3/build/flexspi_nor_flash_ops.o
LOAD /home/asmir/Desktop/Dropbox/MCU/nxp/RT1021/projects/alencon-systems/bootloader-v0.3/build/fsl_cache.o
LOAD /home/asmir/Desktop/Dropbox/MCU/nxp/RT1021/projects/alencon-systems/bootloader-v0.3/build/hal_eeprom.o
LOAD /home/asmir/Desktop/Dropbox/MCU/nxp/RT1021/projects/alencon-systems/bootloader-v0.3/build/eeprom.o
LOAD /home/asmir/Desktop/Dropbox/MCU/nxp/RT1021/projects/alencon-systems/bootloader-v0.3/build/nvm_objects.o
LOAD /home/asmir/Desktop/Dropbox/MCU/nxp/RT1021/projects/alencon-systems/bootloader-v0.3/build/hal_uart.o
LOAD /home/asmir/Desktop/Dropbox/MCU/nxp/RT1021/projects/alencon-systems/bootloader-v0.3/build/uart.o
LOAD /home/asmir/Desktop/Dropbox/MCU/nxp/RT1021/projects/alencon-systems/bootloader-v0.3/build/buffer.o
LOAD /home/asmir/Desktop/Dropbox/MCU/nxp/RT1021/projects/alencon-systems/bootloader-v0.3/build/buffer_printf.o
LOAD /home/asmir/Desktop/Dropbox/MCU/nxp/RT1021/projects/alencon-systems/bootloader-v0.3/build/task.o
LOAD /home/asmir/Desktop/Dropbox/MCU/nxp/RT1021/projects/alencon-systems/bootloader-v0.3/build/list.o
LOAD /home/asmir/Desktop/Dropbox/MCU/nxp/RT1021/projects/alencon-systems/bootloader-v0.3/build/crc16.o
LOAD /home/asmir/Desktop/Dropbox/MCU/nxp/RT1021/projects/alencon-systems/bootloader-v0.3/build/subsys.o
LOAD /home/asmir/Desktop/Dropbox/MCU/nxp/RT1021/projects/alencon-systems/bootloader-v0.3/build/charReceiverList.o
LOAD /home/asmir/Desktop/Dropbox/MCU/nxp/RT1021/projects/alencon-systems/bootloader-v0.3/build/bootloader.o
LOAD /home/asmir/Desktop/Dropbox/MCU/nxp/RT1021/projects/alencon-systems/bootloader-v0.3/build/hardware.o
LOAD /home/asmir/Desktop/Dropbox/MCU/nxp/RT1021/projects/alencon-systems/bootloader-v0.3/build/RS485Serial.o
LOAD /home/asmir/Desktop/Dropbox/MCU/nxp/RT1021/projects/alencon-systems/bootloader-v0.3/build/mbcrc.o
LOAD /home/asmir/Desktop/Dropbox/MCU/nxp/RT1021/projects/alencon-systems/bootloader-v0.3/build/mbfunccoils.o
LOAD /home/asmir/Desktop/Dropbox/MCU/nxp/RT1021/projects/alencon-systems/bootloader-v0.3/build/mbfuncdiag.o
LOAD /home/asmir/Desktop/Dropbox/MCU/nxp/RT1021/projects/alencon-systems/bootloader-v0.3/build/mbfuncdisc.o
LOAD /home/asmir/Desktop/Dropbox/MCU/nxp/RT1021/projects/alencon-systems/bootloader-v0.3/build/mbfuncholding.o
LOAD /home/asmir/Desktop/Dropbox/MCU/nxp/RT1021/projects/alencon-systems/bootloader-v0.3/build/mbfuncinput.o
LOAD /home/asmir/Desktop/Dropbox/MCU/nxp/RT1021/projects/alencon-systems/bootloader-v0.3/build/mbfuncother.o
LOAD /home/asmir/Desktop/Dropbox/MCU/nxp/RT1021/projects/alencon-systems/bootloader-v0.3/build/mbutils.o
LOAD /home/asmir/Desktop/Dropbox/MCU/nxp/RT1021/projects/alencon-systems/bootloader-v0.3/build/mb.o
LOAD /home/asmir/Desktop/Dropbox/MCU/nxp/RT1021/projects/alencon-systems/bootloader-v0.3/build/AlenconModbus.o
LOAD /home/asmir/Desktop/Dropbox/MCU/nxp/RT1021/projects/alencon-systems/bootloader-v0.3/build/AlenconModbusBootloader.o
LOAD /home/asmir/Desktop/Dropbox/MCU/nxp/RT1021/projects/alencon-systems/bootloader-v0.3/build/mbportevent.o
LOAD /home/asmir/Desktop/Dropbox/MCU/nxp/RT1021/projects/alencon-systems/bootloader-v0.3/build/mbportother.o
LOAD /home/asmir/Desktop/Dropbox/MCU/nxp/RT1021/projects/alencon-systems/bootloader-v0.3/build/mbporttimer.o
LOAD /home/asmir/Desktop/Dropbox/MCU/nxp/RT1021/projects/alencon-systems/bootloader-v0.3/build/DCDC_mbrtu.o
LOAD /home/asmir/Desktop/Dropbox/MCU/nxp/RT1021/projects/alencon-systems/bootloader-v0.3/build/startup_MIMXRT1021.o
LOAD /home/asmir/Desktop/Dropbox/MCU/gcc/gcc-arm-none-eabi-7-2018-q2-update/bin/../lib/gcc/arm-none-eabi/7.3.1/../../../../arm-none-eabi/lib/thumb/v7e-m/fpv4-sp/hard/libm.a
LOAD /home/asmir/Desktop/Dropbox/MCU/gcc/gcc-arm-none-eabi-7-2018-q2-update/bin/../lib/gcc/arm-none-eabi/7.3.1/../../../../arm-none-eabi/lib/thumb/v7e-m/fpv4-sp/hard/libc.a
LOAD /home/asmir/Desktop/Dropbox/MCU/gcc/gcc-arm-none-eabi-7-2018-q2-update/bin/../lib/gcc/arm-none-eabi/7.3.1/../../../../arm-none-eabi/lib/thumb/v7e-m/fpv4-sp/hard/libnosys.a
START GROUP
LOAD /home/asmir/Desktop/Dropbox/MCU/gcc/gcc-arm-none-eabi-7-2018-q2-update/bin/../lib/gcc/arm-none-eabi/7.3.1/thumb/v7e-m/fpv4-sp/hard/libgcc.a
LOAD /home/asmir/Desktop/Dropbox/MCU/gcc/gcc-arm-none-eabi-7-2018-q2-update/bin/../lib/gcc/arm-none-eabi/7.3.1/../../../../arm-none-eabi/lib/thumb/v7e-m/fpv4-sp/hard/libg.a
LOAD /home/asmir/Desktop/Dropbox/MCU/gcc/gcc-arm-none-eabi-7-2018-q2-update/bin/../lib/gcc/arm-none-eabi/7.3.1/../../../../arm-none-eabi/lib/thumb/v7e-m/fpv4-sp/hard/libc.a
END GROUP
LOAD /home/asmir/Desktop/Dropbox/MCU/gcc/gcc-arm-none-eabi-7-2018-q2-update/bin/../lib/gcc/arm-none-eabi/7.3.1/thumb/v7e-m/fpv4-sp/hard/crtend.o
LOAD /home/asmir/Desktop/Dropbox/MCU/gcc/gcc-arm-none-eabi-7-2018-q2-update/bin/../lib/gcc/arm-none-eabi/7.3.1/thumb/v7e-m/fpv4-sp/hard/crtn.o
                0x0000000000000400                HEAP_SIZE = DEFINED (__heap_size__)?__heap_size__:0x400
                0x0000000000000400                STACK_SIZE = DEFINED (__stack_size__)?__stack_size__:0x400
                0x0000000000000000                VECTOR_RAM_SIZE = DEFINED (__ram_vector_table__)?0x400:0x0
                0x0000000020200000                __NCACHE_REGION_START = ORIGIN (m_data2)
                0x0000000000000000                __NCACHE_REGION_SIZE = 0x0

.flash_config   0x0000000060000000      0x200
                0x0000000060000000                . = ALIGN (0x4)
                0x0000000060000000                __FLASH_BASE = .
 *(.boot_hdr.conf)
 .boot_hdr.conf
                0x0000000060000000      0x200 /home/asmir/Desktop/Dropbox/MCU/nxp/RT1021/projects/alencon-systems/bootloader-v0.3/build/evkmimxrt1020_flexspi_nor_config.o
                0x0000000060000000                qspiflash_config
                0x0000000060000200                . = ALIGN (0x4)
                0x0000000060001000                ivt_begin = (ORIGIN (m_flash_config) + LENGTH (m_flash_config))

.ivt            0x0000000060001000      0x410
                0x0000000060001000                . = ALIGN (0x4)
 *(.boot_hdr.ivt)
 .boot_hdr.ivt  0x0000000060001000       0x20 /home/asmir/Desktop/Dropbox/MCU/nxp/RT1021/projects/alencon-systems/bootloader-v0.3/build/fsl_flexspi_nor_boot.o
                0x0000000060001000                image_vector_table
 *(.boot_hdr.boot_data)
 .boot_hdr.boot_data
                0x0000000060001020       0x10 /home/asmir/Desktop/Dropbox/MCU/nxp/RT1021/projects/alencon-systems/bootloader-v0.3/build/fsl_flexspi_nor_boot.o
                0x0000000060001020                g_boot_data
 *(.boot_hdr.dcd_data)
 .boot_hdr.dcd_data
                0x0000000060001030      0x3e0 /home/asmir/Desktop/Dropbox/MCU/nxp/RT1021/projects/alencon-systems/bootloader-v0.3/build/dcd.o
                0x0000000060001030                dcd_data
                0x0000000060001410                . = ALIGN (0x4)

.interrupts     0x0000000060002000      0x400
                0x0000000060002000                __VECTOR_TABLE = .
                0x0000000060002000                __Vectors = .
                0x0000000060002000                . = ALIGN (0x4)
 *(.isr_vector)
 .isr_vector    0x0000000060002000      0x400 /home/asmir/Desktop/Dropbox/MCU/nxp/RT1021/projects/alencon-systems/bootloader-v0.3/build/startup_MIMXRT1021.o
                0x0000000060002000                __isr_vector
                0x0000000060002400                . = ALIGN (0x4)

.text           0x0000000060002400     0x6218
                0x0000000060002400                . = ALIGN (0x4)
 *(.text)
 .text          0x0000000060002400       0x40 /home/asmir/Desktop/Dropbox/MCU/gcc/gcc-arm-none-eabi-7-2018-q2-update/bin/../lib/gcc/arm-none-eabi/7.3.1/thumb/v7e-m/fpv4-sp/hard/crtbegin.o
 .text          0x0000000060002440      0x244 /home/asmir/Desktop/Dropbox/MCU/nxp/RT1021/projects/alencon-systems/bootloader-v0.3/build/startup_MIMXRT1021.o
                0x0000000060002440                Reset_Handler
                0x00000000600024e8                LPUART8_DriverIRQHandler
                0x00000000600024e8                LPSPI2_DriverIRQHandler
                0x00000000600024e8                ADC_ETC_IRQ0_IRQHandler
                0x00000000600024e8                DebugMon_Handler
                0x00000000600024e8                SAI3_RX_DriverIRQHandler
                0x00000000600024e8                DMA13_DMA29_DriverIRQHandler
                0x00000000600024e8                Reserved86_IRQHandler
                0x00000000600024e8                SRC_IRQHandler
                0x00000000600024e8                LPSPI4_DriverIRQHandler
                0x00000000600024e8                Reserved60_IRQHandler
                0x00000000600024e8                GPIO2_Combined_0_15_IRQHandler
                0x00000000600024e8                SPDIF_DriverIRQHandler
                0x00000000600024e8                GPIO1_INT2_IRQHandler
                0x00000000600024e8                Reserved103_IRQHandler
                0x00000000600024e8                ENC2_IRQHandler
                0x00000000600024e8                PWM2_2_IRQHandler
                0x00000000600024e8                GPIO1_INT7_IRQHandler
                0x00000000600024e8                CCM_1_IRQHandler
                0x00000000600024e8                Reserved59_IRQHandler
                0x00000000600024e8                ADC_ETC_IRQ1_IRQHandler
                0x00000000600024e8                DMA7_DMA23_DriverIRQHandler
                0x00000000600024e8                CTI0_ERROR_IRQHandler
                0x00000000600024e8                GPIO5_Combined_0_15_IRQHandler
                0x00000000600024e8                PWM1_0_IRQHandler
                0x00000000600024e8                Reserved68_IRQHandler
                0x00000000600024e8                LPI2C3_DriverIRQHandler
                0x00000000600024e8                PWM2_0_IRQHandler
                0x00000000600024e8                DCP_VMI_IRQHandler
                0x00000000600024e8                DMA14_DMA30_DriverIRQHandler
                0x00000000600024e8                ENET_1588_Timer_DriverIRQHandler
                0x00000000600024e8                PWM2_1_IRQHandler
                0x00000000600024e8                PWM2_FAULT_IRQHandler
                0x00000000600024e8                WDOG1_IRQHandler
                0x00000000600024e8                LPUART5_DriverIRQHandler
                0x00000000600024e8                Reserved151_IRQHandler
                0x00000000600024e8                GPT1_IRQHandler
                0x00000000600024e8                ACMP4_IRQHandler
                0x00000000600024e8                SEMC_IRQHandler
                0x00000000600024e8                DMA0_DMA16_DriverIRQHandler
                0x00000000600024e8                DefaultISR
                0x00000000600024e8                Reserved58_IRQHandler
                0x00000000600024e8                PWM1_1_IRQHandler
                0x00000000600024e8                DMA2_DMA18_DriverIRQHandler
                0x00000000600024e8                Reserved82_IRQHandler
                0x00000000600024e8                USDHC1_DriverIRQHandler
                0x00000000600024e8                GPIO1_INT0_IRQHandler
                0x00000000600024e8                LPUART2_DriverIRQHandler
                0x00000000600024e8                CSU_IRQHandler
                0x00000000600024e8                Reserved70_IRQHandler
                0x00000000600024e8                ADC1_IRQHandler
                0x00000000600024e8                FLEXIO1_DriverIRQHandler
                0x00000000600024e8                ENET_DriverIRQHandler
                0x00000000600024e8                GPIO1_Combined_16_31_IRQHandler
                0x00000000600024e8                Reserved128_IRQHandler
                0x00000000600024e8                RTWDOG_IRQHandler
                0x00000000600024e8                Reserved78_IRQHandler
                0x00000000600024e8                SAI1_DriverIRQHandler
                0x00000000600024e8                DMA12_DMA28_DriverIRQHandler
                0x00000000600024e8                GPIO3_Combined_16_31_IRQHandler
                0x00000000600024e8                EWM_IRQHandler
                0x00000000600024e8                TEMP_LOW_HIGH_IRQHandler
                0x00000000600024e8                WDOG2_IRQHandler
                0x00000000600024e8                GPIO1_INT5_IRQHandler
                0x00000000600024e8                PWM2_3_IRQHandler
                0x00000000600024e8                CORE_IRQHandler
                0x00000000600024e8                DMA10_DMA26_DriverIRQHandler
                0x00000000600024e8                TEMP_PANIC_IRQHandler
                0x00000000600024e8                GPIO1_INT6_IRQHandler
                0x00000000600024e8                PWM1_2_IRQHandler
                0x00000000600024e8                Reserved144_IRQHandler
                0x00000000600024e8                GPR_IRQ_IRQHandler
                0x00000000600024e8                GPC_IRQHandler
                0x00000000600024e8                LPUART1_DriverIRQHandler
                0x00000000600024e8                DCDC_IRQHandler
                0x00000000600024e8                GPIO3_Combined_0_15_IRQHandler
                0x00000000600024e8                Reserved107_IRQHandler
                0x00000000600024e8                DMA1_DMA17_DriverIRQHandler
                0x00000000600024e8                USB_OTG1_IRQHandler
                0x00000000600024e8                LPUART4_DriverIRQHandler
                0x00000000600024e8                CAN2_DriverIRQHandler
                0x00000000600024e8                Reserved102_IRQHandler
                0x00000000600024e8                GPIO5_Combined_16_31_IRQHandler
                0x00000000600024e8                TMR2_IRQHandler
                0x00000000600024e8                ADC_ETC_ERROR_IRQ_IRQHandler
                0x00000000600024e8                DMA8_DMA24_DriverIRQHandler
                0x00000000600024e8                DMA6_DMA22_DriverIRQHandler
                0x00000000600024e8                BEE_IRQHandler
                0x00000000600024e8                GPIO1_INT1_IRQHandler
                0x00000000600024e8                SNVS_LP_HP_WRAPPER_IRQHandler
                0x00000000600024e8                ADC_ETC_IRQ2_IRQHandler
                0x00000000600024e8                Reserved148_IRQHandler
                0x00000000600024e8                GPIO1_INT4_IRQHandler
                0x00000000600024e8                LPUART6_DriverIRQHandler
                0x00000000600024e8                CCM_2_IRQHandler
                0x00000000600024e8                KPP_IRQHandler
                0x00000000600024e8                ADC2_IRQHandler
                0x00000000600024e8                USDHC2_DriverIRQHandler
                0x00000000600024e8                SAI2_DriverIRQHandler
                0x00000000600024e8                PIT_IRQHandler
                0x00000000600024e8                Reserved115_IRQHandler
                0x00000000600024e8                SNVS_HP_WRAPPER_IRQHandler
                0x00000000600024e8                DMA11_DMA27_DriverIRQHandler
                0x00000000600024e8                Reserved147_IRQHandler
                0x00000000600024e8                XBAR1_IRQ_2_3_IRQHandler
                0x00000000600024e8                LPI2C1_DriverIRQHandler
                0x00000000600024e8                DCP_IRQHandler
                0x00000000600024e8                LPUART7_DriverIRQHandler
                0x00000000600024e8                Reserved123_IRQHandler
                0x00000000600024e8                DMA4_DMA20_DriverIRQHandler
                0x00000000600024e8                GPIO1_INT3_IRQHandler
                0x00000000600024e8                DMA9_DMA25_DriverIRQHandler
                0x00000000600024e8                GPIO1_Combined_0_15_IRQHandler
                0x00000000600024e8                LPSPI1_DriverIRQHandler
                0x00000000600024e8                Reserved152_IRQHandler
                0x00000000600024e8                DMA3_DMA19_DriverIRQHandler
                0x00000000600024e8                ACMP3_IRQHandler
                0x00000000600024e8                ENC1_IRQHandler
                0x00000000600024e8                PWM1_FAULT_IRQHandler
                0x00000000600024e8                Reserved143_IRQHandler
                0x00000000600024e8                GPIO2_Combined_16_31_IRQHandler
                0x00000000600024e8                LPI2C4_DriverIRQHandler
                0x00000000600024e8                PMU_IRQHandler
                0x00000000600024e8                XBAR1_IRQ_0_1_IRQHandler
                0x00000000600024e8                SNVS_HP_WRAPPER_TZ_IRQHandler
                0x00000000600024e8                SAI3_TX_DriverIRQHandler
                0x00000000600024e8                ACMP2_IRQHandler
                0x00000000600024e8                GPT2_IRQHandler
                0x00000000600024e8                FLEXRAM_IRQHandler
                0x00000000600024e8                DMA5_DMA21_DriverIRQHandler
                0x00000000600024e8                USB_PHY_IRQHandler
                0x00000000600024e8                Reserved56_IRQHandler
                0x00000000600024e8                ACMP1_IRQHandler
                0x00000000600024e8                Reserved87_IRQHandler
                0x00000000600024e8                DMA15_DMA31_DriverIRQHandler
                0x00000000600024e8                LPSPI3_DriverIRQHandler
                0x00000000600024e8                LPI2C2_DriverIRQHandler
                0x00000000600024e8                DMA_ERROR_DriverIRQHandler
                0x00000000600024e8                CAN1_DriverIRQHandler
                0x00000000600024e8                TMR1_IRQHandler
                0x00000000600024e8                TRNG_IRQHandler
                0x00000000600024e8                CTI1_ERROR_IRQHandler
                0x00000000600024e8                PWM1_3_IRQHandler
                0x00000000600024e8                LPUART3_DriverIRQHandler
                0x00000000600024f4                SVC_Handler
                0x00000000600024f8                PendSV_Handler
                0x0000000060002500                DMA0_DMA16_IRQHandler
                0x0000000060002504                DMA1_DMA17_IRQHandler
                0x0000000060002508                DMA2_DMA18_IRQHandler
                0x000000006000250c                DMA3_DMA19_IRQHandler
                0x0000000060002510                DMA4_DMA20_IRQHandler
                0x0000000060002514                DMA5_DMA21_IRQHandler
                0x0000000060002518                DMA6_DMA22_IRQHandler
                0x000000006000251c                DMA7_DMA23_IRQHandler
                0x0000000060002520                DMA8_DMA24_IRQHandler
                0x0000000060002524                DMA9_DMA25_IRQHandler
                0x0000000060002528                DMA10_DMA26_IRQHandler
                0x000000006000252c                DMA11_DMA27_IRQHandler
                0x0000000060002530                DMA12_DMA28_IRQHandler
                0x0000000060002534                DMA13_DMA29_IRQHandler
                0x0000000060002538                DMA14_DMA30_IRQHandler
                0x000000006000253c                DMA15_DMA31_IRQHandler
                0x0000000060002540                DMA_ERROR_IRQHandler
                0x000000006000254c                LPUART3_IRQHandler
                0x0000000060002550                LPUART4_IRQHandler
                0x0000000060002554                LPUART5_IRQHandler
                0x0000000060002558                LPUART6_IRQHandler
                0x000000006000255c                LPUART7_IRQHandler
                0x0000000060002560                LPUART8_IRQHandler
                0x0000000060002564                LPI2C1_IRQHandler
                0x0000000060002568                LPI2C2_IRQHandler
                0x000000006000256c                LPI2C3_IRQHandler
                0x0000000060002570                LPI2C4_IRQHandler
                0x0000000060002574                LPSPI1_IRQHandler
                0x0000000060002578                LPSPI2_IRQHandler
                0x000000006000257c                LPSPI3_IRQHandler
                0x0000000060002580                LPSPI4_IRQHandler
                0x0000000060002584                CAN1_IRQHandler
                0x0000000060002588                CAN2_IRQHandler
                0x000000006000258c                SAI1_IRQHandler
                0x0000000060002590                SAI2_IRQHandler
                0x0000000060002594                SAI3_RX_IRQHandler
                0x0000000060002598                SAI3_TX_IRQHandler
                0x000000006000259c                SPDIF_IRQHandler
                0x00000000600025a0                FLEXIO1_IRQHandler
                0x00000000600025a4                FLEXSPI_IRQHandler
                0x00000000600025a8                USDHC1_IRQHandler
                0x00000000600025ac                USDHC2_IRQHandler
                0x00000000600025b0                ENET_IRQHandler
                0x00000000600025b4                ENET_1588_Timer_IRQHandler
 .text          0x0000000060002684      0x134 /home/asmir/Desktop/Dropbox/MCU/gcc/gcc-arm-none-eabi-7-2018-q2-update/bin/../lib/gcc/arm-none-eabi/7.3.1/../../../../arm-none-eabi/lib/thumb/v7e-m/fpv4-sp/hard/libc.a(lib_a-memcpy.o)
                0x0000000060002684                memcpy
 *(EXCLUDE_FILE(*fsl_flexspi.o *flexspi_nor_flash_ops.o) .text*)
 .text.startup.main
                0x00000000600027b8       0x9c /home/asmir/Desktop/Dropbox/MCU/nxp/RT1021/projects/alencon-systems/bootloader-v0.3/build/main.o
                0x00000000600027b8                main
 .text.initSYSTEM
                0x0000000060002854      0x27c /home/asmir/Desktop/Dropbox/MCU/nxp/RT1021/projects/alencon-systems/bootloader-v0.3/build/systemclk.o
                0x0000000060002854                initSYSTEM
 .text.initSYSTIM
                0x0000000060002ad0       0x28 /home/asmir/Desktop/Dropbox/MCU/nxp/RT1021/projects/alencon-systems/bootloader-v0.3/build/delay.o
                0x0000000060002ad0                initSYSTIM
 .text.getSYSTIM
                0x0000000060002af8        0xc /home/asmir/Desktop/Dropbox/MCU/nxp/RT1021/projects/alencon-systems/bootloader-v0.3/build/delay.o
                0x0000000060002af8                getSYSTIM
 .text.initDEBUG
                0x0000000060002b04       0xfc /home/asmir/Desktop/Dropbox/MCU/nxp/RT1021/projects/alencon-systems/bootloader-v0.3/build/debug.o
                0x0000000060002b04                initDEBUG
 .text.printDEBUG
                0x0000000060002c00      0x33c /home/asmir/Desktop/Dropbox/MCU/nxp/RT1021/projects/alencon-systems/bootloader-v0.3/build/debug.o
                0x0000000060002c00                printDEBUG
 .text.NMI_Handler
                0x0000000060002f3c       0x10 /home/asmir/Desktop/Dropbox/MCU/nxp/RT1021/projects/alencon-systems/bootloader-v0.3/build/debug.o
                0x0000000060002f3c                NMI_Handler
 .text.HardFault_Handler
                0x0000000060002f4c       0x1c /home/asmir/Desktop/Dropbox/MCU/nxp/RT1021/projects/alencon-systems/bootloader-v0.3/build/debug.o
                0x0000000060002f4c                HardFault_Handler
 .text.HardFault_HandlerC
                0x0000000060002f68      0x114 /home/asmir/Desktop/Dropbox/MCU/nxp/RT1021/projects/alencon-systems/bootloader-v0.3/build/debug.o
                0x0000000060002f68                HardFault_HandlerC
 .text.MemManage_Handler
                0x000000006000307c       0x10 /home/asmir/Desktop/Dropbox/MCU/nxp/RT1021/projects/alencon-systems/bootloader-v0.3/build/debug.o
                0x000000006000307c                MemManage_Handler
 .text.BusFault_Handler
                0x000000006000308c       0x10 /home/asmir/Desktop/Dropbox/MCU/nxp/RT1021/projects/alencon-systems/bootloader-v0.3/build/debug.o
                0x000000006000308c                BusFault_Handler
 .text.UsageFault_Handler
                0x000000006000309c       0x10 /home/asmir/Desktop/Dropbox/MCU/nxp/RT1021/projects/alencon-systems/bootloader-v0.3/build/debug.o
                0x000000006000309c                UsageFault_Handler
 .text.putDNumMISC
                0x00000000600030ac       0x6c /home/asmir/Desktop/Dropbox/MCU/nxp/RT1021/projects/alencon-systems/bootloader-v0.3/build/misc.o
                0x00000000600030ac                putDNumMISC
 .text.getStr4NumMISC
                0x0000000060003118      0x380 /home/asmir/Desktop/Dropbox/MCU/nxp/RT1021/projects/alencon-systems/bootloader-v0.3/build/misc.o
                0x0000000060003118                getStr4NumMISC
 .text.initLPUART1
                0x0000000060003498       0x54 /home/asmir/Desktop/Dropbox/MCU/nxp/RT1021/projects/alencon-systems/bootloader-v0.3/build/lpuart.o
                0x0000000060003498                initLPUART1
 .text.putcharLPUART1
                0x00000000600034ec       0x1c /home/asmir/Desktop/Dropbox/MCU/nxp/RT1021/projects/alencon-systems/bootloader-v0.3/build/lpuart.o
                0x00000000600034ec                putcharLPUART1
 .text.sprintLPUART1
                0x0000000060003508       0x4c /home/asmir/Desktop/Dropbox/MCU/nxp/RT1021/projects/alencon-systems/bootloader-v0.3/build/lpuart.o
                0x0000000060003508                sprintLPUART1
 .text.printLPUART1
                0x0000000060003554      0x1f4 /home/asmir/Desktop/Dropbox/MCU/nxp/RT1021/projects/alencon-systems/bootloader-v0.3/build/lpuart.o
                0x0000000060003554                printLPUART1
 .text.CLOCK_InitExternalClk
                0x0000000060003748       0x50 /home/asmir/Desktop/Dropbox/MCU/nxp/RT1021/projects/alencon-systems/bootloader-v0.3/build/fsl_clock.o
                0x0000000060003748                CLOCK_InitExternalClk
 .text.CLOCK_SwitchOsc
                0x0000000060003798       0x18 /home/asmir/Desktop/Dropbox/MCU/nxp/RT1021/projects/alencon-systems/bootloader-v0.3/build/fsl_clock.o
                0x0000000060003798                CLOCK_SwitchOsc
 .text.CLOCK_InitRcOsc24M
                0x00000000600037b0       0x14 /home/asmir/Desktop/Dropbox/MCU/nxp/RT1021/projects/alencon-systems/bootloader-v0.3/build/fsl_clock.o
                0x00000000600037b0                CLOCK_InitRcOsc24M
 .text.CLOCK_DeinitAudioPll
                0x00000000600037c4       0x10 /home/asmir/Desktop/Dropbox/MCU/nxp/RT1021/projects/alencon-systems/bootloader-v0.3/build/fsl_clock.o
                0x00000000600037c4                CLOCK_DeinitAudioPll
 .text.CLOCK_InitEnetPll
                0x00000000600037d4       0x6c /home/asmir/Desktop/Dropbox/MCU/nxp/RT1021/projects/alencon-systems/bootloader-v0.3/build/fsl_clock.o
                0x00000000600037d4                CLOCK_InitEnetPll
 .text.CLOCK_InitSysPfd
                0x0000000060003840       0x34 /home/asmir/Desktop/Dropbox/MCU/nxp/RT1021/projects/alencon-systems/bootloader-v0.3/build/fsl_clock.o
                0x0000000060003840                CLOCK_InitSysPfd
 .text.BOARD_InitPins
                0x0000000060003874       0x54 /home/asmir/Desktop/Dropbox/MCU/nxp/RT1021/projects/alencon-systems/bootloader-v0.3/build/pin_mux.o
                0x0000000060003874                BOARD_InitPins
 .text.BOARD_InitBootPins
                0x00000000600038c8        0x4 /home/asmir/Desktop/Dropbox/MCU/nxp/RT1021/projects/alencon-systems/bootloader-v0.3/build/pin_mux.o
                0x00000000600038c8                BOARD_InitBootPins
 .text.BOARD_BootClockRUN
                0x00000000600038cc      0x638 /home/asmir/Desktop/Dropbox/MCU/nxp/RT1021/projects/alencon-systems/bootloader-v0.3/build/clock_config.o
                0x00000000600038cc                BOARD_BootClockRUN
 .text.BOARD_InitBootClocks
                0x0000000060003f04        0x4 /home/asmir/Desktop/Dropbox/MCU/nxp/RT1021/projects/alencon-systems/bootloader-v0.3/build/clock_config.o
                0x0000000060003f04                BOARD_InitBootClocks
 .text.SystemInitHook
                0x0000000060003f08        0x4 /home/asmir/Desktop/Dropbox/MCU/nxp/RT1021/projects/alencon-systems/bootloader-v0.3/build/system_MIMXRT1021.o
                0x0000000060003f08                SystemInitHook
 .text.SystemInit
                0x0000000060003f0c       0x88 /home/asmir/Desktop/Dropbox/MCU/nxp/RT1021/projects/alencon-systems/bootloader-v0.3/build/system_MIMXRT1021.o
                0x0000000060003f0c                SystemInit
 .text.__assert_func
                0x0000000060003f94        0x4 /home/asmir/Desktop/Dropbox/MCU/nxp/RT1021/projects/alencon-systems/bootloader-v0.3/build/fsl_assert.o
                0x0000000060003f94                __assert_func
 .text._sbrk    0x0000000060003f98       0x40 /home/asmir/Desktop/Dropbox/MCU/nxp/RT1021/projects/alencon-systems/bootloader-v0.3/build/fsl_sbrk.o
                0x0000000060003f98                _sbrk
 .text.FLASH_Init
                0x0000000060003fd8        0xc /home/asmir/Desktop/Dropbox/MCU/nxp/RT1021/projects/alencon-systems/bootloader-v0.3/build/flash.o
                0x0000000060003fd8                FLASH_Init
 .text.FLASH_EraseSector
                0x0000000060003fe4       0x24 /home/asmir/Desktop/Dropbox/MCU/nxp/RT1021/projects/alencon-systems/bootloader-v0.3/build/flash.o
                0x0000000060003fe4                FLASH_EraseSector
 .text.FLASH_Program
                0x0000000060004008       0x28 /home/asmir/Desktop/Dropbox/MCU/nxp/RT1021/projects/alencon-systems/bootloader-v0.3/build/flash.o
                0x0000000060004008                FLASH_Program
 .text.SysTick_Handler
                0x0000000060004030       0x24 /home/asmir/Desktop/Dropbox/MCU/nxp/RT1021/projects/alencon-systems/bootloader-v0.3/build/timing.o
                0x0000000060004030                SysTick_Handler
 .text.Timing_Init
                0x0000000060004054       0x48 /home/asmir/Desktop/Dropbox/MCU/nxp/RT1021/projects/alencon-systems/bootloader-v0.3/build/timing.o
                0x0000000060004054                Timing_Init
 .text.TimeNow  0x000000006000409c        0xc /home/asmir/Desktop/Dropbox/MCU/nxp/RT1021/projects/alencon-systems/bootloader-v0.3/build/timing.o
                0x000000006000409c                TimeNow
 .text.TimeSince
                0x00000000600040a8       0x24 /home/asmir/Desktop/Dropbox/MCU/nxp/RT1021/projects/alencon-systems/bootloader-v0.3/build/timing.o
                0x00000000600040a8                TimeSince
 .text.DelayMs  0x00000000600040cc       0x34 /home/asmir/Desktop/Dropbox/MCU/nxp/RT1021/projects/alencon-systems/bootloader-v0.3/build/timing.o
                0x00000000600040cc                DelayMs
 .text.Timing_Roll
                0x0000000060004100       0x18 /home/asmir/Desktop/Dropbox/MCU/nxp/RT1021/projects/alencon-systems/bootloader-v0.3/build/timing.o
                0x0000000060004100                Timing_Roll
 .text.TimeNowUngated
                0x0000000060004118        0xc /home/asmir/Desktop/Dropbox/MCU/nxp/RT1021/projects/alencon-systems/bootloader-v0.3/build/timing.o
                0x0000000060004118                TimeNowUngated
 .text.DCACHE_InvalidateByRange
                0x0000000060004124       0x2c /home/asmir/Desktop/Dropbox/MCU/nxp/RT1021/projects/alencon-systems/bootloader-v0.3/build/fsl_cache.o
                0x0000000060004124                DCACHE_InvalidateByRange
 .text.GetNextLocation.part.1
                0x0000000060004150       0x30 /home/asmir/Desktop/Dropbox/MCU/nxp/RT1021/projects/alencon-systems/bootloader-v0.3/build/hal_eeprom.o
 .text.hal_EEPROM_Read.part.2
                0x0000000060004180       0x54 /home/asmir/Desktop/Dropbox/MCU/nxp/RT1021/projects/alencon-systems/bootloader-v0.3/build/hal_eeprom.o
 .text.hal_EEPROM_Read
                0x00000000600041d4       0x2c /home/asmir/Desktop/Dropbox/MCU/nxp/RT1021/projects/alencon-systems/bootloader-v0.3/build/hal_eeprom.o
                0x00000000600041d4                hal_EEPROM_Read
 .text.hal_EEPROM_ErasePage
                0x0000000060004200       0x28 /home/asmir/Desktop/Dropbox/MCU/nxp/RT1021/projects/alencon-systems/bootloader-v0.3/build/hal_eeprom.o
                0x0000000060004200                hal_EEPROM_ErasePage
 .text.hal_EEPROM_Init
                0x0000000060004228       0x74 /home/asmir/Desktop/Dropbox/MCU/nxp/RT1021/projects/alencon-systems/bootloader-v0.3/build/hal_eeprom.o
                0x0000000060004228                hal_EEPROM_Init
 .text.EEPROM_Init
                0x000000006000429c       0x18 /home/asmir/Desktop/Dropbox/MCU/nxp/RT1021/projects/alencon-systems/bootloader-v0.3/build/eeprom.o
                0x000000006000429c                EEPROM_Init
 .text.EEPROM_Read
                0x00000000600042b4        0x4 /home/asmir/Desktop/Dropbox/MCU/nxp/RT1021/projects/alencon-systems/bootloader-v0.3/build/eeprom.o
                0x00000000600042b4                EEPROM_Read
 .text.hal_UART_EnableInterrupts
                0x00000000600042b8       0x74 /home/asmir/Desktop/Dropbox/MCU/nxp/RT1021/projects/alencon-systems/bootloader-v0.3/build/hal_uart.o
                0x00000000600042b8                hal_UART_EnableInterrupts
 .text.hal_UART_Init
                0x000000006000432c      0x10c /home/asmir/Desktop/Dropbox/MCU/nxp/RT1021/projects/alencon-systems/bootloader-v0.3/build/hal_uart.o
                0x000000006000432c                hal_UART_Init
 .text.hal_UART_Disable
                0x0000000060004438       0x20 /home/asmir/Desktop/Dropbox/MCU/nxp/RT1021/projects/alencon-systems/bootloader-v0.3/build/hal_uart.o
                0x0000000060004438                hal_UART_Disable
 .text.hal_UART_EnableTxInterrupt
                0x0000000060004458       0x20 /home/asmir/Desktop/Dropbox/MCU/nxp/RT1021/projects/alencon-systems/bootloader-v0.3/build/hal_uart.o
                0x0000000060004458                hal_UART_EnableTxInterrupt
 .text.hal_UART_DisableTxInterrupt
                0x0000000060004478       0x20 /home/asmir/Desktop/Dropbox/MCU/nxp/RT1021/projects/alencon-systems/bootloader-v0.3/build/hal_uart.o
                0x0000000060004478                hal_UART_DisableTxInterrupt
 .text.hal_UART_TxByte
                0x0000000060004498       0x18 /home/asmir/Desktop/Dropbox/MCU/nxp/RT1021/projects/alencon-systems/bootloader-v0.3/build/hal_uart.o
                0x0000000060004498                hal_UART_TxByte
 .text.hal_UART_RxByte
                0x00000000600044b0       0x20 /home/asmir/Desktop/Dropbox/MCU/nxp/RT1021/projects/alencon-systems/bootloader-v0.3/build/hal_uart.o
                0x00000000600044b0                hal_UART_RxByte
 .text.hal_UART_DataAvailable
                0x00000000600044d0       0x20 /home/asmir/Desktop/Dropbox/MCU/nxp/RT1021/projects/alencon-systems/bootloader-v0.3/build/hal_uart.o
                0x00000000600044d0                hal_UART_DataAvailable
 .text.hal_UART_SpaceAvailable
                0x00000000600044f0       0x20 /home/asmir/Desktop/Dropbox/MCU/nxp/RT1021/projects/alencon-systems/bootloader-v0.3/build/hal_uart.o
                0x00000000600044f0                hal_UART_SpaceAvailable
 .text.hal_UART_TxInterruptEnabled
                0x0000000060004510       0x20 /home/asmir/Desktop/Dropbox/MCU/nxp/RT1021/projects/alencon-systems/bootloader-v0.3/build/hal_uart.o
                0x0000000060004510                hal_UART_TxInterruptEnabled
 .text.LPUART1_IRQHandler
                0x0000000060004530       0x14 /home/asmir/Desktop/Dropbox/MCU/nxp/RT1021/projects/alencon-systems/bootloader-v0.3/build/hal_uart.o
                0x0000000060004530                LPUART1_IRQHandler
 .text.LPUART2_IRQHandler
                0x0000000060004544       0x14 /home/asmir/Desktop/Dropbox/MCU/nxp/RT1021/projects/alencon-systems/bootloader-v0.3/build/hal_uart.o
                0x0000000060004544                LPUART2_IRQHandler
 .text.UART_Tick
                0x0000000060004558      0x164 /home/asmir/Desktop/Dropbox/MCU/nxp/RT1021/projects/alencon-systems/bootloader-v0.3/build/uart.o
                0x0000000060004558                UART_Tick
 .text.UART_Tx_Start
                0x00000000600046bc       0x48 /home/asmir/Desktop/Dropbox/MCU/nxp/RT1021/projects/alencon-systems/bootloader-v0.3/build/uart.o
 .text.UART_Init
                0x0000000060004704       0xf8 /home/asmir/Desktop/Dropbox/MCU/nxp/RT1021/projects/alencon-systems/bootloader-v0.3/build/uart.o
                0x0000000060004704                UART_Init
 .text.UART_WriteByte
                0x00000000600047fc       0x28 /home/asmir/Desktop/Dropbox/MCU/nxp/RT1021/projects/alencon-systems/bootloader-v0.3/build/uart.o
                0x00000000600047fc                UART_WriteByte
 .text.UART_printf
                0x0000000060004824       0x38 /home/asmir/Desktop/Dropbox/MCU/nxp/RT1021/projects/alencon-systems/bootloader-v0.3/build/uart.o
                0x0000000060004824                UART_printf
 .text.UART_vprintf
                0x000000006000485c       0x28 /home/asmir/Desktop/Dropbox/MCU/nxp/RT1021/projects/alencon-systems/bootloader-v0.3/build/uart.o
                0x000000006000485c                UART_vprintf
 .text.UART_RegisterReceiver
                0x0000000060004884       0x3c /home/asmir/Desktop/Dropbox/MCU/nxp/RT1021/projects/alencon-systems/bootloader-v0.3/build/uart.o
                0x0000000060004884                UART_RegisterReceiver
 .text.UART_Tx_Handler
                0x00000000600048c0       0x40 /home/asmir/Desktop/Dropbox/MCU/nxp/RT1021/projects/alencon-systems/bootloader-v0.3/build/uart.o
                0x00000000600048c0                UART_Tx_Handler
 .text.UART_Rx_Handler
                0x0000000060004900       0x48 /home/asmir/Desktop/Dropbox/MCU/nxp/RT1021/projects/alencon-systems/bootloader-v0.3/build/uart.o
                0x0000000060004900                UART_Rx_Handler
 .text.Buffer_Enqueue
                0x0000000060004948       0x64 /home/asmir/Desktop/Dropbox/MCU/nxp/RT1021/projects/alencon-systems/bootloader-v0.3/build/buffer.o
                0x0000000060004948                Buffer_Enqueue
 .text.Buffer_Dequeue
                0x00000000600049ac       0x2c /home/asmir/Desktop/Dropbox/MCU/nxp/RT1021/projects/alencon-systems/bootloader-v0.3/build/buffer.o
                0x00000000600049ac                Buffer_Dequeue
 .text.Buffer_GetSize
                0x00000000600049d8        0x4 /home/asmir/Desktop/Dropbox/MCU/nxp/RT1021/projects/alencon-systems/bootloader-v0.3/build/buffer.o
                0x00000000600049d8                Buffer_GetSize
 .text.Buffer_Init
                0x00000000600049dc       0x1c /home/asmir/Desktop/Dropbox/MCU/nxp/RT1021/projects/alencon-systems/bootloader-v0.3/build/buffer.o
                0x00000000600049dc                Buffer_Init
 .text.Buffer_uint16
                0x00000000600049f8       0x48 /home/asmir/Desktop/Dropbox/MCU/nxp/RT1021/projects/alencon-systems/bootloader-v0.3/build/buffer_printf.o
                0x00000000600049f8                Buffer_uint16
 .text.Buffer_int16
                0x0000000060004a40       0x2c /home/asmir/Desktop/Dropbox/MCU/nxp/RT1021/projects/alencon-systems/bootloader-v0.3/build/buffer_printf.o
                0x0000000060004a40                Buffer_int16
 .text.Buffer_uint32
                0x0000000060004a6c       0x48 /home/asmir/Desktop/Dropbox/MCU/nxp/RT1021/projects/alencon-systems/bootloader-v0.3/build/buffer_printf.o
                0x0000000060004a6c                Buffer_uint32
 .text.Buffer_int32
                0x0000000060004ab4       0x28 /home/asmir/Desktop/Dropbox/MCU/nxp/RT1021/projects/alencon-systems/bootloader-v0.3/build/buffer_printf.o
                0x0000000060004ab4                Buffer_int32
 .text.Buffer_HexN
                0x0000000060004adc       0x74 /home/asmir/Desktop/Dropbox/MCU/nxp/RT1021/projects/alencon-systems/bootloader-v0.3/build/buffer_printf.o
                0x0000000060004adc                Buffer_HexN
 .text.Buffer_Float
                0x0000000060004b50       0x7c /home/asmir/Desktop/Dropbox/MCU/nxp/RT1021/projects/alencon-systems/bootloader-v0.3/build/buffer_printf.o
                0x0000000060004b50                Buffer_Float
 .text.Buffer_vprintf
                0x0000000060004bcc      0x184 /home/asmir/Desktop/Dropbox/MCU/nxp/RT1021/projects/alencon-systems/bootloader-v0.3/build/buffer_printf.o
                0x0000000060004bcc                Buffer_vprintf
 .text.SortTask
                0x0000000060004d50       0x10 /home/asmir/Desktop/Dropbox/MCU/nxp/RT1021/projects/alencon-systems/bootloader-v0.3/build/task.o
 .text.IdentifyTask
                0x0000000060004d60        0xc /home/asmir/Desktop/Dropbox/MCU/nxp/RT1021/projects/alencon-systems/bootloader-v0.3/build/task.o
 .text.RollTimer
                0x0000000060004d6c       0x3c /home/asmir/Desktop/Dropbox/MCU/nxp/RT1021/projects/alencon-systems/bootloader-v0.3/build/task.o
 .text.Task_Schedule
                0x0000000060004da8       0x38 /home/asmir/Desktop/Dropbox/MCU/nxp/RT1021/projects/alencon-systems/bootloader-v0.3/build/task.o
                0x0000000060004da8                Task_Schedule
 .text.Task_Init
                0x0000000060004de0       0x70 /home/asmir/Desktop/Dropbox/MCU/nxp/RT1021/projects/alencon-systems/bootloader-v0.3/build/task.o
                0x0000000060004de0                Task_Init
 .text.FindLinkByItem
                0x0000000060004e50       0x54 /home/asmir/Desktop/Dropbox/MCU/nxp/RT1021/projects/alencon-systems/bootloader-v0.3/build/list.o
 .text.GetUnusedLink
                0x0000000060004ea4       0xbc /home/asmir/Desktop/Dropbox/MCU/nxp/RT1021/projects/alencon-systems/bootloader-v0.3/build/list.o
 .text.List_Init
                0x0000000060004f60       0x48 /home/asmir/Desktop/Dropbox/MCU/nxp/RT1021/projects/alencon-systems/bootloader-v0.3/build/list.o
                0x0000000060004f60                List_Init
 .text.List_SetSortFunction
                0x0000000060004fa8        0x4 /home/asmir/Desktop/Dropbox/MCU/nxp/RT1021/projects/alencon-systems/bootloader-v0.3/build/list.o
                0x0000000060004fa8                List_SetSortFunction
 .text.List_SetIdentifyFunction
                0x0000000060004fac        0x4 /home/asmir/Desktop/Dropbox/MCU/nxp/RT1021/projects/alencon-systems/bootloader-v0.3/build/list.o
                0x0000000060004fac                List_SetIdentifyFunction
 .text.List_AddIndirect
                0x0000000060004fb0       0x38 /home/asmir/Desktop/Dropbox/MCU/nxp/RT1021/projects/alencon-systems/bootloader-v0.3/build/list.o
                0x0000000060004fb0                List_AddIndirect
 .text.List_GetFirst
                0x0000000060004fe8       0x14 /home/asmir/Desktop/Dropbox/MCU/nxp/RT1021/projects/alencon-systems/bootloader-v0.3/build/list.o
                0x0000000060004fe8                List_GetFirst
 .text.List_GetNext
                0x0000000060004ffc       0x14 /home/asmir/Desktop/Dropbox/MCU/nxp/RT1021/projects/alencon-systems/bootloader-v0.3/build/list.o
                0x0000000060004ffc                List_GetNext
 .text.CRC16_Update
                0x0000000060005010       0x3c /home/asmir/Desktop/Dropbox/MCU/nxp/RT1021/projects/alencon-systems/bootloader-v0.3/build/crc16.o
                0x0000000060005010                CRC16_Update
 .text.Subsystem_SystemInit
                0x000000006000504c       0x74 /home/asmir/Desktop/Dropbox/MCU/nxp/RT1021/projects/alencon-systems/bootloader-v0.3/build/subsys.o
 .text.Subsystem_Init
                0x00000000600050c0       0x40 /home/asmir/Desktop/Dropbox/MCU/nxp/RT1021/projects/alencon-systems/bootloader-v0.3/build/subsys.o
                0x00000000600050c0                Subsystem_Init
 .text.ProcessMsg
                0x0000000060005100      0x144 /home/asmir/Desktop/Dropbox/MCU/nxp/RT1021/projects/alencon-systems/bootloader-v0.3/build/subsys.o
                0x0000000060005100                ProcessMsg
 .text.ReceiveChar
                0x0000000060005244       0x9c /home/asmir/Desktop/Dropbox/MCU/nxp/RT1021/projects/alencon-systems/bootloader-v0.3/build/subsys.o
                0x0000000060005244                ReceiveChar
 .text.LogStr   0x00000000600052e0       0x20 /home/asmir/Desktop/Dropbox/MCU/nxp/RT1021/projects/alencon-systems/bootloader-v0.3/build/subsys.o
                0x00000000600052e0                LogStr
 .text.Log_Header
                0x0000000060005300       0x34 /home/asmir/Desktop/Dropbox/MCU/nxp/RT1021/projects/alencon-systems/bootloader-v0.3/build/subsys.o
                0x0000000060005300                Log_Header
 .text.LogMsg   0x0000000060005334       0x50 /home/asmir/Desktop/Dropbox/MCU/nxp/RT1021/projects/alencon-systems/bootloader-v0.3/build/subsys.o
                0x0000000060005334                LogMsg
 .text.SystemCallback
                0x0000000060005384      0x1f0 /home/asmir/Desktop/Dropbox/MCU/nxp/RT1021/projects/alencon-systems/bootloader-v0.3/build/subsys.o
 .text.JumpToUserApplication
                0x0000000060005574       0x20 /home/asmir/Desktop/Dropbox/MCU/nxp/RT1021/projects/alencon-systems/bootloader-v0.3/build/bootloader.o
                0x0000000060005574                JumpToUserApplication
 .text.Bootloader_DontLoadApp
                0x0000000060005594        0xc /home/asmir/Desktop/Dropbox/MCU/nxp/RT1021/projects/alencon-systems/bootloader-v0.3/build/bootloader.o
                0x0000000060005594                Bootloader_DontLoadApp
 .text.JumpToAppStateMachine
                0x00000000600055a0       0xa4 /home/asmir/Desktop/Dropbox/MCU/nxp/RT1021/projects/alencon-systems/bootloader-v0.3/build/bootloader.o
                0x00000000600055a0                JumpToAppStateMachine
 .text.Bootloader_Init
                0x0000000060005644       0x88 /home/asmir/Desktop/Dropbox/MCU/nxp/RT1021/projects/alencon-systems/bootloader-v0.3/build/bootloader.o
                0x0000000060005644                Bootloader_Init
 .text.hardware_init
                0x00000000600056cc        0x4 /home/asmir/Desktop/Dropbox/MCU/nxp/RT1021/projects/alencon-systems/bootloader-v0.3/build/hardware.o
                0x00000000600056cc                hardware_init
 .text.Hardware_GetGUID
                0x00000000600056d0       0x10 /home/asmir/Desktop/Dropbox/MCU/nxp/RT1021/projects/alencon-systems/bootloader-v0.3/build/hardware.o
                0x00000000600056d0                Hardware_GetGUID
 .text.Hardware_GetMCU
                0x00000000600056e0       0x28 /home/asmir/Desktop/Dropbox/MCU/nxp/RT1021/projects/alencon-systems/bootloader-v0.3/build/hardware.o
                0x00000000600056e0                Hardware_GetMCU
 .text.Hardware_GetID
                0x0000000060005708        0x4 /home/asmir/Desktop/Dropbox/MCU/nxp/RT1021/projects/alencon-systems/bootloader-v0.3/build/hardware.o
                0x0000000060005708                Hardware_GetID
 .text.Hardware_HasDiagnosticUART
                0x000000006000570c        0x4 /home/asmir/Desktop/Dropbox/MCU/nxp/RT1021/projects/alencon-systems/bootloader-v0.3/build/hardware.o
                0x000000006000570c                Hardware_HasDiagnosticUART
 .text.Hardware_HasBidirectionalDCDC
                0x0000000060005710        0x4 /home/asmir/Desktop/Dropbox/MCU/nxp/RT1021/projects/alencon-systems/bootloader-v0.3/build/hardware.o
                0x0000000060005710                Hardware_HasBidirectionalDCDC
 .text.Hardware_HasDabTopology
                0x0000000060005714        0x4 /home/asmir/Desktop/Dropbox/MCU/nxp/RT1021/projects/alencon-systems/bootloader-v0.3/build/hardware.o
                0x0000000060005714                Hardware_HasDabTopology
 .text.RS485_Rx_Push
                0x0000000060005718       0x40 /home/asmir/Desktop/Dropbox/MCU/nxp/RT1021/projects/alencon-systems/bootloader-v0.3/build/RS485Serial.o
                0x0000000060005718                RS485_Rx_Push
 .text.RS485_Serial_RegisterTxCompleteCallback
                0x0000000060005758        0xc /home/asmir/Desktop/Dropbox/MCU/nxp/RT1021/projects/alencon-systems/bootloader-v0.3/build/RS485Serial.o
                0x0000000060005758                RS485_Serial_RegisterTxCompleteCallback
 .text.RS485_Serial_init
                0x0000000060005764       0xa0 /home/asmir/Desktop/Dropbox/MCU/nxp/RT1021/projects/alencon-systems/bootloader-v0.3/build/RS485Serial.o
                0x0000000060005764                RS485_Serial_init
 .text.RS485_Serial_Write
                0x0000000060005804       0x54 /home/asmir/Desktop/Dropbox/MCU/nxp/RT1021/projects/alencon-systems/bootloader-v0.3/build/RS485Serial.o
                0x0000000060005804                RS485_Serial_Write
 .text.RS485_Serial_Read
                0x0000000060005858       0x80 /home/asmir/Desktop/Dropbox/MCU/nxp/RT1021/projects/alencon-systems/bootloader-v0.3/build/RS485Serial.o
                0x0000000060005858                RS485_Serial_Read
 .text.RS485_Serial_Close
                0x00000000600058d8        0x4 /home/asmir/Desktop/Dropbox/MCU/nxp/RT1021/projects/alencon-systems/bootloader-v0.3/build/RS485Serial.o
                0x00000000600058d8                RS485_Serial_Close
 .text.usMBCRC16
                0x00000000600058dc       0x40 /home/asmir/Desktop/Dropbox/MCU/nxp/RT1021/projects/alencon-systems/bootloader-v0.3/build/mbcrc.o
                0x00000000600058dc                usMBCRC16
 .text.eMBFuncReadCoils
                0x000000006000591c       0x6c /home/asmir/Desktop/Dropbox/MCU/nxp/RT1021/projects/alencon-systems/bootloader-v0.3/build/mbfunccoils.o
                0x000000006000591c                eMBFuncReadCoils
 .text.eMBFuncWriteCoil
                0x0000000060005988       0x48 /home/asmir/Desktop/Dropbox/MCU/nxp/RT1021/projects/alencon-systems/bootloader-v0.3/build/mbfunccoils.o
                0x0000000060005988                eMBFuncWriteCoil
 .text.eMBFuncWriteMultipleCoils
                0x00000000600059d0       0x54 /home/asmir/Desktop/Dropbox/MCU/nxp/RT1021/projects/alencon-systems/bootloader-v0.3/build/mbfunccoils.o
                0x00000000600059d0                eMBFuncWriteMultipleCoils
 .text.eMBFuncReadDiscreteInputs
                0x0000000060005a24       0x68 /home/asmir/Desktop/Dropbox/MCU/nxp/RT1021/projects/alencon-systems/bootloader-v0.3/build/mbfuncdisc.o
                0x0000000060005a24                eMBFuncReadDiscreteInputs
 .text.eMBFuncWriteHoldingRegister
                0x0000000060005a8c       0x2c /home/asmir/Desktop/Dropbox/MCU/nxp/RT1021/projects/alencon-systems/bootloader-v0.3/build/mbfuncholding.o
                0x0000000060005a8c                eMBFuncWriteHoldingRegister
 .text.eMBFuncWriteMultipleHoldingRegister
                0x0000000060005ab8       0x48 /home/asmir/Desktop/Dropbox/MCU/nxp/RT1021/projects/alencon-systems/bootloader-v0.3/build/mbfuncholding.o
                0x0000000060005ab8                eMBFuncWriteMultipleHoldingRegister
 .text.eMBFuncReadHoldingRegister
                0x0000000060005b00       0x58 /home/asmir/Desktop/Dropbox/MCU/nxp/RT1021/projects/alencon-systems/bootloader-v0.3/build/mbfuncholding.o
                0x0000000060005b00                eMBFuncReadHoldingRegister
 .text.eMBFuncReadWriteMultipleHoldingRegister
                0x0000000060005b58       0x98 /home/asmir/Desktop/Dropbox/MCU/nxp/RT1021/projects/alencon-systems/bootloader-v0.3/build/mbfuncholding.o
                0x0000000060005b58                eMBFuncReadWriteMultipleHoldingRegister
 .text.eMBFuncReadInputRegister
                0x0000000060005bf0       0x58 /home/asmir/Desktop/Dropbox/MCU/nxp/RT1021/projects/alencon-systems/bootloader-v0.3/build/mbfuncinput.o
                0x0000000060005bf0                eMBFuncReadInputRegister
 .text.eMBSetSlaveID
                0x0000000060005c48       0x44 /home/asmir/Desktop/Dropbox/MCU/nxp/RT1021/projects/alencon-systems/bootloader-v0.3/build/mbfuncother.o
                0x0000000060005c48                eMBSetSlaveID
 .text.eMBFuncReportSlaveID
                0x0000000060005c8c       0x24 /home/asmir/Desktop/Dropbox/MCU/nxp/RT1021/projects/alencon-systems/bootloader-v0.3/build/mbfuncother.o
                0x0000000060005c8c                eMBFuncReportSlaveID
 .text.prveMBError2Exception
                0x0000000060005cb0       0x14 /home/asmir/Desktop/Dropbox/MCU/nxp/RT1021/projects/alencon-systems/bootloader-v0.3/build/mbutils.o
                0x0000000060005cb0                prveMBError2Exception
 .text.eMBInit  0x0000000060005cc4       0xbc /home/asmir/Desktop/Dropbox/MCU/nxp/RT1021/projects/alencon-systems/bootloader-v0.3/build/mb.o
                0x0000000060005cc4                eMBInit
 .text.eMBClose
                0x0000000060005d80       0x24 /home/asmir/Desktop/Dropbox/MCU/nxp/RT1021/projects/alencon-systems/bootloader-v0.3/build/mb.o
                0x0000000060005d80                eMBClose
 .text.eMBEnable
                0x0000000060005da4       0x24 /home/asmir/Desktop/Dropbox/MCU/nxp/RT1021/projects/alencon-systems/bootloader-v0.3/build/mb.o
                0x0000000060005da4                eMBEnable
 .text.eMBDisable
                0x0000000060005dc8       0x28 /home/asmir/Desktop/Dropbox/MCU/nxp/RT1021/projects/alencon-systems/bootloader-v0.3/build/mb.o
                0x0000000060005dc8                eMBDisable
 .text.eMBPoll  0x0000000060005df0      0x12c /home/asmir/Desktop/Dropbox/MCU/nxp/RT1021/projects/alencon-systems/bootloader-v0.3/build/mb.o
                0x0000000060005df0                eMBPoll
 .text.Modbus_Routine
                0x0000000060005f1c       0xac /home/asmir/Desktop/Dropbox/MCU/nxp/RT1021/projects/alencon-systems/bootloader-v0.3/build/AlenconModbus.o
                0x0000000060005f1c                Modbus_Routine
 .text.AlenconModbus_Stop
                0x0000000060005fc8       0x18 /home/asmir/Desktop/Dropbox/MCU/nxp/RT1021/projects/alencon-systems/bootloader-v0.3/build/AlenconModbus.o
                0x0000000060005fc8                AlenconModbus_Stop
 .text.Modbus_SetBaudRate
                0x0000000060005fe0       0x28 /home/asmir/Desktop/Dropbox/MCU/nxp/RT1021/projects/alencon-systems/bootloader-v0.3/build/AlenconModbus.o
                0x0000000060005fe0                Modbus_SetBaudRate
 .text.Modbus_ChangeSlaveAddress
                0x0000000060006008       0x34 /home/asmir/Desktop/Dropbox/MCU/nxp/RT1021/projects/alencon-systems/bootloader-v0.3/build/AlenconModbus.o
                0x0000000060006008                Modbus_ChangeSlaveAddress
 .text.Modbus_GetSlaveAddress
                0x000000006000603c        0xc /home/asmir/Desktop/Dropbox/MCU/nxp/RT1021/projects/alencon-systems/bootloader-v0.3/build/AlenconModbus.o
                0x000000006000603c                Modbus_GetSlaveAddress
 .text.Modbus_AddInputSource
                0x0000000060006048       0x3c /home/asmir/Desktop/Dropbox/MCU/nxp/RT1021/projects/alencon-systems/bootloader-v0.3/build/AlenconModbus.o
                0x0000000060006048                Modbus_AddInputSource
 .text.Modbus_AddHoldingRegister
                0x0000000060006084       0x48 /home/asmir/Desktop/Dropbox/MCU/nxp/RT1021/projects/alencon-systems/bootloader-v0.3/build/AlenconModbus.o
                0x0000000060006084                Modbus_AddHoldingRegister
 .text.eMBRegInputCB
                0x00000000600060cc       0x68 /home/asmir/Desktop/Dropbox/MCU/nxp/RT1021/projects/alencon-systems/bootloader-v0.3/build/AlenconModbus.o
                0x00000000600060cc                eMBRegInputCB
 .text.eMBRegHoldingCB
                0x0000000060006134      0x114 /home/asmir/Desktop/Dropbox/MCU/nxp/RT1021/projects/alencon-systems/bootloader-v0.3/build/AlenconModbus.o
                0x0000000060006134                eMBRegHoldingCB
 .text.eMBRegCoilsCB
                0x0000000060006248        0x4 /home/asmir/Desktop/Dropbox/MCU/nxp/RT1021/projects/alencon-systems/bootloader-v0.3/build/AlenconModbus.o
                0x0000000060006248                eMBRegCoilsCB
 .text.eMBRegDiscreteCB
                0x000000006000624c        0x4 /home/asmir/Desktop/Dropbox/MCU/nxp/RT1021/projects/alencon-systems/bootloader-v0.3/build/AlenconModbus.o
                0x000000006000624c                eMBRegDiscreteCB
 .text.unlikely.__NVIC_SystemReset
                0x0000000060006250       0x24 /home/asmir/Desktop/Dropbox/MCU/nxp/RT1021/projects/alencon-systems/bootloader-v0.3/build/AlenconModbusBootloader.o
 .text.UpdateFirmwareVersion
                0x0000000060006274       0x14 /home/asmir/Desktop/Dropbox/MCU/nxp/RT1021/projects/alencon-systems/bootloader-v0.3/build/AlenconModbusBootloader.o
 .text.ResetMCUCallback
                0x0000000060006288       0x14 /home/asmir/Desktop/Dropbox/MCU/nxp/RT1021/projects/alencon-systems/bootloader-v0.3/build/AlenconModbusBootloader.o
 .text.BlockDataCallback
                0x000000006000629c       0x48 /home/asmir/Desktop/Dropbox/MCU/nxp/RT1021/projects/alencon-systems/bootloader-v0.3/build/AlenconModbusBootloader.o
 .text.ResetUpdateState
                0x00000000600062e4       0x28 /home/asmir/Desktop/Dropbox/MCU/nxp/RT1021/projects/alencon-systems/bootloader-v0.3/build/AlenconModbusBootloader.o
 .text.UpdateIndecies
                0x000000006000630c       0x10 /home/asmir/Desktop/Dropbox/MCU/nxp/RT1021/projects/alencon-systems/bootloader-v0.3/build/AlenconModbusBootloader.o
 .text.ReadProvisioning
                0x000000006000631c       0x5c /home/asmir/Desktop/Dropbox/MCU/nxp/RT1021/projects/alencon-systems/bootloader-v0.3/build/AlenconModbusBootloader.o
 .text.UpdateBlockCRC
                0x0000000060006378       0x4c /home/asmir/Desktop/Dropbox/MCU/nxp/RT1021/projects/alencon-systems/bootloader-v0.3/build/AlenconModbusBootloader.o
 .text.WriteProvisioning
                0x00000000600063c4       0x68 /home/asmir/Desktop/Dropbox/MCU/nxp/RT1021/projects/alencon-systems/bootloader-v0.3/build/AlenconModbusBootloader.o
 .text.WriteFirmwareBlock
                0x000000006000642c      0x140 /home/asmir/Desktop/Dropbox/MCU/nxp/RT1021/projects/alencon-systems/bootloader-v0.3/build/AlenconModbusBootloader.o
 .text.DiagnosticCallback
                0x000000006000656c       0xbc /home/asmir/Desktop/Dropbox/MCU/nxp/RT1021/projects/alencon-systems/bootloader-v0.3/build/AlenconModbusBootloader.o
 .text.ErrorHandler.isra.3
                0x0000000060006628       0x28 /home/asmir/Desktop/Dropbox/MCU/nxp/RT1021/projects/alencon-systems/bootloader-v0.3/build/AlenconModbusBootloader.o
 .text.EndOfFirmware
                0x0000000060006650       0x80 /home/asmir/Desktop/Dropbox/MCU/nxp/RT1021/projects/alencon-systems/bootloader-v0.3/build/AlenconModbusBootloader.o
 .text.StartFirmwareUpdate
                0x00000000600066d0       0x90 /home/asmir/Desktop/Dropbox/MCU/nxp/RT1021/projects/alencon-systems/bootloader-v0.3/build/AlenconModbusBootloader.o
 .text.AlenconModbus_Init
                0x0000000060006760      0x250 /home/asmir/Desktop/Dropbox/MCU/nxp/RT1021/projects/alencon-systems/bootloader-v0.3/build/AlenconModbusBootloader.o
                0x0000000060006760                AlenconModbus_Init
 .text.AlenconModbus_InitBootloader
                0x00000000600069b0       0x6c /home/asmir/Desktop/Dropbox/MCU/nxp/RT1021/projects/alencon-systems/bootloader-v0.3/build/AlenconModbusBootloader.o
                0x00000000600069b0                AlenconModbus_InitBootloader
 .text.ModbusBootloader_Task
                0x0000000060006a1c       0xac /home/asmir/Desktop/Dropbox/MCU/nxp/RT1021/projects/alencon-systems/bootloader-v0.3/build/AlenconModbusBootloader.o
                0x0000000060006a1c                ModbusBootloader_Task
 .text.xMBPortEventInit
                0x0000000060006ac8       0x10 /home/asmir/Desktop/Dropbox/MCU/nxp/RT1021/projects/alencon-systems/bootloader-v0.3/build/mbportevent.o
                0x0000000060006ac8                xMBPortEventInit
 .text.xMBPortEventPost
                0x0000000060006ad8       0x18 /home/asmir/Desktop/Dropbox/MCU/nxp/RT1021/projects/alencon-systems/bootloader-v0.3/build/mbportevent.o
                0x0000000060006ad8                xMBPortEventPost
 .text.xMBPortEventGet
                0x0000000060006af0       0x24 /home/asmir/Desktop/Dropbox/MCU/nxp/RT1021/projects/alencon-systems/bootloader-v0.3/build/mbportevent.o
                0x0000000060006af0                xMBPortEventGet
 .text.vMBPortEnterCritical
                0x0000000060006b14       0x2c /home/asmir/Desktop/Dropbox/MCU/nxp/RT1021/projects/alencon-systems/bootloader-v0.3/build/mbportother.o
                0x0000000060006b14                vMBPortEnterCritical
 .text.vMBPortExitCritical
                0x0000000060006b40       0x14 /home/asmir/Desktop/Dropbox/MCU/nxp/RT1021/projects/alencon-systems/bootloader-v0.3/build/mbportother.o
                0x0000000060006b40                vMBPortExitCritical
 .text.vMBPortClose
                0x0000000060006b54       0x10 /home/asmir/Desktop/Dropbox/MCU/nxp/RT1021/projects/alencon-systems/bootloader-v0.3/build/mbportother.o
                0x0000000060006b54                vMBPortClose
 .text.xMBPortTimersInit
                0x0000000060006b64       0x30 /home/asmir/Desktop/Dropbox/MCU/nxp/RT1021/projects/alencon-systems/bootloader-v0.3/build/mbporttimer.o
                0x0000000060006b64                xMBPortTimersInit
 .text.vMBPortTimersEnable
                0x0000000060006b94       0x24 /home/asmir/Desktop/Dropbox/MCU/nxp/RT1021/projects/alencon-systems/bootloader-v0.3/build/mbporttimer.o
                0x0000000060006b94                vMBPortTimersEnable
 .text.vMBPortTimersDisable
                0x0000000060006bb8       0x14 /home/asmir/Desktop/Dropbox/MCU/nxp/RT1021/projects/alencon-systems/bootloader-v0.3/build/mbporttimer.o
                0x0000000060006bb8                vMBPortTimersDisable
 .text.vMBPortTimerClose
                0x0000000060006bcc        0x4 /home/asmir/Desktop/Dropbox/MCU/nxp/RT1021/projects/alencon-systems/bootloader-v0.3/build/mbporttimer.o
                0x0000000060006bcc                vMBPortTimerClose
 .text.vMBPortTimersDelay
                0x0000000060006bd0        0x4 /home/asmir/Desktop/Dropbox/MCU/nxp/RT1021/projects/alencon-systems/bootloader-v0.3/build/mbporttimer.o
                0x0000000060006bd0                vMBPortTimersDelay
 .text.vMBPortTimersService
                0x0000000060006bd4       0x34 /home/asmir/Desktop/Dropbox/MCU/nxp/RT1021/projects/alencon-systems/bootloader-v0.3/build/mbporttimer.o
                0x0000000060006bd4                vMBPortTimersService
 .text.TxCompleteCallback
                0x0000000060006c08        0x8 /home/asmir/Desktop/Dropbox/MCU/nxp/RT1021/projects/alencon-systems/bootloader-v0.3/build/DCDC_mbrtu.o
 .text.eMBRTUInit
                0x0000000060006c10       0x4c /home/asmir/Desktop/Dropbox/MCU/nxp/RT1021/projects/alencon-systems/bootloader-v0.3/build/DCDC_mbrtu.o
                0x0000000060006c10                eMBRTUInit
 .text.eMBRTUStart
                0x0000000060006c5c       0x1c /home/asmir/Desktop/Dropbox/MCU/nxp/RT1021/projects/alencon-systems/bootloader-v0.3/build/DCDC_mbrtu.o
                0x0000000060006c5c                eMBRTUStart
 .text.vMBPortSerialClose
                0x0000000060006c78        0x4 /home/asmir/Desktop/Dropbox/MCU/nxp/RT1021/projects/alencon-systems/bootloader-v0.3/build/DCDC_mbrtu.o
                0x0000000060006c78                vMBPortSerialClose
 .text.eMBRTUStop
                0x0000000060006c7c       0x18 /home/asmir/Desktop/Dropbox/MCU/nxp/RT1021/projects/alencon-systems/bootloader-v0.3/build/DCDC_mbrtu.o
                0x0000000060006c7c                eMBRTUStop
 .text.eMBRTUReceive
                0x0000000060006c94       0x74 /home/asmir/Desktop/Dropbox/MCU/nxp/RT1021/projects/alencon-systems/bootloader-v0.3/build/DCDC_mbrtu.o
                0x0000000060006c94                eMBRTUReceive
 .text.eMBRTUSend
                0x0000000060006d08       0x60 /home/asmir/Desktop/Dropbox/MCU/nxp/RT1021/projects/alencon-systems/bootloader-v0.3/build/DCDC_mbrtu.o
                0x0000000060006d08                eMBRTUSend
 .text.xMBRTUReceiveFSM
                0x0000000060006d68       0xa0 /home/asmir/Desktop/Dropbox/MCU/nxp/RT1021/projects/alencon-systems/bootloader-v0.3/build/DCDC_mbrtu.o
                0x0000000060006d68                xMBRTUReceiveFSM
 .text.xMBRTUTransmitFSM
                0x0000000060006e08        0x4 /home/asmir/Desktop/Dropbox/MCU/nxp/RT1021/projects/alencon-systems/bootloader-v0.3/build/DCDC_mbrtu.o
                0x0000000060006e08                xMBRTUTransmitFSM
 .text.xMBRTUTimerT35Expired
                0x0000000060006e0c       0x7c /home/asmir/Desktop/Dropbox/MCU/nxp/RT1021/projects/alencon-systems/bootloader-v0.3/build/DCDC_mbrtu.o
                0x0000000060006e0c                xMBRTUTimerT35Expired
 .text.__errno  0x0000000060006e88        0xc /home/asmir/Desktop/Dropbox/MCU/gcc/gcc-arm-none-eabi-7-2018-q2-update/bin/../lib/gcc/arm-none-eabi/7.3.1/../../../../arm-none-eabi/lib/thumb/v7e-m/fpv4-sp/hard/libc.a(lib_a-errno.o)
                0x0000000060006e88                __errno
 .text.__libc_init_array
                0x0000000060006e94       0x48 /home/asmir/Desktop/Dropbox/MCU/gcc/gcc-arm-none-eabi-7-2018-q2-update/bin/../lib/gcc/arm-none-eabi/7.3.1/../../../../arm-none-eabi/lib/thumb/v7e-m/fpv4-sp/hard/libc.a(lib_a-init.o)
                0x0000000060006e94                __libc_init_array
 .text.malloc   0x0000000060006edc       0x10 /home/asmir/Desktop/Dropbox/MCU/gcc/gcc-arm-none-eabi-7-2018-q2-update/bin/../lib/gcc/arm-none-eabi/7.3.1/../../../../arm-none-eabi/lib/thumb/v7e-m/fpv4-sp/hard/libc.a(lib_a-malloc.o)
                0x0000000060006edc                malloc
 .text._malloc_r
                0x0000000060006eec      0x548 /home/asmir/Desktop/Dropbox/MCU/gcc/gcc-arm-none-eabi-7-2018-q2-update/bin/../lib/gcc/arm-none-eabi/7.3.1/../../../../arm-none-eabi/lib/thumb/v7e-m/fpv4-sp/hard/libc.a(lib_a-mallocr.o)
                0x0000000060006eec                _malloc_r
 .text.memcmp   0x0000000060007434       0x64 /home/asmir/Desktop/Dropbox/MCU/gcc/gcc-arm-none-eabi-7-2018-q2-update/bin/../lib/gcc/arm-none-eabi/7.3.1/../../../../arm-none-eabi/lib/thumb/v7e-m/fpv4-sp/hard/libc.a(lib_a-memcmp.o)
                0x0000000060007434                memcmp
 .text.memset   0x0000000060007498       0x94 /home/asmir/Desktop/Dropbox/MCU/gcc/gcc-arm-none-eabi-7-2018-q2-update/bin/../lib/gcc/arm-none-eabi/7.3.1/../../../../arm-none-eabi/lib/thumb/v7e-m/fpv4-sp/hard/libc.a(lib_a-memset.o)
                0x0000000060007498                memset
 .text.__malloc_lock
                0x000000006000752c        0xc /home/asmir/Desktop/Dropbox/MCU/gcc/gcc-arm-none-eabi-7-2018-q2-update/bin/../lib/gcc/arm-none-eabi/7.3.1/../../../../arm-none-eabi/lib/thumb/v7e-m/fpv4-sp/hard/libc.a(lib_a-mlock.o)
                0x000000006000752c                __malloc_lock
 .text.__malloc_unlock
                0x0000000060007538        0xc /home/asmir/Desktop/Dropbox/MCU/gcc/gcc-arm-none-eabi-7-2018-q2-update/bin/../lib/gcc/arm-none-eabi/7.3.1/../../../../arm-none-eabi/lib/thumb/v7e-m/fpv4-sp/hard/libc.a(lib_a-mlock.o)
                0x0000000060007538                __malloc_unlock
 .text._sbrk_r  0x0000000060007544       0x24 /home/asmir/Desktop/Dropbox/MCU/gcc/gcc-arm-none-eabi-7-2018-q2-update/bin/../lib/gcc/arm-none-eabi/7.3.1/../../../../arm-none-eabi/lib/thumb/v7e-m/fpv4-sp/hard/libc.a(lib_a-sbrkr.o)
                0x0000000060007544                _sbrk_r
 .text.strcasecmp
                0x0000000060007568       0x44 /home/asmir/Desktop/Dropbox/MCU/gcc/gcc-arm-none-eabi-7-2018-q2-update/bin/../lib/gcc/arm-none-eabi/7.3.1/../../../../arm-none-eabi/lib/thumb/v7e-m/fpv4-sp/hard/libc.a(lib_a-strcasecmp.o)
                0x0000000060007568                strcasecmp
 .text.startup.register_fini
                0x00000000600075ac       0x14 /home/asmir/Desktop/Dropbox/MCU/gcc/gcc-arm-none-eabi-7-2018-q2-update/bin/../lib/gcc/arm-none-eabi/7.3.1/../../../../arm-none-eabi/lib/thumb/v7e-m/fpv4-sp/hard/libc.a(lib_a-__call_atexit.o)
 .text.atexit   0x00000000600075c0        0xc /home/asmir/Desktop/Dropbox/MCU/gcc/gcc-arm-none-eabi-7-2018-q2-update/bin/../lib/gcc/arm-none-eabi/7.3.1/../../../../arm-none-eabi/lib/thumb/v7e-m/fpv4-sp/hard/libc.a(lib_a-atexit.o)
                0x00000000600075c0                atexit
 .text.__libc_fini_array
                0x00000000600075cc       0x34 /home/asmir/Desktop/Dropbox/MCU/gcc/gcc-arm-none-eabi-7-2018-q2-update/bin/../lib/gcc/arm-none-eabi/7.3.1/../../../../arm-none-eabi/lib/thumb/v7e-m/fpv4-sp/hard/libc.a(lib_a-fini.o)
                0x00000000600075cc                __libc_fini_array
 .text._malloc_trim_r
                0x0000000060007600       0xa0 /home/asmir/Desktop/Dropbox/MCU/gcc/gcc-arm-none-eabi-7-2018-q2-update/bin/../lib/gcc/arm-none-eabi/7.3.1/../../../../arm-none-eabi/lib/thumb/v7e-m/fpv4-sp/hard/libc.a(lib_a-freer.o)
                0x0000000060007600                _malloc_trim_r
 .text._free_r  0x00000000600076a0      0x1e8 /home/asmir/Desktop/Dropbox/MCU/gcc/gcc-arm-none-eabi-7-2018-q2-update/bin/../lib/gcc/arm-none-eabi/7.3.1/../../../../arm-none-eabi/lib/thumb/v7e-m/fpv4-sp/hard/libc.a(lib_a-freer.o)
                0x00000000600076a0                _free_r
 .text.__locale_ctype_ptr
                0x0000000060007888       0x1c /home/asmir/Desktop/Dropbox/MCU/gcc/gcc-arm-none-eabi-7-2018-q2-update/bin/../lib/gcc/arm-none-eabi/7.3.1/../../../../arm-none-eabi/lib/thumb/v7e-m/fpv4-sp/hard/libc.a(lib_a-locale.o)
                0x0000000060007888                __locale_ctype_ptr
 .text.__retarget_lock_acquire_recursive
                0x00000000600078a4        0x4 /home/asmir/Desktop/Dropbox/MCU/gcc/gcc-arm-none-eabi-7-2018-q2-update/bin/../lib/gcc/arm-none-eabi/7.3.1/../../../../arm-none-eabi/lib/thumb/v7e-m/fpv4-sp/hard/libc.a(lib_a-lock.o)
                0x00000000600078a4                __retarget_lock_acquire_recursive
 .text.__retarget_lock_release_recursive
                0x00000000600078a8        0x4 /home/asmir/Desktop/Dropbox/MCU/gcc/gcc-arm-none-eabi-7-2018-q2-update/bin/../lib/gcc/arm-none-eabi/7.3.1/../../../../arm-none-eabi/lib/thumb/v7e-m/fpv4-sp/hard/libc.a(lib_a-lock.o)
                0x00000000600078a8                __retarget_lock_release_recursive
 .text.__ascii_mbtowc
                0x00000000600078ac       0x2c /home/asmir/Desktop/Dropbox/MCU/gcc/gcc-arm-none-eabi-7-2018-q2-update/bin/../lib/gcc/arm-none-eabi/7.3.1/../../../../arm-none-eabi/lib/thumb/v7e-m/fpv4-sp/hard/libc.a(lib_a-mbtowc_r.o)
                0x00000000600078ac                __ascii_mbtowc
 .text.__ascii_wctomb
                0x00000000600078d8       0x1c /home/asmir/Desktop/Dropbox/MCU/gcc/gcc-arm-none-eabi-7-2018-q2-update/bin/../lib/gcc/arm-none-eabi/7.3.1/../../../../arm-none-eabi/lib/thumb/v7e-m/fpv4-sp/hard/libc.a(lib_a-wctomb_r.o)
                0x00000000600078d8                __ascii_wctomb
 .text.__register_exitproc
                0x00000000600078f4       0xc0 /home/asmir/Desktop/Dropbox/MCU/gcc/gcc-arm-none-eabi-7-2018-q2-update/bin/../lib/gcc/arm-none-eabi/7.3.1/../../../../arm-none-eabi/lib/thumb/v7e-m/fpv4-sp/hard/libc.a(lib_a-__atexit.o)
                0x00000000600078f4                __register_exitproc
 *(.rodata .rodata.* .constdata .constdata.*)
 .rodata.main.str1.4
                0x00000000600079b4       0x3c /home/asmir/Desktop/Dropbox/MCU/nxp/RT1021/projects/alencon-systems/bootloader-v0.3/build/main.o
 .rodata.__func__.10191
                0x00000000600079f0        0xb /home/asmir/Desktop/Dropbox/MCU/nxp/RT1021/projects/alencon-systems/bootloader-v0.3/build/systemclk.o
 *fill*         0x00000000600079fb        0x1 
 .rodata.initSYSTEM.str1.4
                0x00000000600079fc       0x47 /home/asmir/Desktop/Dropbox/MCU/nxp/RT1021/projects/alencon-systems/bootloader-v0.3/build/systemclk.o
 *fill*         0x0000000060007a43        0x1 
 .rodata.BUILD_TIME
                0x0000000060007a44        0x4 /home/asmir/Desktop/Dropbox/MCU/nxp/RT1021/projects/alencon-systems/bootloader-v0.3/build/fwver.o
                0x0000000060007a44                BUILD_TIME
 .rodata.FIRMWARE_VERSION
                0x0000000060007a48        0x4 /home/asmir/Desktop/Dropbox/MCU/nxp/RT1021/projects/alencon-systems/bootloader-v0.3/build/fwver.o
                0x0000000060007a48                FIRMWARE_VERSION
 .rodata.BusFault_Handler.str1.4
                0x0000000060007a4c       0x1a /home/asmir/Desktop/Dropbox/MCU/nxp/RT1021/projects/alencon-systems/bootloader-v0.3/build/debug.o
 *fill*         0x0000000060007a66        0x2 
 .rodata.HardFault_HandlerC.str1.4
                0x0000000060007a68       0xbb /home/asmir/Desktop/Dropbox/MCU/nxp/RT1021/projects/alencon-systems/bootloader-v0.3/build/debug.o
 *fill*         0x0000000060007b23        0x1 
 .rodata.MemManage_Handler.str1.4
                0x0000000060007b24       0x1b /home/asmir/Desktop/Dropbox/MCU/nxp/RT1021/projects/alencon-systems/bootloader-v0.3/build/debug.o
 *fill*         0x0000000060007b3f        0x1 
 .rodata.NMI_Handler.str1.4
                0x0000000060007b40       0x15 /home/asmir/Desktop/Dropbox/MCU/nxp/RT1021/projects/alencon-systems/bootloader-v0.3/build/debug.o
 *fill*         0x0000000060007b55        0x3 
 .rodata.UsageFault_Handler.str1.4
                0x0000000060007b58       0x1c /home/asmir/Desktop/Dropbox/MCU/nxp/RT1021/projects/alencon-systems/bootloader-v0.3/build/debug.o
 .rodata.initDEBUG.str1.4
                0x0000000060007b74      0x150 /home/asmir/Desktop/Dropbox/MCU/nxp/RT1021/projects/alencon-systems/bootloader-v0.3/build/debug.o
                                        0x154 (size before relaxing)
 .rodata.CLOCK_InitExternalClk.str1.4
                0x0000000060007cc4       0x26 /home/asmir/Desktop/Dropbox/MCU/nxp/RT1021/projects/alencon-systems/bootloader-v0.3/build/fsl_clock.o
 *fill*         0x0000000060007cea        0x2 
 .rodata.__func__.10077
                0x0000000060007cec       0x16 /home/asmir/Desktop/Dropbox/MCU/nxp/RT1021/projects/alencon-systems/bootloader-v0.3/build/fsl_clock.o
 *fill*         0x0000000060007d02        0x2 
 .rodata.enetPllConfig_BOARD_BootClockRUN
                0x0000000060007d04        0x5 /home/asmir/Desktop/Dropbox/MCU/nxp/RT1021/projects/alencon-systems/bootloader-v0.3/build/clock_config.o
                0x0000000060007d04                enetPllConfig_BOARD_BootClockRUN
 *fill*         0x0000000060007d09        0x3 
 .rodata.FLEXSPI_CheckAndClearError.str1.4
                0x0000000060007d0c        0x6 /home/asmir/Desktop/Dropbox/MCU/nxp/RT1021/projects/alencon-systems/bootloader-v0.3/build/fsl_flexspi.o
 *fill*         0x0000000060007d12        0x2 
 .rodata.FLEXSPI_GetDefaultConfig.str1.4
                0x0000000060007d14        0xc /home/asmir/Desktop/Dropbox/MCU/nxp/RT1021/projects/alencon-systems/bootloader-v0.3/build/fsl_flexspi.o
 .rodata.FLEXSPI_GetInstance.part.1.str1.4
                0x0000000060007d20       0x40 /home/asmir/Desktop/Dropbox/MCU/nxp/RT1021/projects/alencon-systems/bootloader-v0.3/build/fsl_flexspi.o
 .rodata.FLEXSPI_UpdateLUT.str1.4
                0x0000000060007d60        0xc /home/asmir/Desktop/Dropbox/MCU/nxp/RT1021/projects/alencon-systems/bootloader-v0.3/build/fsl_flexspi.o
 .rodata.__func__.11264
                0x0000000060007d6c        0xf /home/asmir/Desktop/Dropbox/MCU/nxp/RT1021/projects/alencon-systems/bootloader-v0.3/build/fsl_flexspi.o
 *fill*         0x0000000060007d7b        0x1 
 .rodata.__func__.11277
                0x0000000060007d7c       0x14 /home/asmir/Desktop/Dropbox/MCU/nxp/RT1021/projects/alencon-systems/bootloader-v0.3/build/fsl_flexspi.o
 .rodata.__func__.11299
                0x0000000060007d90       0x1b /home/asmir/Desktop/Dropbox/MCU/nxp/RT1021/projects/alencon-systems/bootloader-v0.3/build/fsl_flexspi.o
 *fill*         0x0000000060007dab        0x1 
 .rodata.__func__.11363
                0x0000000060007dac       0x12 /home/asmir/Desktop/Dropbox/MCU/nxp/RT1021/projects/alencon-systems/bootloader-v0.3/build/fsl_flexspi.o
 *fill*         0x0000000060007dbe        0x2 
 .rodata.customLUT
                0x0000000060007dc0       0xf0 /home/asmir/Desktop/Dropbox/MCU/nxp/RT1021/projects/alencon-systems/bootloader-v0.3/build/flexspi_nor_flash_ops.o
                0x0000000060007dc0                customLUT
 .rodata        0x0000000060007eb0       0x24 /home/asmir/Desktop/Dropbox/MCU/nxp/RT1021/projects/alencon-systems/bootloader-v0.3/build/hal_uart.o
 .rodata.CSWTCH.19
                0x0000000060007ed4       0x20 /home/asmir/Desktop/Dropbox/MCU/nxp/RT1021/projects/alencon-systems/bootloader-v0.3/build/hal_uart.o
 .rodata.__func__.11095
                0x0000000060007ef4       0x12 /home/asmir/Desktop/Dropbox/MCU/nxp/RT1021/projects/alencon-systems/bootloader-v0.3/build/hal_uart.o
 *fill*         0x0000000060007f06        0x2 
 .rodata.hal_UART_Init.str1.4
                0x0000000060007f08       0x26 /home/asmir/Desktop/Dropbox/MCU/nxp/RT1021/projects/alencon-systems/bootloader-v0.3/build/hal_uart.o
 *fill*         0x0000000060007f2e        0x2 
 .rodata.crc_table
                0x0000000060007f30       0x40 /home/asmir/Desktop/Dropbox/MCU/nxp/RT1021/projects/alencon-systems/bootloader-v0.3/build/crc16.o
 .rodata.GetSubsystemName.str1.4
                0x0000000060007f70        0xe /home/asmir/Desktop/Dropbox/MCU/nxp/RT1021/projects/alencon-systems/bootloader-v0.3/build/subsys.o
 *fill*         0x0000000060007f7e        0x2 
 .rodata.Log_Header.str1.4
                0x0000000060007f80        0x8 /home/asmir/Desktop/Dropbox/MCU/nxp/RT1021/projects/alencon-systems/bootloader-v0.3/build/subsys.o
 .rodata.Subsystem_SystemInit.str1.4
                0x0000000060007f88        0x4 /home/asmir/Desktop/Dropbox/MCU/nxp/RT1021/projects/alencon-systems/bootloader-v0.3/build/subsys.o
 .rodata.SystemCallback.str1.4
                0x0000000060007f88       0x8a /home/asmir/Desktop/Dropbox/MCU/nxp/RT1021/projects/alencon-systems/bootloader-v0.3/build/subsys.o
                                         0x8e (size before relaxing)
 *fill*         0x0000000060008012        0x2 
 .rodata.Bootloader_Init.str1.4
                0x0000000060008014       0x21 /home/asmir/Desktop/Dropbox/MCU/nxp/RT1021/projects/alencon-systems/bootloader-v0.3/build/bootloader.o
 *fill*         0x0000000060008035        0x3 
 .rodata.JumpToAppStateMachine.str1.4
                0x0000000060008038       0x1c /home/asmir/Desktop/Dropbox/MCU/nxp/RT1021/projects/alencon-systems/bootloader-v0.3/build/bootloader.o
 .rodata.RS485_Serial_Write.str1.4
                0x0000000060008054       0x13 /home/asmir/Desktop/Dropbox/MCU/nxp/RT1021/projects/alencon-systems/bootloader-v0.3/build/RS485Serial.o
                                         0x18 (size before relaxing)
 *fill*         0x0000000060008067        0x1 
 .rodata.aucCRCHi
                0x0000000060008068      0x100 /home/asmir/Desktop/Dropbox/MCU/nxp/RT1021/projects/alencon-systems/bootloader-v0.3/build/mbcrc.o
 .rodata.aucCRCLo
                0x0000000060008168      0x100 /home/asmir/Desktop/Dropbox/MCU/nxp/RT1021/projects/alencon-systems/bootloader-v0.3/build/mbcrc.o
 .rodata.CSWTCH.8
                0x0000000060008268        0x8 /home/asmir/Desktop/Dropbox/MCU/nxp/RT1021/projects/alencon-systems/bootloader-v0.3/build/mbutils.o
 .rodata.ucSlaveID
                0x0000000060008270        0x3 /home/asmir/Desktop/Dropbox/MCU/nxp/RT1021/projects/alencon-systems/bootloader-v0.3/build/AlenconModbus.o
                0x0000000060008270                ucSlaveID
 *fill*         0x0000000060008273        0x1 
 .rodata.AlenconModbus_Init.str1.4
                0x0000000060008274       0x2d /home/asmir/Desktop/Dropbox/MCU/nxp/RT1021/projects/alencon-systems/bootloader-v0.3/build/AlenconModbusBootloader.o
                                         0x32 (size before relaxing)
 *fill*         0x00000000600082a1        0x3 
 .rodata.DiagnosticCallback.str1.4
                0x00000000600082a4       0xab /home/asmir/Desktop/Dropbox/MCU/nxp/RT1021/projects/alencon-systems/bootloader-v0.3/build/AlenconModbusBootloader.o
 *fill*         0x000000006000834f        0x1 
 .rodata.ErrorHandler.isra.3.str1.4
                0x0000000060008350       0x10 /home/asmir/Desktop/Dropbox/MCU/nxp/RT1021/projects/alencon-systems/bootloader-v0.3/build/AlenconModbusBootloader.o
 .rodata.ReadProvisioning.str1.4
                0x0000000060008360       0x11 /home/asmir/Desktop/Dropbox/MCU/nxp/RT1021/projects/alencon-systems/bootloader-v0.3/build/AlenconModbusBootloader.o
                                         0x18 (size before relaxing)
 *fill*         0x0000000060008371        0x3 
 .rodata.StartFirmwareUpdate.str1.4
                0x0000000060008374       0x3e /home/asmir/Desktop/Dropbox/MCU/nxp/RT1021/projects/alencon-systems/bootloader-v0.3/build/AlenconModbusBootloader.o
 *fill*         0x00000000600083b2        0x2 
 .rodata.WriteFirmwareBlock.str1.4
                0x00000000600083b4       0x19 /home/asmir/Desktop/Dropbox/MCU/nxp/RT1021/projects/alencon-systems/bootloader-v0.3/build/AlenconModbusBootloader.o
 *fill*         0x00000000600083cd        0x3 
 .rodata.__func__.11781
                0x00000000600083d0        0xe /home/asmir/Desktop/Dropbox/MCU/nxp/RT1021/projects/alencon-systems/bootloader-v0.3/build/DCDC_mbrtu.o
 *fill*         0x00000000600083de        0x2 
 .rodata.__func__.11794
                0x00000000600083e0       0x11 /home/asmir/Desktop/Dropbox/MCU/nxp/RT1021/projects/alencon-systems/bootloader-v0.3/build/DCDC_mbrtu.o
 *fill*         0x00000000600083f1        0x3 
 .rodata.__func__.11812
                0x00000000600083f4       0x16 /home/asmir/Desktop/Dropbox/MCU/nxp/RT1021/projects/alencon-systems/bootloader-v0.3/build/DCDC_mbrtu.o
 *fill*         0x000000006000840a        0x2 
 .rodata.eMBRTUReceive.str1.4
                0x000000006000840c       0x3a /home/asmir/Desktop/Dropbox/MCU/nxp/RT1021/projects/alencon-systems/bootloader-v0.3/build/DCDC_mbrtu.o
 *fill*         0x0000000060008446        0x2 
 .rodata.xMBRTUReceiveFSM.str1.4
                0x0000000060008448       0x1b /home/asmir/Desktop/Dropbox/MCU/nxp/RT1021/projects/alencon-systems/bootloader-v0.3/build/DCDC_mbrtu.o
 *fill*         0x0000000060008463        0x1 
 .rodata.xMBRTUTimerT35Expired.str1.4
                0x0000000060008464       0x63 /home/asmir/Desktop/Dropbox/MCU/nxp/RT1021/projects/alencon-systems/bootloader-v0.3/build/DCDC_mbrtu.o
 *fill*         0x00000000600084c7        0x1 
 .rodata._global_impure_ptr
                0x00000000600084c8        0x4 /home/asmir/Desktop/Dropbox/MCU/gcc/gcc-arm-none-eabi-7-2018-q2-update/bin/../lib/gcc/arm-none-eabi/7.3.1/../../../../arm-none-eabi/lib/thumb/v7e-m/fpv4-sp/hard/libc.a(lib_a-impure.o)
                0x00000000600084c8                _global_impure_ptr
 .rodata._setlocale_r.str1.4
                0x00000000600084cc        0xa /home/asmir/Desktop/Dropbox/MCU/gcc/gcc-arm-none-eabi-7-2018-q2-update/bin/../lib/gcc/arm-none-eabi/7.3.1/../../../../arm-none-eabi/lib/thumb/v7e-m/fpv4-sp/hard/libc.a(lib_a-locale.o)
                                          0xd (size before relaxing)
 *fill*         0x00000000600084d6        0x2 
 .rodata.str1.4
                0x00000000600084d8        0x4 /home/asmir/Desktop/Dropbox/MCU/gcc/gcc-arm-none-eabi-7-2018-q2-update/bin/../lib/gcc/arm-none-eabi/7.3.1/../../../../arm-none-eabi/lib/thumb/v7e-m/fpv4-sp/hard/libc.a(lib_a-locale.o)
                                          0x2 (size before relaxing)
 .rodata._ctype_
                0x00000000600084dc      0x101 /home/asmir/Desktop/Dropbox/MCU/gcc/gcc-arm-none-eabi-7-2018-q2-update/bin/../lib/gcc/arm-none-eabi/7.3.1/../../../../arm-none-eabi/lib/thumb/v7e-m/fpv4-sp/hard/libc.a(lib_a-ctype_.o)
                0x00000000600084dc                _ctype_
 *(.glue_7)
 .glue_7        0x00000000600085dd        0x0 linker stubs
 *(.glue_7t)
 .glue_7t       0x00000000600085dd        0x0 linker stubs
 *(.eh_frame)
 *fill*         0x00000000600085dd        0x3 
 .eh_frame      0x00000000600085e0        0x0 /home/asmir/Desktop/Dropbox/MCU/gcc/gcc-arm-none-eabi-7-2018-q2-update/bin/../lib/gcc/arm-none-eabi/7.3.1/thumb/v7e-m/fpv4-sp/hard/crtbegin.o
 *(.init)
 .init          0x00000000600085e0        0x4 /home/asmir/Desktop/Dropbox/MCU/gcc/gcc-arm-none-eabi-7-2018-q2-update/bin/../lib/gcc/arm-none-eabi/7.3.1/thumb/v7e-m/fpv4-sp/hard/crti.o
                0x00000000600085e0                _init
 .init          0x00000000600085e4        0x8 /home/asmir/Desktop/Dropbox/MCU/gcc/gcc-arm-none-eabi-7-2018-q2-update/bin/../lib/gcc/arm-none-eabi/7.3.1/thumb/v7e-m/fpv4-sp/hard/crtn.o
 *(.fini)
 .fini          0x00000000600085ec        0x4 /home/asmir/Desktop/Dropbox/MCU/gcc/gcc-arm-none-eabi-7-2018-q2-update/bin/../lib/gcc/arm-none-eabi/7.3.1/thumb/v7e-m/fpv4-sp/hard/crti.o
                0x00000000600085ec                _fini
 .fini          0x00000000600085f0        0x8 /home/asmir/Desktop/Dropbox/MCU/gcc/gcc-arm-none-eabi-7-2018-q2-update/bin/../lib/gcc/arm-none-eabi/7.3.1/thumb/v7e-m/fpv4-sp/hard/crtn.o
 .fini.__stub   0x00000000600085f8       0x20 linker stubs
                0x0000000060008618                . = ALIGN (0x4)

.vfp11_veneer   0x0000000060008618        0x0
 .vfp11_veneer  0x0000000060008618        0x0 linker stubs

.v4_bx          0x0000000060008618        0x0
 .v4_bx         0x0000000060008618        0x0 linker stubs

.iplt           0x0000000060008618        0x0
 .iplt          0x0000000060008618        0x0 /home/asmir/Desktop/Dropbox/MCU/gcc/gcc-arm-none-eabi-7-2018-q2-update/bin/../lib/gcc/arm-none-eabi/7.3.1/thumb/v7e-m/fpv4-sp/hard/crtbegin.o

.rel.dyn        0x0000000060008618        0x0
 .rel.iplt      0x0000000060008618        0x0 /home/asmir/Desktop/Dropbox/MCU/gcc/gcc-arm-none-eabi-7-2018-q2-update/bin/../lib/gcc/arm-none-eabi/7.3.1/thumb/v7e-m/fpv4-sp/hard/crtbegin.o

.ARM.extab
 *(.ARM.extab* .gnu.linkonce.armextab.*)

.ARM            0x0000000060008618        0x0
                0x0000000060008618                __exidx_start = .
 *(.ARM.exidx*)
                0x0000000060008618                __exidx_end = .

.ctors          0x0000000060008618        0x0
                0x0000000060008618                __CTOR_LIST__ = .
 *crtbegin.o(.ctors)
 *crtbegin?.o(.ctors)
 *(EXCLUDE_FILE(*crtend.o *crtend?.o) .ctors)
 *(SORT_BY_NAME(.ctors.*))
 *(.ctors)
                0x0000000060008618                __CTOR_END__ = .

.dtors          0x0000000060008618        0x0
                0x0000000060008618                __DTOR_LIST__ = .
 *crtbegin.o(.dtors)
 *crtbegin?.o(.dtors)
 *(EXCLUDE_FILE(*crtend.o *crtend?.o) .dtors)
 *(SORT_BY_NAME(.dtors.*))
 *(.dtors)
                0x0000000060008618                __DTOR_END__ = .

.preinit_array  0x0000000060008618        0x0
                0x0000000060008618                PROVIDE (__preinit_array_start = .)
 *(.preinit_array*)
                0x0000000060008618                PROVIDE (__preinit_array_end = .)

.init_array     0x0000000060008618        0x8
                0x0000000060008618                PROVIDE (__init_array_start = .)
 *(SORT_BY_NAME(.init_array.*))
 .init_array.00000
                0x0000000060008618        0x4 /home/asmir/Desktop/Dropbox/MCU/gcc/gcc-arm-none-eabi-7-2018-q2-update/bin/../lib/gcc/arm-none-eabi/7.3.1/../../../../arm-none-eabi/lib/thumb/v7e-m/fpv4-sp/hard/libc.a(lib_a-__call_atexit.o)
 *(.init_array*)
 .init_array    0x000000006000861c        0x4 /home/asmir/Desktop/Dropbox/MCU/gcc/gcc-arm-none-eabi-7-2018-q2-update/bin/../lib/gcc/arm-none-eabi/7.3.1/thumb/v7e-m/fpv4-sp/hard/crtbegin.o
                0x0000000060008620                PROVIDE (__init_array_end = .)

.fini_array     0x0000000060008620        0x4
                0x0000000060008620                PROVIDE (__fini_array_start = .)
 *(SORT_BY_NAME(.fini_array.*))
 *(.fini_array*)
 .fini_array    0x0000000060008620        0x4 /home/asmir/Desktop/Dropbox/MCU/gcc/gcc-arm-none-eabi-7-2018-q2-update/bin/../lib/gcc/arm-none-eabi/7.3.1/thumb/v7e-m/fpv4-sp/hard/crtbegin.o
                0x0000000060008624                PROVIDE (__fini_array_end = .)
                0x0000000060008624                __etext = .
                0x0000000060008624                __DATA_ROM = .

.interrupts_ram
                0x0000000020000000        0x0
                0x0000000020000000                . = ALIGN (0x4)
                0x0000000020000000                __VECTOR_RAM__ = .
                0x0000000020000000                __interrupts_ram_start__ = .
 *(.m_interrupts_ram)
                0x0000000020000000                . = (. + VECTOR_RAM_SIZE)
                0x0000000020000000                . = ALIGN (0x4)
                0x0000000020000000                __interrupts_ram_end__ = .
                0x0000000060008624                _flexspi = LOADADDR (.flexspi)

.flexspi        0x0000000000000000     0x1548 load address 0x0000000060008624
                0x0000000000000000                . = ALIGN (0x4)
                0x0000000000000000                __flexspi_start__ = .
 *flexspi_nor_flash_ops.o(.text*)
 .text.flexspi_nor_disable_cache
                0x0000000000000000       0x94 /home/asmir/Desktop/Dropbox/MCU/nxp/RT1021/projects/alencon-systems/bootloader-v0.3/build/flexspi_nor_flash_ops.o
                0x0000000000000000                flexspi_nor_disable_cache
 .text.flexspi_nor_enable_cache
                0x0000000000000094       0xa8 /home/asmir/Desktop/Dropbox/MCU/nxp/RT1021/projects/alencon-systems/bootloader-v0.3/build/flexspi_nor_flash_ops.o
                0x0000000000000094                flexspi_nor_enable_cache
 .text.flexspi_nor_wait_bus_busy
                0x000000000000013c       0x3c /home/asmir/Desktop/Dropbox/MCU/nxp/RT1021/projects/alencon-systems/bootloader-v0.3/build/flexspi_nor_flash_ops.o
                0x000000000000013c                flexspi_nor_wait_bus_busy
 .text.flexspi_nor_enable_quad_mode
                0x0000000000000178       0x84 /home/asmir/Desktop/Dropbox/MCU/nxp/RT1021/projects/alencon-systems/bootloader-v0.3/build/flexspi_nor_flash_ops.o
                0x0000000000000178                flexspi_nor_enable_quad_mode
 .text.flexspi_nor_flash_erase_sector
                0x00000000000001fc       0x78 /home/asmir/Desktop/Dropbox/MCU/nxp/RT1021/projects/alencon-systems/bootloader-v0.3/build/flexspi_nor_flash_ops.o
                0x00000000000001fc                flexspi_nor_flash_erase_sector
 .text.flexspi_nor_flash_program
                0x0000000000000274       0x88 /home/asmir/Desktop/Dropbox/MCU/nxp/RT1021/projects/alencon-systems/bootloader-v0.3/build/flexspi_nor_flash_ops.o
                0x0000000000000274                flexspi_nor_flash_program
 .text.flexspi_nor_flash_init
                0x00000000000002fc       0xa0 /home/asmir/Desktop/Dropbox/MCU/nxp/RT1021/projects/alencon-systems/bootloader-v0.3/build/flexspi_nor_flash_ops.o
                0x00000000000002fc                flexspi_nor_flash_init
 *fsl_flexspi.o(.text*)
 .text.unlikely.FLEXSPI_GetInstance.part.1
                0x000000000000039c       0x1c /home/asmir/Desktop/Dropbox/MCU/nxp/RT1021/projects/alencon-systems/bootloader-v0.3/build/fsl_flexspi.o
 .text.FLEXSPI_CheckAndClearError
                0x00000000000003b8       0x64 /home/asmir/Desktop/Dropbox/MCU/nxp/RT1021/projects/alencon-systems/bootloader-v0.3/build/fsl_flexspi.o
                0x00000000000003b8                FLEXSPI_CheckAndClearError
 .text.FLEXSPI_Init
                0x000000000000041c      0x180 /home/asmir/Desktop/Dropbox/MCU/nxp/RT1021/projects/alencon-systems/bootloader-v0.3/build/fsl_flexspi.o
                0x000000000000041c                FLEXSPI_Init
 .text.FLEXSPI_GetDefaultConfig
                0x000000000000059c       0xa8 /home/asmir/Desktop/Dropbox/MCU/nxp/RT1021/projects/alencon-systems/bootloader-v0.3/build/fsl_flexspi.o
                0x000000000000059c                FLEXSPI_GetDefaultConfig
 .text.FLEXSPI_UpdateDllValue
                0x0000000000000644       0xc8 /home/asmir/Desktop/Dropbox/MCU/nxp/RT1021/projects/alencon-systems/bootloader-v0.3/build/fsl_flexspi.o
                0x0000000000000644                FLEXSPI_UpdateDllValue
 .text.FLEXSPI_SetFlashConfig
                0x000000000000070c      0x134 /home/asmir/Desktop/Dropbox/MCU/nxp/RT1021/projects/alencon-systems/bootloader-v0.3/build/fsl_flexspi.o
                0x000000000000070c                FLEXSPI_SetFlashConfig
 .text.FLEXSPI_UpdateLUT
                0x0000000000000840       0x60 /home/asmir/Desktop/Dropbox/MCU/nxp/RT1021/projects/alencon-systems/bootloader-v0.3/build/fsl_flexspi.o
                0x0000000000000840                FLEXSPI_UpdateLUT
 .text.FLEXSPI_WriteBlocking
                0x00000000000008a0       0x74 /home/asmir/Desktop/Dropbox/MCU/nxp/RT1021/projects/alencon-systems/bootloader-v0.3/build/fsl_flexspi.o
                0x00000000000008a0                FLEXSPI_WriteBlocking
 .text.FLEXSPI_ReadBlocking
                0x0000000000000914       0x9c /home/asmir/Desktop/Dropbox/MCU/nxp/RT1021/projects/alencon-systems/bootloader-v0.3/build/fsl_flexspi.o
                0x0000000000000914                FLEXSPI_ReadBlocking
 .text.FLEXSPI_TransferBlocking
                0x00000000000009b0       0xd8 /home/asmir/Desktop/Dropbox/MCU/nxp/RT1021/projects/alencon-systems/bootloader-v0.3/build/fsl_flexspi.o
                0x00000000000009b0                FLEXSPI_TransferBlocking
 .text.FLEXSPI_DriverIRQHandler
                0x0000000000000a88       0x20 /home/asmir/Desktop/Dropbox/MCU/nxp/RT1021/projects/alencon-systems/bootloader-v0.3/build/fsl_flexspi.o
                0x0000000000000a88                FLEXSPI_DriverIRQHandler
 .text.FLEXSPI_DriverIRQHandler.__stub
                0x0000000000000aa8       0x20 linker stubs
 *(.data)
 *(.data*)
 .data.SystemCoreClock
                0x0000000000000ac8        0x4 /home/asmir/Desktop/Dropbox/MCU/nxp/RT1021/projects/alencon-systems/bootloader-v0.3/build/system_MIMXRT1021.o
                0x0000000000000ac8                SystemCoreClock
 .data.timer_enabled
                0x0000000000000acc        0x1 /home/asmir/Desktop/Dropbox/MCU/nxp/RT1021/projects/alencon-systems/bootloader-v0.3/build/timing.o
                0x0000000000000acc                timer_enabled
 *fill*         0x0000000000000acd        0x3 
 .data.deviceconfig
                0x0000000000000ad0       0x20 /home/asmir/Desktop/Dropbox/MCU/nxp/RT1021/projects/alencon-systems/bootloader-v0.3/build/flexspi_nor_flash_ops.o
                0x0000000000000ad0                deviceconfig
 .data._next_location
                0x0000000000000af0        0x4 /home/asmir/Desktop/Dropbox/MCU/nxp/RT1021/projects/alencon-systems/bootloader-v0.3/build/hal_eeprom.o
 .data.eeprom_data1
                0x0000000000000af4        0x4 /home/asmir/Desktop/Dropbox/MCU/nxp/RT1021/projects/alencon-systems/bootloader-v0.3/build/hal_eeprom.o
                0x0000000000000af4                eeprom_data1
 .data.eeprom_data2
                0x0000000000000af8        0x4 /home/asmir/Desktop/Dropbox/MCU/nxp/RT1021/projects/alencon-systems/bootloader-v0.3/build/hal_eeprom.o
                0x0000000000000af8                eeprom_data2
 .data.i.9925   0x0000000000000afc        0x2 /home/asmir/Desktop/Dropbox/MCU/nxp/RT1021/projects/alencon-systems/bootloader-v0.3/build/list.o
 .data.eMBState
                0x0000000000000afe        0x1 /home/asmir/Desktop/Dropbox/MCU/nxp/RT1021/projects/alencon-systems/bootloader-v0.3/build/mb.o
 *fill*         0x0000000000000aff        0x1 
 .data.xFuncHandlers
                0x0000000000000b00       0x80 /home/asmir/Desktop/Dropbox/MCU/nxp/RT1021/projects/alencon-systems/bootloader-v0.3/build/mb.o
 .data.modbus_address
                0x0000000000000b80        0x1 /home/asmir/Desktop/Dropbox/MCU/nxp/RT1021/projects/alencon-systems/bootloader-v0.3/build/AlenconModbus.o
 *fill*         0x0000000000000b81        0x3 
 .data.modbus_baud_rate
                0x0000000000000b84        0x4 /home/asmir/Desktop/Dropbox/MCU/nxp/RT1021/projects/alencon-systems/bootloader-v0.3/build/AlenconModbus.o
 .data.last_address.13222
                0x0000000000000b88        0x4 /home/asmir/Desktop/Dropbox/MCU/nxp/RT1021/projects/alencon-systems/bootloader-v0.3/build/AlenconModbusBootloader.o
 .data.str_app_ok
                0x0000000000000b8c        0x8 /home/asmir/Desktop/Dropbox/MCU/nxp/RT1021/projects/alencon-systems/bootloader-v0.3/build/AlenconModbusBootloader.o
                0x0000000000000b8c                str_app_ok
 .data.timeout_ms
                0x0000000000000b94        0x4 /home/asmir/Desktop/Dropbox/MCU/nxp/RT1021/projects/alencon-systems/bootloader-v0.3/build/mbporttimer.o
 .data._impure_ptr
                0x0000000000000b98        0x4 /home/asmir/Desktop/Dropbox/MCU/gcc/gcc-arm-none-eabi-7-2018-q2-update/bin/../lib/gcc/arm-none-eabi/7.3.1/../../../../arm-none-eabi/lib/thumb/v7e-m/fpv4-sp/hard/libc.a(lib_a-impure.o)
                0x0000000000000b98                _impure_ptr
 *fill*         0x0000000000000b9c        0x4 
 .data.impure_data
                0x0000000000000ba0      0x428 /home/asmir/Desktop/Dropbox/MCU/gcc/gcc-arm-none-eabi-7-2018-q2-update/bin/../lib/gcc/arm-none-eabi/7.3.1/../../../../arm-none-eabi/lib/thumb/v7e-m/fpv4-sp/hard/libc.a(lib_a-impure.o)
 .data.__malloc_av_
                0x0000000000000fc8      0x408 /home/asmir/Desktop/Dropbox/MCU/gcc/gcc-arm-none-eabi-7-2018-q2-update/bin/../lib/gcc/arm-none-eabi/7.3.1/../../../../arm-none-eabi/lib/thumb/v7e-m/fpv4-sp/hard/libc.a(lib_a-mallocr.o)
                0x0000000000000fc8                __malloc_av_
 .data.__malloc_sbrk_base
                0x00000000000013d0        0x4 /home/asmir/Desktop/Dropbox/MCU/gcc/gcc-arm-none-eabi-7-2018-q2-update/bin/../lib/gcc/arm-none-eabi/7.3.1/../../../../arm-none-eabi/lib/thumb/v7e-m/fpv4-sp/hard/libc.a(lib_a-mallocr.o)
                0x00000000000013d0                __malloc_sbrk_base
 .data.__malloc_trim_threshold
                0x00000000000013d4        0x4 /home/asmir/Desktop/Dropbox/MCU/gcc/gcc-arm-none-eabi-7-2018-q2-update/bin/../lib/gcc/arm-none-eabi/7.3.1/../../../../arm-none-eabi/lib/thumb/v7e-m/fpv4-sp/hard/libc.a(lib_a-mallocr.o)
                0x00000000000013d4                __malloc_trim_threshold
 .data.__atexit_recursive_mutex
                0x00000000000013d8        0x4 /home/asmir/Desktop/Dropbox/MCU/gcc/gcc-arm-none-eabi-7-2018-q2-update/bin/../lib/gcc/arm-none-eabi/7.3.1/../../../../arm-none-eabi/lib/thumb/v7e-m/fpv4-sp/hard/libc.a(lib_a-__call_atexit.o)
                0x00000000000013d8                __atexit_recursive_mutex
 .data.__global_locale
                0x00000000000013dc      0x16c /home/asmir/Desktop/Dropbox/MCU/gcc/gcc-arm-none-eabi-7-2018-q2-update/bin/../lib/gcc/arm-none-eabi/7.3.1/../../../../arm-none-eabi/lib/thumb/v7e-m/fpv4-sp/hard/libc.a(lib_a-locale.o)
                0x00000000000013dc                __global_locale
                0x0000000000001548                . = ALIGN (0x4)
                0x0000000000001548                __flexspi_end__ = .
                0x0000000060002000                __VECTOR_RAM = DEFINED (__ram_vector_table__)?__VECTOR_RAM__:ORIGIN (m_interrupts)
                0x0000000000000000                __RAM_VECTOR_TABLE_SIZE_BYTES = DEFINED (__ram_vector_table__)?(__interrupts_ram_end__ - __interrupts_ram_start__):0x0

.data           0x0000000020000000        0x0 load address 0x0000000060008624
                0x0000000020000000                . = ALIGN (0x4)
                0x0000000020000000                __DATA_RAM = .
                0x0000000020000000                __data_start__ = .
 *(m_usb_dma_init_data)
 *(DataQuickAccess)
 *(.jcr*)
                0x0000000020000000                . = ALIGN (0x4)
                0x0000000020000000                __data_end__ = .
                0x0000000060008624                __ram_function_flash_start = (__DATA_ROM + (__data_end__ - __data_start__))

.igot.plt       0x0000000020000000        0x0
 .igot.plt      0x0000000020000000        0x0 /home/asmir/Desktop/Dropbox/MCU/gcc/gcc-arm-none-eabi-7-2018-q2-update/bin/../lib/gcc/arm-none-eabi/7.3.1/thumb/v7e-m/fpv4-sp/hard/crtbegin.o

.ram_function   0x0000000000001548       0x38 load address 0x0000000060008624
                0x0000000000001560                . = ALIGN (0x20)
 *fill*         0x0000000000001548       0x18 
                0x0000000000001560                __ram_function_start__ = .
 *(CodeQuickAccess)
                0x0000000000001580                . = ALIGN (0x80)
 *fill*         0x0000000000001560       0x20 
                0x0000000000001580                __ram_function_end__ = .
                0x0000000060008644                __NDATA_ROM = (__ram_function_flash_start + (__ram_function_end__ - __ram_function_start__))

.ncache.init    0x0000000020000000        0x0 load address 0x0000000060008644
                0x0000000020000000                __noncachedata_start__ = .
 *(NonCacheable.init)
                0x0000000020000000                . = ALIGN (0x4)
                0x0000000020000000                __noncachedata_init_end__ = .
                0x0000000020000000                . = __noncachedata_init_end__

.ncache         0x0000000020000000        0x0
 *(NonCacheable)
                0x0000000020000000                . = ALIGN (0x4)
                0x0000000020000000                __noncachedata_end__ = .
                0x0000000060008644                __DATA_END = (__NDATA_ROM + (__noncachedata_init_end__ - __noncachedata_start__))
                0x0000000060010000                text_end = (ORIGIN (m_text) + LENGTH (m_text))
                0x0000000000000001                ASSERT ((__DATA_END <= text_end), region m_text overflowed with text and data)

.bss            0x0000000020000000     0x23a0
                0x0000000020000000                . = ALIGN (0x4)
                0x0000000020000000                __START_BSS = .
                0x0000000020000000                __bss_start__ = .
 *(m_usb_dma_noninit_data)
 *(.bss)
 .bss           0x0000000020000000       0x1c /home/asmir/Desktop/Dropbox/MCU/gcc/gcc-arm-none-eabi-7-2018-q2-update/bin/../lib/gcc/arm-none-eabi/7.3.1/thumb/v7e-m/fpv4-sp/hard/crtbegin.o
 *(.bss*)
 .bss.g_DEBUG_INFO
                0x000000002000001c       0x11 /home/asmir/Desktop/Dropbox/MCU/nxp/RT1021/projects/alencon-systems/bootloader-v0.3/build/debug.o
                0x000000002000001c                g_DEBUG_INFO
 *fill*         0x000000002000002d        0x3 
 .bss.g_rtcXtalFreq
                0x0000000020000030        0x4 /home/asmir/Desktop/Dropbox/MCU/nxp/RT1021/projects/alencon-systems/bootloader-v0.3/build/fsl_clock.o
                0x0000000020000030                g_rtcXtalFreq
 .bss.g_xtalFreq
                0x0000000020000034        0x4 /home/asmir/Desktop/Dropbox/MCU/nxp/RT1021/projects/alencon-systems/bootloader-v0.3/build/fsl_clock.o
                0x0000000020000034                g_xtalFreq
 .bss.heap_end.5954
                0x0000000020000038        0x4 /home/asmir/Desktop/Dropbox/MCU/nxp/RT1021/projects/alencon-systems/bootloader-v0.3/build/fsl_sbrk.o
 .bss.init_flag.9508
                0x000000002000003c        0x1 /home/asmir/Desktop/Dropbox/MCU/nxp/RT1021/projects/alencon-systems/bootloader-v0.3/build/timing.o
 *fill*         0x000000002000003d        0x3 
 .bss.rollover_time
                0x0000000020000040        0x4 /home/asmir/Desktop/Dropbox/MCU/nxp/RT1021/projects/alencon-systems/bootloader-v0.3/build/timing.o
                0x0000000020000040                rollover_time
 .bss.time_ms   0x0000000020000044        0x4 /home/asmir/Desktop/Dropbox/MCU/nxp/RT1021/projects/alencon-systems/bootloader-v0.3/build/timing.o
                0x0000000020000044                time_ms
 .bss.time_ms_ungated
                0x0000000020000048        0x4 /home/asmir/Desktop/Dropbox/MCU/nxp/RT1021/projects/alencon-systems/bootloader-v0.3/build/timing.o
                0x0000000020000048                time_ms_ungated
 .bss.s_flexspiHandle
                0x000000002000004c        0x4 /home/asmir/Desktop/Dropbox/MCU/nxp/RT1021/projects/alencon-systems/bootloader-v0.3/build/fsl_flexspi.o
 .bss.s_flexspiIsr
                0x0000000020000050        0x4 /home/asmir/Desktop/Dropbox/MCU/nxp/RT1021/projects/alencon-systems/bootloader-v0.3/build/fsl_flexspi.o
 .bss.data_page_ptr
                0x0000000020000054        0x4 /home/asmir/Desktop/Dropbox/MCU/nxp/RT1021/projects/alencon-systems/bootloader-v0.3/build/hal_eeprom.o
 .bss.initialized.11637
                0x0000000020000058        0x1 /home/asmir/Desktop/Dropbox/MCU/nxp/RT1021/projects/alencon-systems/bootloader-v0.3/build/hal_eeprom.o
 .bss.initialized.11531
                0x0000000020000059        0x1 /home/asmir/Desktop/Dropbox/MCU/nxp/RT1021/projects/alencon-systems/bootloader-v0.3/build/eeprom.o
 .bss.error_flags
                0x000000002000005a        0x1 /home/asmir/Desktop/Dropbox/MCU/nxp/RT1021/projects/alencon-systems/bootloader-v0.3/build/uart.o
                0x000000002000005a                error_flags
 .bss.init_flag.9714
                0x000000002000005b        0x1 /home/asmir/Desktop/Dropbox/MCU/nxp/RT1021/projects/alencon-systems/bootloader-v0.3/build/uart.o
 .bss.receiverList1
                0x000000002000005c        0x8 /home/asmir/Desktop/Dropbox/MCU/nxp/RT1021/projects/alencon-systems/bootloader-v0.3/build/uart.o
                0x000000002000005c                receiverList1
 .bss.receiverList2
                0x0000000020000064        0x8 /home/asmir/Desktop/Dropbox/MCU/nxp/RT1021/projects/alencon-systems/bootloader-v0.3/build/uart.o
                0x0000000020000064                receiverList2
 .bss.receiver_array1
                0x000000002000006c       0x10 /home/asmir/Desktop/Dropbox/MCU/nxp/RT1021/projects/alencon-systems/bootloader-v0.3/build/uart.o
                0x000000002000006c                receiver_array1
 .bss.receiver_array2
                0x000000002000007c       0x10 /home/asmir/Desktop/Dropbox/MCU/nxp/RT1021/projects/alencon-systems/bootloader-v0.3/build/uart.o
                0x000000002000007c                receiver_array2
 .bss.rx1       0x000000002000008c       0x1c /home/asmir/Desktop/Dropbox/MCU/nxp/RT1021/projects/alencon-systems/bootloader-v0.3/build/uart.o
                0x000000002000008c                rx1
 .bss.rx2       0x00000000200000a8       0x1c /home/asmir/Desktop/Dropbox/MCU/nxp/RT1021/projects/alencon-systems/bootloader-v0.3/build/uart.o
                0x00000000200000a8                rx2
 .bss.rx_buffer_array1
                0x00000000200000c4      0x100 /home/asmir/Desktop/Dropbox/MCU/nxp/RT1021/projects/alencon-systems/bootloader-v0.3/build/uart.o
                0x00000000200000c4                rx_buffer_array1
 .bss.rx_buffer_array2
                0x00000000200001c4      0x100 /home/asmir/Desktop/Dropbox/MCU/nxp/RT1021/projects/alencon-systems/bootloader-v0.3/build/uart.o
                0x00000000200001c4                rx_buffer_array2
 .bss.rx_flags  0x00000000200002c4        0x1 /home/asmir/Desktop/Dropbox/MCU/nxp/RT1021/projects/alencon-systems/bootloader-v0.3/build/uart.o
                0x00000000200002c4                rx_flags
 *fill*         0x00000000200002c5        0x3 
 .bss.tx1       0x00000000200002c8       0x1c /home/asmir/Desktop/Dropbox/MCU/nxp/RT1021/projects/alencon-systems/bootloader-v0.3/build/uart.o
                0x00000000200002c8                tx1
 .bss.tx2       0x00000000200002e4       0x1c /home/asmir/Desktop/Dropbox/MCU/nxp/RT1021/projects/alencon-systems/bootloader-v0.3/build/uart.o
                0x00000000200002e4                tx2
 .bss.tx_buffer_array1
                0x0000000020000300      0x100 /home/asmir/Desktop/Dropbox/MCU/nxp/RT1021/projects/alencon-systems/bootloader-v0.3/build/uart.o
                0x0000000020000300                tx_buffer_array1
 .bss.tx_buffer_array2
                0x0000000020000400      0x100 /home/asmir/Desktop/Dropbox/MCU/nxp/RT1021/projects/alencon-systems/bootloader-v0.3/build/uart.o
                0x0000000020000400                tx_buffer_array2
 .bss.uart      0x0000000020000500       0x3c /home/asmir/Desktop/Dropbox/MCU/nxp/RT1021/projects/alencon-systems/bootloader-v0.3/build/uart.o
                0x0000000020000500                uart
 .bss.idle_task
                0x000000002000053c        0x4 /home/asmir/Desktop/Dropbox/MCU/nxp/RT1021/projects/alencon-systems/bootloader-v0.3/build/task.o
                0x000000002000053c                idle_task
 .bss.init_flag.9632
                0x0000000020000540        0x1 /home/asmir/Desktop/Dropbox/MCU/nxp/RT1021/projects/alencon-systems/bootloader-v0.3/build/task.o
 *fill*         0x0000000020000541        0x3 
 .bss.task_list
                0x0000000020000544       0x34 /home/asmir/Desktop/Dropbox/MCU/nxp/RT1021/projects/alencon-systems/bootloader-v0.3/build/task.o
                0x0000000020000544                task_list
 .bss.task_list_array
                0x0000000020000578      0x140 /home/asmir/Desktop/Dropbox/MCU/nxp/RT1021/projects/alencon-systems/bootloader-v0.3/build/task.o
                0x0000000020000578                task_list_array
 .bss.task_list_links
                0x00000000200006b8       0xf0 /home/asmir/Desktop/Dropbox/MCU/nxp/RT1021/projects/alencon-systems/bootloader-v0.3/build/task.o
                0x00000000200006b8                task_list_links
 .bss.init_flag.11554
                0x00000000200007a8        0x1 /home/asmir/Desktop/Dropbox/MCU/nxp/RT1021/projects/alencon-systems/bootloader-v0.3/build/subsys.o
 *fill*         0x00000000200007a9        0x3 
 .bss.length.11582
                0x00000000200007ac        0x4 /home/asmir/Desktop/Dropbox/MCU/nxp/RT1021/projects/alencon-systems/bootloader-v0.3/build/subsys.o
 .bss.receive_buffer
                0x00000000200007b0       0x40 /home/asmir/Desktop/Dropbox/MCU/nxp/RT1021/projects/alencon-systems/bootloader-v0.3/build/subsys.o
                0x00000000200007b0                receive_buffer
 .bss.receive_state.11581
                0x00000000200007f0        0x1 /home/asmir/Desktop/Dropbox/MCU/nxp/RT1021/projects/alencon-systems/bootloader-v0.3/build/subsys.o
 *fill*         0x00000000200007f1        0x3 
 .bss.sys       0x00000000200007f4       0xac /home/asmir/Desktop/Dropbox/MCU/nxp/RT1021/projects/alencon-systems/bootloader-v0.3/build/subsys.o
                0x00000000200007f4                sys
 .bss.JumpAddress
                0x00000000200008a0        0x4 /home/asmir/Desktop/Dropbox/MCU/nxp/RT1021/projects/alencon-systems/bootloader-v0.3/build/bootloader.o
                0x00000000200008a0                JumpAddress
 .bss.Jump_To_Application
                0x00000000200008a4        0x4 /home/asmir/Desktop/Dropbox/MCU/nxp/RT1021/projects/alencon-systems/bootloader-v0.3/build/bootloader.o
                0x00000000200008a4                Jump_To_Application
 .bss.jump_to_app
                0x00000000200008a8        0x1 /home/asmir/Desktop/Dropbox/MCU/nxp/RT1021/projects/alencon-systems/bootloader-v0.3/build/bootloader.o
 *fill*         0x00000000200008a9        0x3 
 .bss.status_led_time.12879
                0x00000000200008ac        0x4 /home/asmir/Desktop/Dropbox/MCU/nxp/RT1021/projects/alencon-systems/bootloader-v0.3/build/bootloader.o
 .bss.mcu_info.9833
                0x00000000200008b0        0x6 /home/asmir/Desktop/Dropbox/MCU/nxp/RT1021/projects/alencon-systems/bootloader-v0.3/build/hardware.o
 *fill*         0x00000000200008b6        0x2 
 .bss.RS485_UART_INSTANCE
                0x00000000200008b8        0x4 /home/asmir/Desktop/Dropbox/MCU/nxp/RT1021/projects/alencon-systems/bootloader-v0.3/build/RS485Serial.o
 .bss._rs485_tx_complete_callback
                0x00000000200008bc        0x4 /home/asmir/Desktop/Dropbox/MCU/nxp/RT1021/projects/alencon-systems/bootloader-v0.3/build/RS485Serial.o
 .bss.g_RS485_FIFO
                0x00000000200008c0      0x404 /home/asmir/Desktop/Dropbox/MCU/nxp/RT1021/projects/alencon-systems/bootloader-v0.3/build/RS485Serial.o
                0x00000000200008c0                g_RS485_FIFO
 .bss.init_state.11525
                0x0000000020000cc4        0x1 /home/asmir/Desktop/Dropbox/MCU/nxp/RT1021/projects/alencon-systems/bootloader-v0.3/build/RS485Serial.o
 *fill*         0x0000000020000cc5        0x3 
 .bss.ucMBSlaveID
                0x0000000020000cc8       0x20 /home/asmir/Desktop/Dropbox/MCU/nxp/RT1021/projects/alencon-systems/bootloader-v0.3/build/mbfuncother.o
 .bss.usMBSlaveIDLen
                0x0000000020000ce8        0x2 /home/asmir/Desktop/Dropbox/MCU/nxp/RT1021/projects/alencon-systems/bootloader-v0.3/build/mbfuncother.o
 .bss.eException.12885
                0x0000000020000cea        0x1 /home/asmir/Desktop/Dropbox/MCU/nxp/RT1021/projects/alencon-systems/bootloader-v0.3/build/mb.o
 .bss.eMBCurrentMode
                0x0000000020000ceb        0x1 /home/asmir/Desktop/Dropbox/MCU/nxp/RT1021/projects/alencon-systems/bootloader-v0.3/build/mb.o
 .bss.peMBFrameReceiveCur
                0x0000000020000cec        0x4 /home/asmir/Desktop/Dropbox/MCU/nxp/RT1021/projects/alencon-systems/bootloader-v0.3/build/mb.o
 .bss.peMBFrameSendCur
                0x0000000020000cf0        0x4 /home/asmir/Desktop/Dropbox/MCU/nxp/RT1021/projects/alencon-systems/bootloader-v0.3/build/mb.o
 .bss.pvMBFrameCloseCur
                0x0000000020000cf4        0x4 /home/asmir/Desktop/Dropbox/MCU/nxp/RT1021/projects/alencon-systems/bootloader-v0.3/build/mb.o
 .bss.pvMBFrameStartCur
                0x0000000020000cf8        0x4 /home/asmir/Desktop/Dropbox/MCU/nxp/RT1021/projects/alencon-systems/bootloader-v0.3/build/mb.o
 .bss.pvMBFrameStopCur
                0x0000000020000cfc        0x4 /home/asmir/Desktop/Dropbox/MCU/nxp/RT1021/projects/alencon-systems/bootloader-v0.3/build/mb.o
 .bss.pxMBFrameCBByteReceived
                0x0000000020000d00        0x4 /home/asmir/Desktop/Dropbox/MCU/nxp/RT1021/projects/alencon-systems/bootloader-v0.3/build/mb.o
                0x0000000020000d00                pxMBFrameCBByteReceived
 .bss.pxMBFrameCBTransmitterEmpty
                0x0000000020000d04        0x4 /home/asmir/Desktop/Dropbox/MCU/nxp/RT1021/projects/alencon-systems/bootloader-v0.3/build/mb.o
                0x0000000020000d04                pxMBFrameCBTransmitterEmpty
 .bss.pxMBPortCBTimerExpired
                0x0000000020000d08        0x4 /home/asmir/Desktop/Dropbox/MCU/nxp/RT1021/projects/alencon-systems/bootloader-v0.3/build/mb.o
                0x0000000020000d08                pxMBPortCBTimerExpired
 .bss.ucFunctionCode.12883
                0x0000000020000d0c        0x1 /home/asmir/Desktop/Dropbox/MCU/nxp/RT1021/projects/alencon-systems/bootloader-v0.3/build/mb.o
 .bss.ucMBAddress
                0x0000000020000d0d        0x1 /home/asmir/Desktop/Dropbox/MCU/nxp/RT1021/projects/alencon-systems/bootloader-v0.3/build/mb.o
 *fill*         0x0000000020000d0e        0x2 
 .bss.ucMBFrame.12881
                0x0000000020000d10        0x4 /home/asmir/Desktop/Dropbox/MCU/nxp/RT1021/projects/alencon-systems/bootloader-v0.3/build/mb.o
 .bss.ucRcvAddress.12882
                0x0000000020000d14        0x1 /home/asmir/Desktop/Dropbox/MCU/nxp/RT1021/projects/alencon-systems/bootloader-v0.3/build/mb.o
 *fill*         0x0000000020000d15        0x1 
 .bss.usLength.12884
                0x0000000020000d16        0x2 /home/asmir/Desktop/Dropbox/MCU/nxp/RT1021/projects/alencon-systems/bootloader-v0.3/build/mb.o
 .bss.holding_registers
                0x0000000020000d18      0x400 /home/asmir/Desktop/Dropbox/MCU/nxp/RT1021/projects/alencon-systems/bootloader-v0.3/build/AlenconModbus.o
                0x0000000020000d18                holding_registers
 .bss.holding_registers_n
                0x0000000020001118        0x2 /home/asmir/Desktop/Dropbox/MCU/nxp/RT1021/projects/alencon-systems/bootloader-v0.3/build/AlenconModbus.o
                0x0000000020001118                holding_registers_n
 *fill*         0x000000002000111a        0x2 
 .bss.input_sources
                0x000000002000111c       0x80 /home/asmir/Desktop/Dropbox/MCU/nxp/RT1021/projects/alencon-systems/bootloader-v0.3/build/AlenconModbus.o
                0x000000002000111c                input_sources
 .bss.input_sources_n
                0x000000002000119c        0x2 /home/asmir/Desktop/Dropbox/MCU/nxp/RT1021/projects/alencon-systems/bootloader-v0.3/build/AlenconModbus.o
                0x000000002000119c                input_sources_n
 .bss.modbus_state
                0x000000002000119e        0x1 /home/asmir/Desktop/Dropbox/MCU/nxp/RT1021/projects/alencon-systems/bootloader-v0.3/build/AlenconModbus.o
 *fill*         0x000000002000119f        0x1 
 .bss._firmware_crc
                0x00000000200011a0        0x4 /home/asmir/Desktop/Dropbox/MCU/nxp/RT1021/projects/alencon-systems/bootloader-v0.3/build/AlenconModbusBootloader.o
 .bss.block_data_holding_registers
                0x00000000200011a4      0x804 /home/asmir/Desktop/Dropbox/MCU/nxp/RT1021/projects/alencon-systems/bootloader-v0.3/build/AlenconModbusBootloader.o
 .bss.block_data_holding_registers_backup
                0x00000000200019a8      0x804 /home/asmir/Desktop/Dropbox/MCU/nxp/RT1021/projects/alencon-systems/bootloader-v0.3/build/AlenconModbusBootloader.o
 .bss.corrupt_block_crc
                0x00000000200021ac        0x1 /home/asmir/Desktop/Dropbox/MCU/nxp/RT1021/projects/alencon-systems/bootloader-v0.3/build/AlenconModbusBootloader.o
 .bss.corrupt_firmware_crc
                0x00000000200021ad        0x1 /home/asmir/Desktop/Dropbox/MCU/nxp/RT1021/projects/alencon-systems/bootloader-v0.3/build/AlenconModbusBootloader.o
 *fill*         0x00000000200021ae        0x2 
 .bss.end_of_firmware_holding_registers
                0x00000000200021b0        0xa /home/asmir/Desktop/Dropbox/MCU/nxp/RT1021/projects/alencon-systems/bootloader-v0.3/build/AlenconModbusBootloader.o
 .bss.erase_block_flag
                0x00000000200021ba        0x1 /home/asmir/Desktop/Dropbox/MCU/nxp/RT1021/projects/alencon-systems/bootloader-v0.3/build/AlenconModbusBootloader.o
 *fill*         0x00000000200021bb        0x1 
 .bss.firmware_start_update_holding_register
                0x00000000200021bc        0x2 /home/asmir/Desktop/Dropbox/MCU/nxp/RT1021/projects/alencon-systems/bootloader-v0.3/build/AlenconModbusBootloader.o
 *fill*         0x00000000200021be        0x2 
 .bss.firmware_version_holding_registers
                0x00000000200021c0       0x10 /home/asmir/Desktop/Dropbox/MCU/nxp/RT1021/projects/alencon-systems/bootloader-v0.3/build/AlenconModbusBootloader.o
 .bss.firmware_write_block_holding_registers
                0x00000000200021d0       0x12 /home/asmir/Desktop/Dropbox/MCU/nxp/RT1021/projects/alencon-systems/bootloader-v0.3/build/AlenconModbusBootloader.o
 *fill*         0x00000000200021e2        0x6 
 .bss.guid      0x00000000200021e8        0x8 /home/asmir/Desktop/Dropbox/MCU/nxp/RT1021/projects/alencon-systems/bootloader-v0.3/build/AlenconModbusBootloader.o
 .bss.guid_written_flag
                0x00000000200021f0        0x1 /home/asmir/Desktop/Dropbox/MCU/nxp/RT1021/projects/alencon-systems/bootloader-v0.3/build/AlenconModbusBootloader.o
 *fill*         0x00000000200021f1        0x3 
 .bss.index_holding_registers
                0x00000000200021f4        0x6 /home/asmir/Desktop/Dropbox/MCU/nxp/RT1021/projects/alencon-systems/bootloader-v0.3/build/AlenconModbusBootloader.o
 *fill*         0x00000000200021fa        0x2 
 .bss.jump_to_app_timestamp
                0x00000000200021fc        0x4 /home/asmir/Desktop/Dropbox/MCU/nxp/RT1021/projects/alencon-systems/bootloader-v0.3/build/AlenconModbusBootloader.o
                0x00000000200021fc                jump_to_app_timestamp
 .bss.last_erase_address
                0x0000000020002200        0x4 /home/asmir/Desktop/Dropbox/MCU/nxp/RT1021/projects/alencon-systems/bootloader-v0.3/build/AlenconModbusBootloader.o
                0x0000000020002200                last_erase_address
 .bss.modbus_map_version_product_code_and_mcu_code
                0x0000000020002204        0x6 /home/asmir/Desktop/Dropbox/MCU/nxp/RT1021/projects/alencon-systems/bootloader-v0.3/build/AlenconModbusBootloader.o
 .bss.num_partial_writes
                0x000000002000220a        0x2 /home/asmir/Desktop/Dropbox/MCU/nxp/RT1021/projects/alencon-systems/bootloader-v0.3/build/AlenconModbusBootloader.o
 .bss.partial_write_index
                0x000000002000220c        0x2 /home/asmir/Desktop/Dropbox/MCU/nxp/RT1021/projects/alencon-systems/bootloader-v0.3/build/AlenconModbusBootloader.o
 *fill*         0x000000002000220e        0x2 
 .bss.provisioning_holding_registers
                0x0000000020002210       0x12 /home/asmir/Desktop/Dropbox/MCU/nxp/RT1021/projects/alencon-systems/bootloader-v0.3/build/AlenconModbusBootloader.o
 .bss.reset_mcu_holding_register
                0x0000000020002222        0x2 /home/asmir/Desktop/Dropbox/MCU/nxp/RT1021/projects/alencon-systems/bootloader-v0.3/build/AlenconModbusBootloader.o
 .bss.reset_update_state_holding_register
                0x0000000020002224        0x2 /home/asmir/Desktop/Dropbox/MCU/nxp/RT1021/projects/alencon-systems/bootloader-v0.3/build/AlenconModbusBootloader.o
 *fill*         0x0000000020002226        0x2 
 .bss.status_ptr
                0x0000000020002228        0x4 /home/asmir/Desktop/Dropbox/MCU/nxp/RT1021/projects/alencon-systems/bootloader-v0.3/build/AlenconModbusBootloader.o
 .bss.sys_id    0x000000002000222c        0x1 /home/asmir/Desktop/Dropbox/MCU/nxp/RT1021/projects/alencon-systems/bootloader-v0.3/build/AlenconModbusBootloader.o
 .bss.write_flash_flag
                0x000000002000222d        0x1 /home/asmir/Desktop/Dropbox/MCU/nxp/RT1021/projects/alencon-systems/bootloader-v0.3/build/AlenconModbusBootloader.o
 .bss.eQueuedEvent
                0x000000002000222e        0x1 /home/asmir/Desktop/Dropbox/MCU/nxp/RT1021/projects/alencon-systems/bootloader-v0.3/build/mbportevent.o
 .bss.xEventInQueue
                0x000000002000222f        0x1 /home/asmir/Desktop/Dropbox/MCU/nxp/RT1021/projects/alencon-systems/bootloader-v0.3/build/mbportevent.o
 .bss.ulNesting
                0x0000000020002230        0x4 /home/asmir/Desktop/Dropbox/MCU/nxp/RT1021/projects/alencon-systems/bootloader-v0.3/build/mbportother.o
 .bss.current_time_stamp
                0x0000000020002234        0x4 /home/asmir/Desktop/Dropbox/MCU/nxp/RT1021/projects/alencon-systems/bootloader-v0.3/build/mbporttimer.o
 .bss.timmer_enabled
                0x0000000020002238        0x4 /home/asmir/Desktop/Dropbox/MCU/nxp/RT1021/projects/alencon-systems/bootloader-v0.3/build/mbporttimer.o
 .bss.eRcvState
                0x000000002000223c        0x1 /home/asmir/Desktop/Dropbox/MCU/nxp/RT1021/projects/alencon-systems/bootloader-v0.3/build/DCDC_mbrtu.o
 .bss.eSndState
                0x000000002000223d        0x1 /home/asmir/Desktop/Dropbox/MCU/nxp/RT1021/projects/alencon-systems/bootloader-v0.3/build/DCDC_mbrtu.o
 .bss.rx_msg_length
                0x000000002000223e        0x2 /home/asmir/Desktop/Dropbox/MCU/nxp/RT1021/projects/alencon-systems/bootloader-v0.3/build/DCDC_mbrtu.o
 .bss.ucRTUBuf  0x0000000020002240      0x100 /home/asmir/Desktop/Dropbox/MCU/nxp/RT1021/projects/alencon-systems/bootloader-v0.3/build/DCDC_mbrtu.o
                0x0000000020002240                ucRTUBuf
 .bss.usRcvBufferPos
                0x0000000020002340        0x2 /home/asmir/Desktop/Dropbox/MCU/nxp/RT1021/projects/alencon-systems/bootloader-v0.3/build/DCDC_mbrtu.o
 .bss.usSndBufferCount
                0x0000000020002342        0x2 /home/asmir/Desktop/Dropbox/MCU/nxp/RT1021/projects/alencon-systems/bootloader-v0.3/build/DCDC_mbrtu.o
 .bss.__malloc_current_mallinfo
                0x0000000020002344       0x28 /home/asmir/Desktop/Dropbox/MCU/gcc/gcc-arm-none-eabi-7-2018-q2-update/bin/../lib/gcc/arm-none-eabi/7.3.1/../../../../arm-none-eabi/lib/thumb/v7e-m/fpv4-sp/hard/libc.a(lib_a-mallocr.o)
                0x0000000020002344                __malloc_current_mallinfo
 .bss.__malloc_max_sbrked_mem
                0x000000002000236c        0x4 /home/asmir/Desktop/Dropbox/MCU/gcc/gcc-arm-none-eabi-7-2018-q2-update/bin/../lib/gcc/arm-none-eabi/7.3.1/../../../../arm-none-eabi/lib/thumb/v7e-m/fpv4-sp/hard/libc.a(lib_a-mallocr.o)
                0x000000002000236c                __malloc_max_sbrked_mem
 .bss.__malloc_max_total_mem
                0x0000000020002370        0x4 /home/asmir/Desktop/Dropbox/MCU/gcc/gcc-arm-none-eabi-7-2018-q2-update/bin/../lib/gcc/arm-none-eabi/7.3.1/../../../../arm-none-eabi/lib/thumb/v7e-m/fpv4-sp/hard/libc.a(lib_a-mallocr.o)
                0x0000000020002370                __malloc_max_total_mem
 .bss.__malloc_top_pad
                0x0000000020002374        0x4 /home/asmir/Desktop/Dropbox/MCU/gcc/gcc-arm-none-eabi-7-2018-q2-update/bin/../lib/gcc/arm-none-eabi/7.3.1/../../../../arm-none-eabi/lib/thumb/v7e-m/fpv4-sp/hard/libc.a(lib_a-mallocr.o)
                0x0000000020002374                __malloc_top_pad
 *(COMMON)
 COMMON         0x0000000020002378       0x21 /home/asmir/Desktop/Dropbox/MCU/gcc/gcc-arm-none-eabi-7-2018-q2-update/bin/../lib/gcc/arm-none-eabi/7.3.1/../../../../arm-none-eabi/lib/thumb/v7e-m/fpv4-sp/hard/libc.a(lib_a-lock.o)
                0x0000000020002378                __lock___atexit_recursive_mutex
                0x000000002000237c                __lock___arc4random_mutex
                0x0000000020002380                __lock___env_recursive_mutex
                0x0000000020002384                __lock___sinit_recursive_mutex
                0x0000000020002388                __lock___malloc_recursive_mutex
                0x000000002000238c                __lock___at_quick_exit_mutex
                0x0000000020002390                __lock___dd_hash_mutex
                0x0000000020002394                __lock___tz_mutex
                0x0000000020002398                __lock___sfp_recursive_mutex
 *fill*         0x0000000020002399        0x3 
 COMMON         0x000000002000239c        0x4 /home/asmir/Desktop/Dropbox/MCU/gcc/gcc-arm-none-eabi-7-2018-q2-update/bin/../lib/gcc/arm-none-eabi/7.3.1/../../../../arm-none-eabi/lib/thumb/v7e-m/fpv4-sp/hard/libc.a(lib_a-reent.o)
                0x000000002000239c                errno
                0x00000000200023a0                . = ALIGN (0x4)
                0x00000000200023a0                __bss_end__ = .
                0x00000000200023a0                __END_BSS = .

.heap           0x00000000200023a0      0x400
                0x00000000200023a0                . = ALIGN (0x8)
                0x00000000200023a0                __end__ = .
                0x00000000200023a0                PROVIDE (end = .)
                0x00000000200023a0                __HeapBase = .
                0x00000000200027a0                . = (. + HEAP_SIZE)
 *fill*         0x00000000200023a0      0x400 
                0x00000000200027a0                __HeapLimit = .
                0x00000000200027a0                __heap_limit = .

.stack          0x00000000200027a0      0x400
                0x00000000200027a0                . = ALIGN (0x8)
                0x0000000020002ba0                . = (. + STACK_SIZE)
 *fill*         0x00000000200027a0      0x400 
                0x0000000020010000                __StackTop = (ORIGIN (m_data) + LENGTH (m_data))
                0x000000002000fc00                __StackLimit = (__StackTop - STACK_SIZE)
                0x0000000020010000                PROVIDE (__stack = __StackTop)

.ARM.attributes
                0x0000000000000000       0x2e
 *(.ARM.attributes)
 .ARM.attributes
                0x0000000000000000       0x22 /home/asmir/Desktop/Dropbox/MCU/gcc/gcc-arm-none-eabi-7-2018-q2-update/bin/../lib/gcc/arm-none-eabi/7.3.1/thumb/v7e-m/fpv4-sp/hard/crti.o
 .ARM.attributes
                0x0000000000000022       0x34 /home/asmir/Desktop/Dropbox/MCU/gcc/gcc-arm-none-eabi-7-2018-q2-update/bin/../lib/gcc/arm-none-eabi/7.3.1/thumb/v7e-m/fpv4-sp/hard/crtbegin.o
 .ARM.attributes
                0x0000000000000056       0x37 /home/asmir/Desktop/Dropbox/MCU/nxp/RT1021/projects/alencon-systems/bootloader-v0.3/build/main.o
 .ARM.attributes
                0x000000000000008d       0x37 /home/asmir/Desktop/Dropbox/MCU/nxp/RT1021/projects/alencon-systems/bootloader-v0.3/build/systemclk.o
 .ARM.attributes
                0x00000000000000c4       0x37 /home/asmir/Desktop/Dropbox/MCU/nxp/RT1021/projects/alencon-systems/bootloader-v0.3/build/delay.o
 .ARM.attributes
                0x00000000000000fb       0x37 /home/asmir/Desktop/Dropbox/MCU/nxp/RT1021/projects/alencon-systems/bootloader-v0.3/build/fwver.o
 .ARM.attributes
                0x0000000000000132       0x37 /home/asmir/Desktop/Dropbox/MCU/nxp/RT1021/projects/alencon-systems/bootloader-v0.3/build/debug.o
 .ARM.attributes
                0x0000000000000169       0x37 /home/asmir/Desktop/Dropbox/MCU/nxp/RT1021/projects/alencon-systems/bootloader-v0.3/build/misc.o
 .ARM.attributes
                0x00000000000001a0       0x37 /home/asmir/Desktop/Dropbox/MCU/nxp/RT1021/projects/alencon-systems/bootloader-v0.3/build/lpuart.o
 .ARM.attributes
                0x00000000000001d7       0x37 /home/asmir/Desktop/Dropbox/MCU/nxp/RT1021/projects/alencon-systems/bootloader-v0.3/build/evkmimxrt1020_flexspi_nor_config.o
 .ARM.attributes
                0x000000000000020e       0x37 /home/asmir/Desktop/Dropbox/MCU/nxp/RT1021/projects/alencon-systems/bootloader-v0.3/build/fsl_clock.o
 .ARM.attributes
                0x0000000000000245       0x37 /home/asmir/Desktop/Dropbox/MCU/nxp/RT1021/projects/alencon-systems/bootloader-v0.3/build/pin_mux.o
 .ARM.attributes
                0x000000000000027c       0x37 /home/asmir/Desktop/Dropbox/MCU/nxp/RT1021/projects/alencon-systems/bootloader-v0.3/build/clock_config.o
 .ARM.attributes
                0x00000000000002b3       0x37 /home/asmir/Desktop/Dropbox/MCU/nxp/RT1021/projects/alencon-systems/bootloader-v0.3/build/system_MIMXRT1021.o
 .ARM.attributes
                0x00000000000002ea       0x37 /home/asmir/Desktop/Dropbox/MCU/nxp/RT1021/projects/alencon-systems/bootloader-v0.3/build/dcd.o
 .ARM.attributes
                0x0000000000000321       0x37 /home/asmir/Desktop/Dropbox/MCU/nxp/RT1021/projects/alencon-systems/bootloader-v0.3/build/fsl_assert.o
 .ARM.attributes
                0x0000000000000358       0x37 /home/asmir/Desktop/Dropbox/MCU/nxp/RT1021/projects/alencon-systems/bootloader-v0.3/build/fsl_flexspi_nor_boot.o
 .ARM.attributes
                0x000000000000038f       0x37 /home/asmir/Desktop/Dropbox/MCU/nxp/RT1021/projects/alencon-systems/bootloader-v0.3/build/fsl_sbrk.o
 .ARM.attributes
                0x00000000000003c6       0x37 /home/asmir/Desktop/Dropbox/MCU/nxp/RT1021/projects/alencon-systems/bootloader-v0.3/build/flash.o
 .ARM.attributes
                0x00000000000003fd       0x37 /home/asmir/Desktop/Dropbox/MCU/nxp/RT1021/projects/alencon-systems/bootloader-v0.3/build/timing.o
 .ARM.attributes
                0x0000000000000434       0x37 /home/asmir/Desktop/Dropbox/MCU/nxp/RT1021/projects/alencon-systems/bootloader-v0.3/build/fsl_flexspi.o
 .ARM.attributes
                0x000000000000046b       0x37 /home/asmir/Desktop/Dropbox/MCU/nxp/RT1021/projects/alencon-systems/bootloader-v0.3/build/flexspi_nor_flash_ops.o
 .ARM.attributes
                0x00000000000004a2       0x37 /home/asmir/Desktop/Dropbox/MCU/nxp/RT1021/projects/alencon-systems/bootloader-v0.3/build/fsl_cache.o
 .ARM.attributes
                0x00000000000004d9       0x37 /home/asmir/Desktop/Dropbox/MCU/nxp/RT1021/projects/alencon-systems/bootloader-v0.3/build/hal_eeprom.o
 .ARM.attributes
                0x0000000000000510       0x37 /home/asmir/Desktop/Dropbox/MCU/nxp/RT1021/projects/alencon-systems/bootloader-v0.3/build/eeprom.o
 .ARM.attributes
                0x0000000000000547       0x37 /home/asmir/Desktop/Dropbox/MCU/nxp/RT1021/projects/alencon-systems/bootloader-v0.3/build/hal_uart.o
 .ARM.attributes
                0x000000000000057e       0x37 /home/asmir/Desktop/Dropbox/MCU/nxp/RT1021/projects/alencon-systems/bootloader-v0.3/build/uart.o
 .ARM.attributes
                0x00000000000005b5       0x37 /home/asmir/Desktop/Dropbox/MCU/nxp/RT1021/projects/alencon-systems/bootloader-v0.3/build/buffer.o
 .ARM.attributes
                0x00000000000005ec       0x37 /home/asmir/Desktop/Dropbox/MCU/nxp/RT1021/projects/alencon-systems/bootloader-v0.3/build/buffer_printf.o
 .ARM.attributes
                0x0000000000000623       0x37 /home/asmir/Desktop/Dropbox/MCU/nxp/RT1021/projects/alencon-systems/bootloader-v0.3/build/task.o
 .ARM.attributes
                0x000000000000065a       0x37 /home/asmir/Desktop/Dropbox/MCU/nxp/RT1021/projects/alencon-systems/bootloader-v0.3/build/list.o
 .ARM.attributes
                0x0000000000000691       0x37 /home/asmir/Desktop/Dropbox/MCU/nxp/RT1021/projects/alencon-systems/bootloader-v0.3/build/crc16.o
 .ARM.attributes
                0x00000000000006c8       0x37 /home/asmir/Desktop/Dropbox/MCU/nxp/RT1021/projects/alencon-systems/bootloader-v0.3/build/subsys.o
 .ARM.attributes
                0x00000000000006ff       0x37 /home/asmir/Desktop/Dropbox/MCU/nxp/RT1021/projects/alencon-systems/bootloader-v0.3/build/bootloader.o
 .ARM.attributes
                0x0000000000000736       0x37 /home/asmir/Desktop/Dropbox/MCU/nxp/RT1021/projects/alencon-systems/bootloader-v0.3/build/hardware.o
 .ARM.attributes
                0x000000000000076d       0x37 /home/asmir/Desktop/Dropbox/MCU/nxp/RT1021/projects/alencon-systems/bootloader-v0.3/build/RS485Serial.o
 .ARM.attributes
                0x00000000000007a4       0x37 /home/asmir/Desktop/Dropbox/MCU/nxp/RT1021/projects/alencon-systems/bootloader-v0.3/build/mbcrc.o
 .ARM.attributes
                0x00000000000007db       0x37 /home/asmir/Desktop/Dropbox/MCU/nxp/RT1021/projects/alencon-systems/bootloader-v0.3/build/mbfunccoils.o
 .ARM.attributes
                0x0000000000000812       0x37 /home/asmir/Desktop/Dropbox/MCU/nxp/RT1021/projects/alencon-systems/bootloader-v0.3/build/mbfuncdisc.o
 .ARM.attributes
                0x0000000000000849       0x37 /home/asmir/Desktop/Dropbox/MCU/nxp/RT1021/projects/alencon-systems/bootloader-v0.3/build/mbfuncholding.o
 .ARM.attributes
                0x0000000000000880       0x37 /home/asmir/Desktop/Dropbox/MCU/nxp/RT1021/projects/alencon-systems/bootloader-v0.3/build/mbfuncinput.o
 .ARM.attributes
                0x00000000000008b7       0x37 /home/asmir/Desktop/Dropbox/MCU/nxp/RT1021/projects/alencon-systems/bootloader-v0.3/build/mbfuncother.o
 .ARM.attributes
                0x00000000000008ee       0x37 /home/asmir/Desktop/Dropbox/MCU/nxp/RT1021/projects/alencon-systems/bootloader-v0.3/build/mbutils.o
 .ARM.attributes
                0x0000000000000925       0x37 /home/asmir/Desktop/Dropbox/MCU/nxp/RT1021/projects/alencon-systems/bootloader-v0.3/build/mb.o
 .ARM.attributes
                0x000000000000095c       0x37 /home/asmir/Desktop/Dropbox/MCU/nxp/RT1021/projects/alencon-systems/bootloader-v0.3/build/AlenconModbus.o
 .ARM.attributes
                0x0000000000000993       0x37 /home/asmir/Desktop/Dropbox/MCU/nxp/RT1021/projects/alencon-systems/bootloader-v0.3/build/AlenconModbusBootloader.o
 .ARM.attributes
                0x00000000000009ca       0x37 /home/asmir/Desktop/Dropbox/MCU/nxp/RT1021/projects/alencon-systems/bootloader-v0.3/build/mbportevent.o
 .ARM.attributes
                0x0000000000000a01       0x37 /home/asmir/Desktop/Dropbox/MCU/nxp/RT1021/projects/alencon-systems/bootloader-v0.3/build/mbportother.o
 .ARM.attributes
                0x0000000000000a38       0x37 /home/asmir/Desktop/Dropbox/MCU/nxp/RT1021/projects/alencon-systems/bootloader-v0.3/build/mbporttimer.o
 .ARM.attributes
                0x0000000000000a6f       0x37 /home/asmir/Desktop/Dropbox/MCU/nxp/RT1021/projects/alencon-systems/bootloader-v0.3/build/DCDC_mbrtu.o
 .ARM.attributes
                0x0000000000000aa6       0x1b /home/asmir/Desktop/Dropbox/MCU/nxp/RT1021/projects/alencon-systems/bootloader-v0.3/build/startup_MIMXRT1021.o
 .ARM.attributes
                0x0000000000000ac1       0x34 /home/asmir/Desktop/Dropbox/MCU/gcc/gcc-arm-none-eabi-7-2018-q2-update/bin/../lib/gcc/arm-none-eabi/7.3.1/../../../../arm-none-eabi/lib/thumb/v7e-m/fpv4-sp/hard/libc.a(lib_a-errno.o)
 .ARM.attributes
                0x0000000000000af5       0x34 /home/asmir/Desktop/Dropbox/MCU/gcc/gcc-arm-none-eabi-7-2018-q2-update/bin/../lib/gcc/arm-none-eabi/7.3.1/../../../../arm-none-eabi/lib/thumb/v7e-m/fpv4-sp/hard/libc.a(lib_a-impure.o)
 .ARM.attributes
                0x0000000000000b29       0x34 /home/asmir/Desktop/Dropbox/MCU/gcc/gcc-arm-none-eabi-7-2018-q2-update/bin/../lib/gcc/arm-none-eabi/7.3.1/../../../../arm-none-eabi/lib/thumb/v7e-m/fpv4-sp/hard/libc.a(lib_a-init.o)
 .ARM.attributes
                0x0000000000000b5d       0x34 /home/asmir/Desktop/Dropbox/MCU/gcc/gcc-arm-none-eabi-7-2018-q2-update/bin/../lib/gcc/arm-none-eabi/7.3.1/../../../../arm-none-eabi/lib/thumb/v7e-m/fpv4-sp/hard/libc.a(lib_a-malloc.o)
 .ARM.attributes
                0x0000000000000b91       0x34 /home/asmir/Desktop/Dropbox/MCU/gcc/gcc-arm-none-eabi-7-2018-q2-update/bin/../lib/gcc/arm-none-eabi/7.3.1/../../../../arm-none-eabi/lib/thumb/v7e-m/fpv4-sp/hard/libc.a(lib_a-mallocr.o)
 .ARM.attributes
                0x0000000000000bc5       0x34 /home/asmir/Desktop/Dropbox/MCU/gcc/gcc-arm-none-eabi-7-2018-q2-update/bin/../lib/gcc/arm-none-eabi/7.3.1/../../../../arm-none-eabi/lib/thumb/v7e-m/fpv4-sp/hard/libc.a(lib_a-memcmp.o)
 .ARM.attributes
                0x0000000000000bf9       0x20 /home/asmir/Desktop/Dropbox/MCU/gcc/gcc-arm-none-eabi-7-2018-q2-update/bin/../lib/gcc/arm-none-eabi/7.3.1/../../../../arm-none-eabi/lib/thumb/v7e-m/fpv4-sp/hard/libc.a(lib_a-memcpy.o)
 .ARM.attributes
                0x0000000000000c19       0x34 /home/asmir/Desktop/Dropbox/MCU/gcc/gcc-arm-none-eabi-7-2018-q2-update/bin/../lib/gcc/arm-none-eabi/7.3.1/../../../../arm-none-eabi/lib/thumb/v7e-m/fpv4-sp/hard/libc.a(lib_a-memset.o)
 .ARM.attributes
                0x0000000000000c4d       0x34 /home/asmir/Desktop/Dropbox/MCU/gcc/gcc-arm-none-eabi-7-2018-q2-update/bin/../lib/gcc/arm-none-eabi/7.3.1/../../../../arm-none-eabi/lib/thumb/v7e-m/fpv4-sp/hard/libc.a(lib_a-mlock.o)
 .ARM.attributes
                0x0000000000000c81       0x34 /home/asmir/Desktop/Dropbox/MCU/gcc/gcc-arm-none-eabi-7-2018-q2-update/bin/../lib/gcc/arm-none-eabi/7.3.1/../../../../arm-none-eabi/lib/thumb/v7e-m/fpv4-sp/hard/libc.a(lib_a-sbrkr.o)
 .ARM.attributes
                0x0000000000000cb5       0x34 /home/asmir/Desktop/Dropbox/MCU/gcc/gcc-arm-none-eabi-7-2018-q2-update/bin/../lib/gcc/arm-none-eabi/7.3.1/../../../../arm-none-eabi/lib/thumb/v7e-m/fpv4-sp/hard/libc.a(lib_a-strcasecmp.o)
 .ARM.attributes
                0x0000000000000ce9       0x34 /home/asmir/Desktop/Dropbox/MCU/gcc/gcc-arm-none-eabi-7-2018-q2-update/bin/../lib/gcc/arm-none-eabi/7.3.1/../../../../arm-none-eabi/lib/thumb/v7e-m/fpv4-sp/hard/libc.a(lib_a-__call_atexit.o)
 .ARM.attributes
                0x0000000000000d1d       0x34 /home/asmir/Desktop/Dropbox/MCU/gcc/gcc-arm-none-eabi-7-2018-q2-update/bin/../lib/gcc/arm-none-eabi/7.3.1/../../../../arm-none-eabi/lib/thumb/v7e-m/fpv4-sp/hard/libc.a(lib_a-atexit.o)
 .ARM.attributes
                0x0000000000000d51       0x34 /home/asmir/Desktop/Dropbox/MCU/gcc/gcc-arm-none-eabi-7-2018-q2-update/bin/../lib/gcc/arm-none-eabi/7.3.1/../../../../arm-none-eabi/lib/thumb/v7e-m/fpv4-sp/hard/libc.a(lib_a-fini.o)
 .ARM.attributes
                0x0000000000000d85       0x34 /home/asmir/Desktop/Dropbox/MCU/gcc/gcc-arm-none-eabi-7-2018-q2-update/bin/../lib/gcc/arm-none-eabi/7.3.1/../../../../arm-none-eabi/lib/thumb/v7e-m/fpv4-sp/hard/libc.a(lib_a-freer.o)
 .ARM.attributes
                0x0000000000000db9       0x34 /home/asmir/Desktop/Dropbox/MCU/gcc/gcc-arm-none-eabi-7-2018-q2-update/bin/../lib/gcc/arm-none-eabi/7.3.1/../../../../arm-none-eabi/lib/thumb/v7e-m/fpv4-sp/hard/libc.a(lib_a-locale.o)
 .ARM.attributes
                0x0000000000000ded       0x34 /home/asmir/Desktop/Dropbox/MCU/gcc/gcc-arm-none-eabi-7-2018-q2-update/bin/../lib/gcc/arm-none-eabi/7.3.1/../../../../arm-none-eabi/lib/thumb/v7e-m/fpv4-sp/hard/libc.a(lib_a-lock.o)
 .ARM.attributes
                0x0000000000000e21       0x34 /home/asmir/Desktop/Dropbox/MCU/gcc/gcc-arm-none-eabi-7-2018-q2-update/bin/../lib/gcc/arm-none-eabi/7.3.1/../../../../arm-none-eabi/lib/thumb/v7e-m/fpv4-sp/hard/libc.a(lib_a-mbtowc_r.o)
 .ARM.attributes
                0x0000000000000e55       0x34 /home/asmir/Desktop/Dropbox/MCU/gcc/gcc-arm-none-eabi-7-2018-q2-update/bin/../lib/gcc/arm-none-eabi/7.3.1/../../../../arm-none-eabi/lib/thumb/v7e-m/fpv4-sp/hard/libc.a(lib_a-reent.o)
 .ARM.attributes
                0x0000000000000e89       0x34 /home/asmir/Desktop/Dropbox/MCU/gcc/gcc-arm-none-eabi-7-2018-q2-update/bin/../lib/gcc/arm-none-eabi/7.3.1/../../../../arm-none-eabi/lib/thumb/v7e-m/fpv4-sp/hard/libc.a(lib_a-wctomb_r.o)
 .ARM.attributes
                0x0000000000000ebd       0x34 /home/asmir/Desktop/Dropbox/MCU/gcc/gcc-arm-none-eabi-7-2018-q2-update/bin/../lib/gcc/arm-none-eabi/7.3.1/../../../../arm-none-eabi/lib/thumb/v7e-m/fpv4-sp/hard/libc.a(lib_a-__atexit.o)
 .ARM.attributes
                0x0000000000000ef1       0x34 /home/asmir/Desktop/Dropbox/MCU/gcc/gcc-arm-none-eabi-7-2018-q2-update/bin/../lib/gcc/arm-none-eabi/7.3.1/../../../../arm-none-eabi/lib/thumb/v7e-m/fpv4-sp/hard/libc.a(lib_a-ctype_.o)
 .ARM.attributes
                0x0000000000000f25       0x22 /home/asmir/Desktop/Dropbox/MCU/gcc/gcc-arm-none-eabi-7-2018-q2-update/bin/../lib/gcc/arm-none-eabi/7.3.1/thumb/v7e-m/fpv4-sp/hard/crtn.o
                0x0000000000000001                ASSERT ((__StackLimit >= __HeapLimit), region m_data overflowed with stack and heap)
OUTPUT(/home/asmir/Desktop/Dropbox/MCU/nxp/RT1021/projects/alencon-systems/bootloader-v0.3/build/m7fw.elf elf32-littlearm)

.debug_info     0x0000000000000000    0x3c178
 .debug_info    0x0000000000000000     0x1103 /home/asmir/Desktop/Dropbox/MCU/nxp/RT1021/projects/alencon-systems/bootloader-v0.3/build/main.o
 .debug_info    0x0000000000001103     0x124e /home/asmir/Desktop/Dropbox/MCU/nxp/RT1021/projects/alencon-systems/bootloader-v0.3/build/systemclk.o
 .debug_info    0x0000000000002351      0x2aa /home/asmir/Desktop/Dropbox/MCU/nxp/RT1021/projects/alencon-systems/bootloader-v0.3/build/delay.o
 .debug_info    0x00000000000025fb       0xa4 /home/asmir/Desktop/Dropbox/MCU/nxp/RT1021/projects/alencon-systems/bootloader-v0.3/build/fwver.o
 .debug_info    0x000000000000269f     0x13c2 /home/asmir/Desktop/Dropbox/MCU/nxp/RT1021/projects/alencon-systems/bootloader-v0.3/build/debug.o
 .debug_info    0x0000000000003a61     0x1250 /home/asmir/Desktop/Dropbox/MCU/nxp/RT1021/projects/alencon-systems/bootloader-v0.3/build/misc.o
 .debug_info    0x0000000000004cb1     0x2119 /home/asmir/Desktop/Dropbox/MCU/nxp/RT1021/projects/alencon-systems/bootloader-v0.3/build/lpuart.o
 .debug_info    0x0000000000006dca     0x1058 /home/asmir/Desktop/Dropbox/MCU/nxp/RT1021/projects/alencon-systems/bootloader-v0.3/build/evkmimxrt1020_flexspi_nor_config.o
 .debug_info    0x0000000000007e22     0x30ba /home/asmir/Desktop/Dropbox/MCU/nxp/RT1021/projects/alencon-systems/bootloader-v0.3/build/fsl_clock.o
 .debug_info    0x000000000000aedc     0x124d /home/asmir/Desktop/Dropbox/MCU/nxp/RT1021/projects/alencon-systems/bootloader-v0.3/build/pin_mux.o
 .debug_info    0x000000000000c129     0x4a24 /home/asmir/Desktop/Dropbox/MCU/nxp/RT1021/projects/alencon-systems/bootloader-v0.3/build/clock_config.o
 .debug_info    0x0000000000010b4d      0xaac /home/asmir/Desktop/Dropbox/MCU/nxp/RT1021/projects/alencon-systems/bootloader-v0.3/build/system_MIMXRT1021.o
 .debug_info    0x00000000000115f9       0x9b /home/asmir/Desktop/Dropbox/MCU/nxp/RT1021/projects/alencon-systems/bootloader-v0.3/build/dcd.o
 .debug_info    0x0000000000011694      0x933 /home/asmir/Desktop/Dropbox/MCU/nxp/RT1021/projects/alencon-systems/bootloader-v0.3/build/fsl_assert.o
 .debug_info    0x0000000000011fc7      0xe22 /home/asmir/Desktop/Dropbox/MCU/nxp/RT1021/projects/alencon-systems/bootloader-v0.3/build/fsl_flexspi_nor_boot.o
 .debug_info    0x0000000000012de9      0x94e /home/asmir/Desktop/Dropbox/MCU/nxp/RT1021/projects/alencon-systems/bootloader-v0.3/build/fsl_sbrk.o
 .debug_info    0x0000000000013737      0xf43 /home/asmir/Desktop/Dropbox/MCU/nxp/RT1021/projects/alencon-systems/bootloader-v0.3/build/flash.o
 .debug_info    0x000000000001467a     0x14e0 /home/asmir/Desktop/Dropbox/MCU/nxp/RT1021/projects/alencon-systems/bootloader-v0.3/build/timing.o
 .debug_info    0x0000000000015b5a     0x2fd3 /home/asmir/Desktop/Dropbox/MCU/nxp/RT1021/projects/alencon-systems/bootloader-v0.3/build/fsl_flexspi.o
 .debug_info    0x0000000000018b2d     0x2892 /home/asmir/Desktop/Dropbox/MCU/nxp/RT1021/projects/alencon-systems/bootloader-v0.3/build/flexspi_nor_flash_ops.o
 .debug_info    0x000000000001b3bf     0x10dd /home/asmir/Desktop/Dropbox/MCU/nxp/RT1021/projects/alencon-systems/bootloader-v0.3/build/fsl_cache.o
 .debug_info    0x000000000001c49c     0x1cfc /home/asmir/Desktop/Dropbox/MCU/nxp/RT1021/projects/alencon-systems/bootloader-v0.3/build/hal_eeprom.o
 .debug_info    0x000000000001e198      0xb05 /home/asmir/Desktop/Dropbox/MCU/nxp/RT1021/projects/alencon-systems/bootloader-v0.3/build/eeprom.o
 .debug_info    0x000000000001ec9d     0x23b9 /home/asmir/Desktop/Dropbox/MCU/nxp/RT1021/projects/alencon-systems/bootloader-v0.3/build/hal_uart.o
 .debug_info    0x0000000000021056     0x137c /home/asmir/Desktop/Dropbox/MCU/nxp/RT1021/projects/alencon-systems/bootloader-v0.3/build/uart.o
 .debug_info    0x00000000000223d2      0xc84 /home/asmir/Desktop/Dropbox/MCU/nxp/RT1021/projects/alencon-systems/bootloader-v0.3/build/buffer.o
 .debug_info    0x0000000000023056     0x140e /home/asmir/Desktop/Dropbox/MCU/nxp/RT1021/projects/alencon-systems/bootloader-v0.3/build/buffer_printf.o
 .debug_info    0x0000000000024464     0x1152 /home/asmir/Desktop/Dropbox/MCU/nxp/RT1021/projects/alencon-systems/bootloader-v0.3/build/task.o
 .debug_info    0x00000000000255b6     0x1873 /home/asmir/Desktop/Dropbox/MCU/nxp/RT1021/projects/alencon-systems/bootloader-v0.3/build/list.o
 .debug_info    0x0000000000026e29      0xdd0 /home/asmir/Desktop/Dropbox/MCU/nxp/RT1021/projects/alencon-systems/bootloader-v0.3/build/crc16.o
 .debug_info    0x0000000000027bf9     0x1754 /home/asmir/Desktop/Dropbox/MCU/nxp/RT1021/projects/alencon-systems/bootloader-v0.3/build/subsys.o
 .debug_info    0x000000000002934d     0x1087 /home/asmir/Desktop/Dropbox/MCU/nxp/RT1021/projects/alencon-systems/bootloader-v0.3/build/bootloader.o
 .debug_info    0x000000000002a3d4     0x1421 /home/asmir/Desktop/Dropbox/MCU/nxp/RT1021/projects/alencon-systems/bootloader-v0.3/build/hardware.o
 .debug_info    0x000000000002b7f5     0x15ef /home/asmir/Desktop/Dropbox/MCU/nxp/RT1021/projects/alencon-systems/bootloader-v0.3/build/RS485Serial.o
 .debug_info    0x000000000002cde4      0xdcc /home/asmir/Desktop/Dropbox/MCU/nxp/RT1021/projects/alencon-systems/bootloader-v0.3/build/mbcrc.o
 .debug_info    0x000000000002dbb0      0xd85 /home/asmir/Desktop/Dropbox/MCU/nxp/RT1021/projects/alencon-systems/bootloader-v0.3/build/mbfunccoils.o
 .debug_info    0x000000000002e935      0xc05 /home/asmir/Desktop/Dropbox/MCU/nxp/RT1021/projects/alencon-systems/bootloader-v0.3/build/mbfuncdisc.o
 .debug_info    0x000000000002f53a      0xe34 /home/asmir/Desktop/Dropbox/MCU/nxp/RT1021/projects/alencon-systems/bootloader-v0.3/build/mbfuncholding.o
 .debug_info    0x000000000003036e      0xbf6 /home/asmir/Desktop/Dropbox/MCU/nxp/RT1021/projects/alencon-systems/bootloader-v0.3/build/mbfuncinput.o
 .debug_info    0x0000000000030f64      0xf35 /home/asmir/Desktop/Dropbox/MCU/nxp/RT1021/projects/alencon-systems/bootloader-v0.3/build/mbfuncother.o
 .debug_info    0x0000000000031e99      0xcf1 /home/asmir/Desktop/Dropbox/MCU/nxp/RT1021/projects/alencon-systems/bootloader-v0.3/build/mbutils.o
 .debug_info    0x0000000000032b8a     0x137b /home/asmir/Desktop/Dropbox/MCU/nxp/RT1021/projects/alencon-systems/bootloader-v0.3/build/mb.o
 .debug_info    0x0000000000033f05     0x14af /home/asmir/Desktop/Dropbox/MCU/nxp/RT1021/projects/alencon-systems/bootloader-v0.3/build/AlenconModbus.o
 .debug_info    0x00000000000353b4     0x2a9b /home/asmir/Desktop/Dropbox/MCU/nxp/RT1021/projects/alencon-systems/bootloader-v0.3/build/AlenconModbusBootloader.o
 .debug_info    0x0000000000037e4f      0xe15 /home/asmir/Desktop/Dropbox/MCU/nxp/RT1021/projects/alencon-systems/bootloader-v0.3/build/mbportevent.o
 .debug_info    0x0000000000038c64     0x11dd /home/asmir/Desktop/Dropbox/MCU/nxp/RT1021/projects/alencon-systems/bootloader-v0.3/build/mbportother.o
 .debug_info    0x0000000000039e41      0xe47 /home/asmir/Desktop/Dropbox/MCU/nxp/RT1021/projects/alencon-systems/bootloader-v0.3/build/mbporttimer.o
 .debug_info    0x000000000003ac88     0x14f0 /home/asmir/Desktop/Dropbox/MCU/nxp/RT1021/projects/alencon-systems/bootloader-v0.3/build/DCDC_mbrtu.o

.debug_abbrev   0x0000000000000000     0x8fdb
 .debug_abbrev  0x0000000000000000      0x24b /home/asmir/Desktop/Dropbox/MCU/nxp/RT1021/projects/alencon-systems/bootloader-v0.3/build/main.o
 .debug_abbrev  0x000000000000024b      0x306 /home/asmir/Desktop/Dropbox/MCU/nxp/RT1021/projects/alencon-systems/bootloader-v0.3/build/systemclk.o
 .debug_abbrev  0x0000000000000551      0x16d /home/asmir/Desktop/Dropbox/MCU/nxp/RT1021/projects/alencon-systems/bootloader-v0.3/build/delay.o
 .debug_abbrev  0x00000000000006be       0x58 /home/asmir/Desktop/Dropbox/MCU/nxp/RT1021/projects/alencon-systems/bootloader-v0.3/build/fwver.o
 .debug_abbrev  0x0000000000000716      0x342 /home/asmir/Desktop/Dropbox/MCU/nxp/RT1021/projects/alencon-systems/bootloader-v0.3/build/debug.o
 .debug_abbrev  0x0000000000000a58      0x412 /home/asmir/Desktop/Dropbox/MCU/nxp/RT1021/projects/alencon-systems/bootloader-v0.3/build/misc.o
 .debug_abbrev  0x0000000000000e6a      0x4cd /home/asmir/Desktop/Dropbox/MCU/nxp/RT1021/projects/alencon-systems/bootloader-v0.3/build/lpuart.o
 .debug_abbrev  0x0000000000001337      0x1d0 /home/asmir/Desktop/Dropbox/MCU/nxp/RT1021/projects/alencon-systems/bootloader-v0.3/build/evkmimxrt1020_flexspi_nor_config.o
 .debug_abbrev  0x0000000000001507      0x4d4 /home/asmir/Desktop/Dropbox/MCU/nxp/RT1021/projects/alencon-systems/bootloader-v0.3/build/fsl_clock.o
 .debug_abbrev  0x00000000000019db      0x308 /home/asmir/Desktop/Dropbox/MCU/nxp/RT1021/projects/alencon-systems/bootloader-v0.3/build/pin_mux.o
 .debug_abbrev  0x0000000000001ce3      0x40f /home/asmir/Desktop/Dropbox/MCU/nxp/RT1021/projects/alencon-systems/bootloader-v0.3/build/clock_config.o
 .debug_abbrev  0x00000000000020f2      0x16f /home/asmir/Desktop/Dropbox/MCU/nxp/RT1021/projects/alencon-systems/bootloader-v0.3/build/system_MIMXRT1021.o
 .debug_abbrev  0x0000000000002261       0x5d /home/asmir/Desktop/Dropbox/MCU/nxp/RT1021/projects/alencon-systems/bootloader-v0.3/build/dcd.o
 .debug_abbrev  0x00000000000022be      0x1c0 /home/asmir/Desktop/Dropbox/MCU/nxp/RT1021/projects/alencon-systems/bootloader-v0.3/build/fsl_assert.o
 .debug_abbrev  0x000000000000247e      0x1ed /home/asmir/Desktop/Dropbox/MCU/nxp/RT1021/projects/alencon-systems/bootloader-v0.3/build/fsl_flexspi_nor_boot.o
 .debug_abbrev  0x000000000000266b      0x22e /home/asmir/Desktop/Dropbox/MCU/nxp/RT1021/projects/alencon-systems/bootloader-v0.3/build/fsl_sbrk.o
 .debug_abbrev  0x0000000000002899      0x288 /home/asmir/Desktop/Dropbox/MCU/nxp/RT1021/projects/alencon-systems/bootloader-v0.3/build/flash.o
 .debug_abbrev  0x0000000000002b21      0x3ae /home/asmir/Desktop/Dropbox/MCU/nxp/RT1021/projects/alencon-systems/bootloader-v0.3/build/timing.o
 .debug_abbrev  0x0000000000002ecf      0x55f /home/asmir/Desktop/Dropbox/MCU/nxp/RT1021/projects/alencon-systems/bootloader-v0.3/build/fsl_flexspi.o
 .debug_abbrev  0x000000000000342e      0x4ac /home/asmir/Desktop/Dropbox/MCU/nxp/RT1021/projects/alencon-systems/bootloader-v0.3/build/flexspi_nor_flash_ops.o
 .debug_abbrev  0x00000000000038da      0x2bf /home/asmir/Desktop/Dropbox/MCU/nxp/RT1021/projects/alencon-systems/bootloader-v0.3/build/fsl_cache.o
 .debug_abbrev  0x0000000000003b99      0x42c /home/asmir/Desktop/Dropbox/MCU/nxp/RT1021/projects/alencon-systems/bootloader-v0.3/build/hal_eeprom.o
 .debug_abbrev  0x0000000000003fc5      0x223 /home/asmir/Desktop/Dropbox/MCU/nxp/RT1021/projects/alencon-systems/bootloader-v0.3/build/eeprom.o
 .debug_abbrev  0x00000000000041e8      0x491 /home/asmir/Desktop/Dropbox/MCU/nxp/RT1021/projects/alencon-systems/bootloader-v0.3/build/hal_uart.o
 .debug_abbrev  0x0000000000004679      0x411 /home/asmir/Desktop/Dropbox/MCU/nxp/RT1021/projects/alencon-systems/bootloader-v0.3/build/uart.o
 .debug_abbrev  0x0000000000004a8a      0x2c7 /home/asmir/Desktop/Dropbox/MCU/nxp/RT1021/projects/alencon-systems/bootloader-v0.3/build/buffer.o
 .debug_abbrev  0x0000000000004d51      0x313 /home/asmir/Desktop/Dropbox/MCU/nxp/RT1021/projects/alencon-systems/bootloader-v0.3/build/buffer_printf.o
 .debug_abbrev  0x0000000000005064      0x380 /home/asmir/Desktop/Dropbox/MCU/nxp/RT1021/projects/alencon-systems/bootloader-v0.3/build/task.o
 .debug_abbrev  0x00000000000053e4      0x48f /home/asmir/Desktop/Dropbox/MCU/nxp/RT1021/projects/alencon-systems/bootloader-v0.3/build/list.o
 .debug_abbrev  0x0000000000005873      0x22d /home/asmir/Desktop/Dropbox/MCU/nxp/RT1021/projects/alencon-systems/bootloader-v0.3/build/crc16.o
 .debug_abbrev  0x0000000000005aa0      0x48f /home/asmir/Desktop/Dropbox/MCU/nxp/RT1021/projects/alencon-systems/bootloader-v0.3/build/subsys.o
 .debug_abbrev  0x0000000000005f2f      0x323 /home/asmir/Desktop/Dropbox/MCU/nxp/RT1021/projects/alencon-systems/bootloader-v0.3/build/bootloader.o
 .debug_abbrev  0x0000000000006252      0x305 /home/asmir/Desktop/Dropbox/MCU/nxp/RT1021/projects/alencon-systems/bootloader-v0.3/build/hardware.o
 .debug_abbrev  0x0000000000006557      0x3d2 /home/asmir/Desktop/Dropbox/MCU/nxp/RT1021/projects/alencon-systems/bootloader-v0.3/build/RS485Serial.o
 .debug_abbrev  0x0000000000006929      0x20a /home/asmir/Desktop/Dropbox/MCU/nxp/RT1021/projects/alencon-systems/bootloader-v0.3/build/mbcrc.o
 .debug_abbrev  0x0000000000006b33      0x265 /home/asmir/Desktop/Dropbox/MCU/nxp/RT1021/projects/alencon-systems/bootloader-v0.3/build/mbfunccoils.o
 .debug_abbrev  0x0000000000006d98      0x24b /home/asmir/Desktop/Dropbox/MCU/nxp/RT1021/projects/alencon-systems/bootloader-v0.3/build/mbfuncdisc.o
 .debug_abbrev  0x0000000000006fe3      0x256 /home/asmir/Desktop/Dropbox/MCU/nxp/RT1021/projects/alencon-systems/bootloader-v0.3/build/mbfuncholding.o
 .debug_abbrev  0x0000000000007239      0x24b /home/asmir/Desktop/Dropbox/MCU/nxp/RT1021/projects/alencon-systems/bootloader-v0.3/build/mbfuncinput.o
 .debug_abbrev  0x0000000000007484      0x24c /home/asmir/Desktop/Dropbox/MCU/nxp/RT1021/projects/alencon-systems/bootloader-v0.3/build/mbfuncother.o
 .debug_abbrev  0x00000000000076d0      0x260 /home/asmir/Desktop/Dropbox/MCU/nxp/RT1021/projects/alencon-systems/bootloader-v0.3/build/mbutils.o
 .debug_abbrev  0x0000000000007930      0x2e5 /home/asmir/Desktop/Dropbox/MCU/nxp/RT1021/projects/alencon-systems/bootloader-v0.3/build/mb.o
 .debug_abbrev  0x0000000000007c15      0x35d /home/asmir/Desktop/Dropbox/MCU/nxp/RT1021/projects/alencon-systems/bootloader-v0.3/build/AlenconModbus.o
 .debug_abbrev  0x0000000000007f72      0x54c /home/asmir/Desktop/Dropbox/MCU/nxp/RT1021/projects/alencon-systems/bootloader-v0.3/build/AlenconModbusBootloader.o
 .debug_abbrev  0x00000000000084be      0x23e /home/asmir/Desktop/Dropbox/MCU/nxp/RT1021/projects/alencon-systems/bootloader-v0.3/build/mbportevent.o
 .debug_abbrev  0x00000000000086fc      0x2c9 /home/asmir/Desktop/Dropbox/MCU/nxp/RT1021/projects/alencon-systems/bootloader-v0.3/build/mbportother.o
 .debug_abbrev  0x00000000000089c5      0x286 /home/asmir/Desktop/Dropbox/MCU/nxp/RT1021/projects/alencon-systems/bootloader-v0.3/build/mbporttimer.o
 .debug_abbrev  0x0000000000008c4b      0x390 /home/asmir/Desktop/Dropbox/MCU/nxp/RT1021/projects/alencon-systems/bootloader-v0.3/build/DCDC_mbrtu.o

.debug_aranges  0x0000000000000000     0x1028
 .debug_aranges
                0x0000000000000000       0x20 /home/asmir/Desktop/Dropbox/MCU/nxp/RT1021/projects/alencon-systems/bootloader-v0.3/build/main.o
 .debug_aranges
                0x0000000000000020       0x20 /home/asmir/Desktop/Dropbox/MCU/nxp/RT1021/projects/alencon-systems/bootloader-v0.3/build/systemclk.o
 .debug_aranges
                0x0000000000000040       0x48 /home/asmir/Desktop/Dropbox/MCU/nxp/RT1021/projects/alencon-systems/bootloader-v0.3/build/delay.o
 .debug_aranges
                0x0000000000000088       0x18 /home/asmir/Desktop/Dropbox/MCU/nxp/RT1021/projects/alencon-systems/bootloader-v0.3/build/fwver.o
 .debug_aranges
                0x00000000000000a0       0x58 /home/asmir/Desktop/Dropbox/MCU/nxp/RT1021/projects/alencon-systems/bootloader-v0.3/build/debug.o
 .debug_aranges
                0x00000000000000f8       0x68 /home/asmir/Desktop/Dropbox/MCU/nxp/RT1021/projects/alencon-systems/bootloader-v0.3/build/misc.o
 .debug_aranges
                0x0000000000000160       0x58 /home/asmir/Desktop/Dropbox/MCU/nxp/RT1021/projects/alencon-systems/bootloader-v0.3/build/lpuart.o
 .debug_aranges
                0x00000000000001b8       0x18 /home/asmir/Desktop/Dropbox/MCU/nxp/RT1021/projects/alencon-systems/bootloader-v0.3/build/evkmimxrt1020_flexspi_nor_config.o
 .debug_aranges
                0x00000000000001d0      0x140 /home/asmir/Desktop/Dropbox/MCU/nxp/RT1021/projects/alencon-systems/bootloader-v0.3/build/fsl_clock.o
 .debug_aranges
                0x0000000000000310       0x28 /home/asmir/Desktop/Dropbox/MCU/nxp/RT1021/projects/alencon-systems/bootloader-v0.3/build/pin_mux.o
 .debug_aranges
                0x0000000000000338       0x30 /home/asmir/Desktop/Dropbox/MCU/nxp/RT1021/projects/alencon-systems/bootloader-v0.3/build/clock_config.o
 .debug_aranges
                0x0000000000000368       0x30 /home/asmir/Desktop/Dropbox/MCU/nxp/RT1021/projects/alencon-systems/bootloader-v0.3/build/system_MIMXRT1021.o
 .debug_aranges
                0x0000000000000398       0x18 /home/asmir/Desktop/Dropbox/MCU/nxp/RT1021/projects/alencon-systems/bootloader-v0.3/build/dcd.o
 .debug_aranges
                0x00000000000003b0       0x20 /home/asmir/Desktop/Dropbox/MCU/nxp/RT1021/projects/alencon-systems/bootloader-v0.3/build/fsl_assert.o
 .debug_aranges
                0x00000000000003d0       0x18 /home/asmir/Desktop/Dropbox/MCU/nxp/RT1021/projects/alencon-systems/bootloader-v0.3/build/fsl_flexspi_nor_boot.o
 .debug_aranges
                0x00000000000003e8       0x20 /home/asmir/Desktop/Dropbox/MCU/nxp/RT1021/projects/alencon-systems/bootloader-v0.3/build/fsl_sbrk.o
 .debug_aranges
                0x0000000000000408       0x30 /home/asmir/Desktop/Dropbox/MCU/nxp/RT1021/projects/alencon-systems/bootloader-v0.3/build/flash.o
 .debug_aranges
                0x0000000000000438       0x90 /home/asmir/Desktop/Dropbox/MCU/nxp/RT1021/projects/alencon-systems/bootloader-v0.3/build/timing.o
 .debug_aranges
                0x00000000000004c8       0xb8 /home/asmir/Desktop/Dropbox/MCU/nxp/RT1021/projects/alencon-systems/bootloader-v0.3/build/fsl_flexspi.o
 .debug_aranges
                0x0000000000000580       0x70 /home/asmir/Desktop/Dropbox/MCU/nxp/RT1021/projects/alencon-systems/bootloader-v0.3/build/flexspi_nor_flash_ops.o
 .debug_aranges
                0x00000000000005f0       0x38 /home/asmir/Desktop/Dropbox/MCU/nxp/RT1021/projects/alencon-systems/bootloader-v0.3/build/fsl_cache.o
 .debug_aranges
                0x0000000000000628       0x70 /home/asmir/Desktop/Dropbox/MCU/nxp/RT1021/projects/alencon-systems/bootloader-v0.3/build/hal_eeprom.o
 .debug_aranges
                0x0000000000000698       0x30 /home/asmir/Desktop/Dropbox/MCU/nxp/RT1021/projects/alencon-systems/bootloader-v0.3/build/eeprom.o
 .debug_aranges
                0x00000000000006c8       0x98 /home/asmir/Desktop/Dropbox/MCU/nxp/RT1021/projects/alencon-systems/bootloader-v0.3/build/hal_uart.o
 .debug_aranges
                0x0000000000000760       0xa0 /home/asmir/Desktop/Dropbox/MCU/nxp/RT1021/projects/alencon-systems/bootloader-v0.3/build/uart.o
 .debug_aranges
                0x0000000000000800       0x50 /home/asmir/Desktop/Dropbox/MCU/nxp/RT1021/projects/alencon-systems/bootloader-v0.3/build/buffer.o
 .debug_aranges
                0x0000000000000850       0x68 /home/asmir/Desktop/Dropbox/MCU/nxp/RT1021/projects/alencon-systems/bootloader-v0.3/build/buffer_printf.o
 .debug_aranges
                0x00000000000008b8       0x78 /home/asmir/Desktop/Dropbox/MCU/nxp/RT1021/projects/alencon-systems/bootloader-v0.3/build/task.o
 .debug_aranges
                0x0000000000000930       0xe8 /home/asmir/Desktop/Dropbox/MCU/nxp/RT1021/projects/alencon-systems/bootloader-v0.3/build/list.o
 .debug_aranges
                0x0000000000000a18       0x20 /home/asmir/Desktop/Dropbox/MCU/nxp/RT1021/projects/alencon-systems/bootloader-v0.3/build/crc16.o
 .debug_aranges
                0x0000000000000a38       0xd0 /home/asmir/Desktop/Dropbox/MCU/nxp/RT1021/projects/alencon-systems/bootloader-v0.3/build/subsys.o
 .debug_aranges
                0x0000000000000b08       0x40 /home/asmir/Desktop/Dropbox/MCU/nxp/RT1021/projects/alencon-systems/bootloader-v0.3/build/bootloader.o
 .debug_aranges
                0x0000000000000b48       0xd8 /home/asmir/Desktop/Dropbox/MCU/nxp/RT1021/projects/alencon-systems/bootloader-v0.3/build/hardware.o
 .debug_aranges
                0x0000000000000c20       0x60 /home/asmir/Desktop/Dropbox/MCU/nxp/RT1021/projects/alencon-systems/bootloader-v0.3/build/RS485Serial.o
 .debug_aranges
                0x0000000000000c80       0x20 /home/asmir/Desktop/Dropbox/MCU/nxp/RT1021/projects/alencon-systems/bootloader-v0.3/build/mbcrc.o
 .debug_aranges
                0x0000000000000ca0       0x30 /home/asmir/Desktop/Dropbox/MCU/nxp/RT1021/projects/alencon-systems/bootloader-v0.3/build/mbfunccoils.o
 .debug_aranges
                0x0000000000000cd0       0x20 /home/asmir/Desktop/Dropbox/MCU/nxp/RT1021/projects/alencon-systems/bootloader-v0.3/build/mbfuncdisc.o
 .debug_aranges
                0x0000000000000cf0       0x38 /home/asmir/Desktop/Dropbox/MCU/nxp/RT1021/projects/alencon-systems/bootloader-v0.3/build/mbfuncholding.o
 .debug_aranges
                0x0000000000000d28       0x20 /home/asmir/Desktop/Dropbox/MCU/nxp/RT1021/projects/alencon-systems/bootloader-v0.3/build/mbfuncinput.o
 .debug_aranges
                0x0000000000000d48       0x28 /home/asmir/Desktop/Dropbox/MCU/nxp/RT1021/projects/alencon-systems/bootloader-v0.3/build/mbfuncother.o
 .debug_aranges
                0x0000000000000d70       0x30 /home/asmir/Desktop/Dropbox/MCU/nxp/RT1021/projects/alencon-systems/bootloader-v0.3/build/mbutils.o
 .debug_aranges
                0x0000000000000da0       0x48 /home/asmir/Desktop/Dropbox/MCU/nxp/RT1021/projects/alencon-systems/bootloader-v0.3/build/mb.o
 .debug_aranges
                0x0000000000000de8       0x90 /home/asmir/Desktop/Dropbox/MCU/nxp/RT1021/projects/alencon-systems/bootloader-v0.3/build/AlenconModbus.o
 .debug_aranges
                0x0000000000000e78       0xa0 /home/asmir/Desktop/Dropbox/MCU/nxp/RT1021/projects/alencon-systems/bootloader-v0.3/build/AlenconModbusBootloader.o
 .debug_aranges
                0x0000000000000f18       0x30 /home/asmir/Desktop/Dropbox/MCU/nxp/RT1021/projects/alencon-systems/bootloader-v0.3/build/mbportevent.o
 .debug_aranges
                0x0000000000000f48       0x30 /home/asmir/Desktop/Dropbox/MCU/nxp/RT1021/projects/alencon-systems/bootloader-v0.3/build/mbportother.o
 .debug_aranges
                0x0000000000000f78       0x40 /home/asmir/Desktop/Dropbox/MCU/nxp/RT1021/projects/alencon-systems/bootloader-v0.3/build/mbporttimer.o
 .debug_aranges
                0x0000000000000fb8       0x70 /home/asmir/Desktop/Dropbox/MCU/nxp/RT1021/projects/alencon-systems/bootloader-v0.3/build/DCDC_mbrtu.o

.debug_ranges   0x0000000000000000     0x1e68
 .debug_ranges  0x0000000000000000       0x28 /home/asmir/Desktop/Dropbox/MCU/nxp/RT1021/projects/alencon-systems/bootloader-v0.3/build/main.o
 .debug_ranges  0x0000000000000028       0x78 /home/asmir/Desktop/Dropbox/MCU/nxp/RT1021/projects/alencon-systems/bootloader-v0.3/build/systemclk.o
 .debug_ranges  0x00000000000000a0       0x38 /home/asmir/Desktop/Dropbox/MCU/nxp/RT1021/projects/alencon-systems/bootloader-v0.3/build/delay.o
 .debug_ranges  0x00000000000000d8       0x88 /home/asmir/Desktop/Dropbox/MCU/nxp/RT1021/projects/alencon-systems/bootloader-v0.3/build/debug.o
 .debug_ranges  0x0000000000000160      0x108 /home/asmir/Desktop/Dropbox/MCU/nxp/RT1021/projects/alencon-systems/bootloader-v0.3/build/misc.o
 .debug_ranges  0x0000000000000268       0xf8 /home/asmir/Desktop/Dropbox/MCU/nxp/RT1021/projects/alencon-systems/bootloader-v0.3/build/lpuart.o
 .debug_ranges  0x0000000000000360      0x220 /home/asmir/Desktop/Dropbox/MCU/nxp/RT1021/projects/alencon-systems/bootloader-v0.3/build/fsl_clock.o
 .debug_ranges  0x0000000000000580       0xe8 /home/asmir/Desktop/Dropbox/MCU/nxp/RT1021/projects/alencon-systems/bootloader-v0.3/build/pin_mux.o
 .debug_ranges  0x0000000000000668      0x650 /home/asmir/Desktop/Dropbox/MCU/nxp/RT1021/projects/alencon-systems/bootloader-v0.3/build/clock_config.o
 .debug_ranges  0x0000000000000cb8       0x20 /home/asmir/Desktop/Dropbox/MCU/nxp/RT1021/projects/alencon-systems/bootloader-v0.3/build/system_MIMXRT1021.o
 .debug_ranges  0x0000000000000cd8       0x10 /home/asmir/Desktop/Dropbox/MCU/nxp/RT1021/projects/alencon-systems/bootloader-v0.3/build/fsl_assert.o
 .debug_ranges  0x0000000000000ce8       0x10 /home/asmir/Desktop/Dropbox/MCU/nxp/RT1021/projects/alencon-systems/bootloader-v0.3/build/fsl_sbrk.o
 .debug_ranges  0x0000000000000cf8       0x20 /home/asmir/Desktop/Dropbox/MCU/nxp/RT1021/projects/alencon-systems/bootloader-v0.3/build/flash.o
 .debug_ranges  0x0000000000000d18      0x168 /home/asmir/Desktop/Dropbox/MCU/nxp/RT1021/projects/alencon-systems/bootloader-v0.3/build/timing.o
 .debug_ranges  0x0000000000000e80      0x220 /home/asmir/Desktop/Dropbox/MCU/nxp/RT1021/projects/alencon-systems/bootloader-v0.3/build/fsl_flexspi.o
 .debug_ranges  0x00000000000010a0       0xf0 /home/asmir/Desktop/Dropbox/MCU/nxp/RT1021/projects/alencon-systems/bootloader-v0.3/build/flexspi_nor_flash_ops.o
 .debug_ranges  0x0000000000001190       0x28 /home/asmir/Desktop/Dropbox/MCU/nxp/RT1021/projects/alencon-systems/bootloader-v0.3/build/fsl_cache.o
 .debug_ranges  0x00000000000011b8      0x110 /home/asmir/Desktop/Dropbox/MCU/nxp/RT1021/projects/alencon-systems/bootloader-v0.3/build/hal_eeprom.o
 .debug_ranges  0x00000000000012c8       0x20 /home/asmir/Desktop/Dropbox/MCU/nxp/RT1021/projects/alencon-systems/bootloader-v0.3/build/eeprom.o
 .debug_ranges  0x00000000000012e8       0xb8 /home/asmir/Desktop/Dropbox/MCU/nxp/RT1021/projects/alencon-systems/bootloader-v0.3/build/hal_uart.o
 .debug_ranges  0x00000000000013a0       0xa8 /home/asmir/Desktop/Dropbox/MCU/nxp/RT1021/projects/alencon-systems/bootloader-v0.3/build/uart.o
 .debug_ranges  0x0000000000001448       0x40 /home/asmir/Desktop/Dropbox/MCU/nxp/RT1021/projects/alencon-systems/bootloader-v0.3/build/buffer.o
 .debug_ranges  0x0000000000001488       0x58 /home/asmir/Desktop/Dropbox/MCU/nxp/RT1021/projects/alencon-systems/bootloader-v0.3/build/buffer_printf.o
 .debug_ranges  0x00000000000014e0       0x90 /home/asmir/Desktop/Dropbox/MCU/nxp/RT1021/projects/alencon-systems/bootloader-v0.3/build/task.o
 .debug_ranges  0x0000000000001570      0x1d8 /home/asmir/Desktop/Dropbox/MCU/nxp/RT1021/projects/alencon-systems/bootloader-v0.3/build/list.o
 .debug_ranges  0x0000000000001748       0x10 /home/asmir/Desktop/Dropbox/MCU/nxp/RT1021/projects/alencon-systems/bootloader-v0.3/build/crc16.o
 .debug_ranges  0x0000000000001758      0x140 /home/asmir/Desktop/Dropbox/MCU/nxp/RT1021/projects/alencon-systems/bootloader-v0.3/build/subsys.o
 .debug_ranges  0x0000000000001898       0x48 /home/asmir/Desktop/Dropbox/MCU/nxp/RT1021/projects/alencon-systems/bootloader-v0.3/build/bootloader.o
 .debug_ranges  0x00000000000018e0       0xc8 /home/asmir/Desktop/Dropbox/MCU/nxp/RT1021/projects/alencon-systems/bootloader-v0.3/build/hardware.o
 .debug_ranges  0x00000000000019a8       0xa0 /home/asmir/Desktop/Dropbox/MCU/nxp/RT1021/projects/alencon-systems/bootloader-v0.3/build/RS485Serial.o
 .debug_ranges  0x0000000000001a48       0x10 /home/asmir/Desktop/Dropbox/MCU/nxp/RT1021/projects/alencon-systems/bootloader-v0.3/build/mbcrc.o
 .debug_ranges  0x0000000000001a58       0x20 /home/asmir/Desktop/Dropbox/MCU/nxp/RT1021/projects/alencon-systems/bootloader-v0.3/build/mbfunccoils.o
 .debug_ranges  0x0000000000001a78       0x10 /home/asmir/Desktop/Dropbox/MCU/nxp/RT1021/projects/alencon-systems/bootloader-v0.3/build/mbfuncdisc.o
 .debug_ranges  0x0000000000001a88       0x28 /home/asmir/Desktop/Dropbox/MCU/nxp/RT1021/projects/alencon-systems/bootloader-v0.3/build/mbfuncholding.o
 .debug_ranges  0x0000000000001ab0       0x10 /home/asmir/Desktop/Dropbox/MCU/nxp/RT1021/projects/alencon-systems/bootloader-v0.3/build/mbfuncinput.o
 .debug_ranges  0x0000000000001ac0       0x18 /home/asmir/Desktop/Dropbox/MCU/nxp/RT1021/projects/alencon-systems/bootloader-v0.3/build/mbfuncother.o
 .debug_ranges  0x0000000000001ad8       0x20 /home/asmir/Desktop/Dropbox/MCU/nxp/RT1021/projects/alencon-systems/bootloader-v0.3/build/mbutils.o
 .debug_ranges  0x0000000000001af8       0x38 /home/asmir/Desktop/Dropbox/MCU/nxp/RT1021/projects/alencon-systems/bootloader-v0.3/build/mb.o
 .debug_ranges  0x0000000000001b30       0x80 /home/asmir/Desktop/Dropbox/MCU/nxp/RT1021/projects/alencon-systems/bootloader-v0.3/build/AlenconModbus.o
 .debug_ranges  0x0000000000001bb0      0x1d0 /home/asmir/Desktop/Dropbox/MCU/nxp/RT1021/projects/alencon-systems/bootloader-v0.3/build/AlenconModbusBootloader.o
 .debug_ranges  0x0000000000001d80       0x20 /home/asmir/Desktop/Dropbox/MCU/nxp/RT1021/projects/alencon-systems/bootloader-v0.3/build/mbportevent.o
 .debug_ranges  0x0000000000001da0       0x38 /home/asmir/Desktop/Dropbox/MCU/nxp/RT1021/projects/alencon-systems/bootloader-v0.3/build/mbportother.o
 .debug_ranges  0x0000000000001dd8       0x30 /home/asmir/Desktop/Dropbox/MCU/nxp/RT1021/projects/alencon-systems/bootloader-v0.3/build/mbporttimer.o
 .debug_ranges  0x0000000000001e08       0x60 /home/asmir/Desktop/Dropbox/MCU/nxp/RT1021/projects/alencon-systems/bootloader-v0.3/build/DCDC_mbrtu.o

.debug_line     0x0000000000000000     0xaf88
 .debug_line    0x0000000000000000      0x279 /home/asmir/Desktop/Dropbox/MCU/nxp/RT1021/projects/alencon-systems/bootloader-v0.3/build/main.o
 .debug_line    0x0000000000000279      0x3ac /home/asmir/Desktop/Dropbox/MCU/nxp/RT1021/projects/alencon-systems/bootloader-v0.3/build/systemclk.o
 .debug_line    0x0000000000000625      0x1be /home/asmir/Desktop/Dropbox/MCU/nxp/RT1021/projects/alencon-systems/bootloader-v0.3/build/delay.o
 .debug_line    0x00000000000007e3       0xae /home/asmir/Desktop/Dropbox/MCU/nxp/RT1021/projects/alencon-systems/bootloader-v0.3/build/fwver.o
 .debug_line    0x0000000000000891      0x418 /home/asmir/Desktop/Dropbox/MCU/nxp/RT1021/projects/alencon-systems/bootloader-v0.3/build/debug.o
 .debug_line    0x0000000000000ca9      0x5de /home/asmir/Desktop/Dropbox/MCU/nxp/RT1021/projects/alencon-systems/bootloader-v0.3/build/misc.o
 .debug_line    0x0000000000001287      0x480 /home/asmir/Desktop/Dropbox/MCU/nxp/RT1021/projects/alencon-systems/bootloader-v0.3/build/lpuart.o
 .debug_line    0x0000000000001707      0x22f /home/asmir/Desktop/Dropbox/MCU/nxp/RT1021/projects/alencon-systems/bootloader-v0.3/build/evkmimxrt1020_flexspi_nor_config.o
 .debug_line    0x0000000000001936      0x8c8 /home/asmir/Desktop/Dropbox/MCU/nxp/RT1021/projects/alencon-systems/bootloader-v0.3/build/fsl_clock.o
 .debug_line    0x00000000000021fe      0x287 /home/asmir/Desktop/Dropbox/MCU/nxp/RT1021/projects/alencon-systems/bootloader-v0.3/build/pin_mux.o
 .debug_line    0x0000000000002485      0x83f /home/asmir/Desktop/Dropbox/MCU/nxp/RT1021/projects/alencon-systems/bootloader-v0.3/build/clock_config.o
 .debug_line    0x0000000000002cc4      0x1b9 /home/asmir/Desktop/Dropbox/MCU/nxp/RT1021/projects/alencon-systems/bootloader-v0.3/build/system_MIMXRT1021.o
 .debug_line    0x0000000000002e7d       0xab /home/asmir/Desktop/Dropbox/MCU/nxp/RT1021/projects/alencon-systems/bootloader-v0.3/build/dcd.o
 .debug_line    0x0000000000002f28      0x203 /home/asmir/Desktop/Dropbox/MCU/nxp/RT1021/projects/alencon-systems/bootloader-v0.3/build/fsl_assert.o
 .debug_line    0x000000000000312b      0x229 /home/asmir/Desktop/Dropbox/MCU/nxp/RT1021/projects/alencon-systems/bootloader-v0.3/build/fsl_flexspi_nor_boot.o
 .debug_line    0x0000000000003354      0x165 /home/asmir/Desktop/Dropbox/MCU/nxp/RT1021/projects/alencon-systems/bootloader-v0.3/build/fsl_sbrk.o
 .debug_line    0x00000000000034b9      0x2af /home/asmir/Desktop/Dropbox/MCU/nxp/RT1021/projects/alencon-systems/bootloader-v0.3/build/flash.o
 .debug_line    0x0000000000003768      0x334 /home/asmir/Desktop/Dropbox/MCU/nxp/RT1021/projects/alencon-systems/bootloader-v0.3/build/timing.o
 .debug_line    0x0000000000003a9c      0x940 /home/asmir/Desktop/Dropbox/MCU/nxp/RT1021/projects/alencon-systems/bootloader-v0.3/build/fsl_flexspi.o
 .debug_line    0x00000000000043dc      0x581 /home/asmir/Desktop/Dropbox/MCU/nxp/RT1021/projects/alencon-systems/bootloader-v0.3/build/flexspi_nor_flash_ops.o
 .debug_line    0x000000000000495d      0x2cf /home/asmir/Desktop/Dropbox/MCU/nxp/RT1021/projects/alencon-systems/bootloader-v0.3/build/fsl_cache.o
 .debug_line    0x0000000000004c2c      0x47c /home/asmir/Desktop/Dropbox/MCU/nxp/RT1021/projects/alencon-systems/bootloader-v0.3/build/hal_eeprom.o
 .debug_line    0x00000000000050a8      0x23b /home/asmir/Desktop/Dropbox/MCU/nxp/RT1021/projects/alencon-systems/bootloader-v0.3/build/eeprom.o
 .debug_line    0x00000000000052e3      0x433 /home/asmir/Desktop/Dropbox/MCU/nxp/RT1021/projects/alencon-systems/bootloader-v0.3/build/hal_uart.o
 .debug_line    0x0000000000005716      0x421 /home/asmir/Desktop/Dropbox/MCU/nxp/RT1021/projects/alencon-systems/bootloader-v0.3/build/uart.o
 .debug_line    0x0000000000005b37      0x33d /home/asmir/Desktop/Dropbox/MCU/nxp/RT1021/projects/alencon-systems/bootloader-v0.3/build/buffer.o
 .debug_line    0x0000000000005e74      0x3a9 /home/asmir/Desktop/Dropbox/MCU/nxp/RT1021/projects/alencon-systems/bootloader-v0.3/build/buffer_printf.o
 .debug_line    0x000000000000621d      0x328 /home/asmir/Desktop/Dropbox/MCU/nxp/RT1021/projects/alencon-systems/bootloader-v0.3/build/task.o
 .debug_line    0x0000000000006545      0x689 /home/asmir/Desktop/Dropbox/MCU/nxp/RT1021/projects/alencon-systems/bootloader-v0.3/build/list.o
 .debug_line    0x0000000000006bce      0x22c /home/asmir/Desktop/Dropbox/MCU/nxp/RT1021/projects/alencon-systems/bootloader-v0.3/build/crc16.o
 .debug_line    0x0000000000006dfa      0x589 /home/asmir/Desktop/Dropbox/MCU/nxp/RT1021/projects/alencon-systems/bootloader-v0.3/build/subsys.o
 .debug_line    0x0000000000007383      0x360 /home/asmir/Desktop/Dropbox/MCU/nxp/RT1021/projects/alencon-systems/bootloader-v0.3/build/bootloader.o
 .debug_line    0x00000000000076e3      0x367 /home/asmir/Desktop/Dropbox/MCU/nxp/RT1021/projects/alencon-systems/bootloader-v0.3/build/hardware.o
 .debug_line    0x0000000000007a4a      0x382 /home/asmir/Desktop/Dropbox/MCU/nxp/RT1021/projects/alencon-systems/bootloader-v0.3/build/RS485Serial.o
 .debug_line    0x0000000000007dcc      0x265 /home/asmir/Desktop/Dropbox/MCU/nxp/RT1021/projects/alencon-systems/bootloader-v0.3/build/mbcrc.o
 .debug_line    0x0000000000008031      0x34d /home/asmir/Desktop/Dropbox/MCU/nxp/RT1021/projects/alencon-systems/bootloader-v0.3/build/mbfunccoils.o
 .debug_line    0x000000000000837e      0x2dc /home/asmir/Desktop/Dropbox/MCU/nxp/RT1021/projects/alencon-systems/bootloader-v0.3/build/mbfuncdisc.o
 .debug_line    0x000000000000865a      0x389 /home/asmir/Desktop/Dropbox/MCU/nxp/RT1021/projects/alencon-systems/bootloader-v0.3/build/mbfuncholding.o
 .debug_line    0x00000000000089e3      0x2da /home/asmir/Desktop/Dropbox/MCU/nxp/RT1021/projects/alencon-systems/bootloader-v0.3/build/mbfuncinput.o
 .debug_line    0x0000000000008cbd      0x2ff /home/asmir/Desktop/Dropbox/MCU/nxp/RT1021/projects/alencon-systems/bootloader-v0.3/build/mbfuncother.o
 .debug_line    0x0000000000008fbc      0x30a /home/asmir/Desktop/Dropbox/MCU/nxp/RT1021/projects/alencon-systems/bootloader-v0.3/build/mbutils.o
 .debug_line    0x00000000000092c6      0x431 /home/asmir/Desktop/Dropbox/MCU/nxp/RT1021/projects/alencon-systems/bootloader-v0.3/build/mb.o
 .debug_line    0x00000000000096f7      0x4a8 /home/asmir/Desktop/Dropbox/MCU/nxp/RT1021/projects/alencon-systems/bootloader-v0.3/build/AlenconModbus.o
 .debug_line    0x0000000000009b9f      0x741 /home/asmir/Desktop/Dropbox/MCU/nxp/RT1021/projects/alencon-systems/bootloader-v0.3/build/AlenconModbusBootloader.o
 .debug_line    0x000000000000a2e0      0x2a0 /home/asmir/Desktop/Dropbox/MCU/nxp/RT1021/projects/alencon-systems/bootloader-v0.3/build/mbportevent.o
 .debug_line    0x000000000000a580      0x2df /home/asmir/Desktop/Dropbox/MCU/nxp/RT1021/projects/alencon-systems/bootloader-v0.3/build/mbportother.o
 .debug_line    0x000000000000a85f      0x2e9 /home/asmir/Desktop/Dropbox/MCU/nxp/RT1021/projects/alencon-systems/bootloader-v0.3/build/mbporttimer.o
 .debug_line    0x000000000000ab48      0x440 /home/asmir/Desktop/Dropbox/MCU/nxp/RT1021/projects/alencon-systems/bootloader-v0.3/build/DCDC_mbrtu.o

.debug_str      0x0000000000000000     0xa943
 .debug_str     0x0000000000000000     0x22a4 /home/asmir/Desktop/Dropbox/MCU/nxp/RT1021/projects/alencon-systems/bootloader-v0.3/build/main.o
                                       0x231d (size before relaxing)
 .debug_str     0x00000000000022a4      0x2af /home/asmir/Desktop/Dropbox/MCU/nxp/RT1021/projects/alencon-systems/bootloader-v0.3/build/systemclk.o
                                        0xa99 (size before relaxing)
 .debug_str     0x0000000000002553       0x6e /home/asmir/Desktop/Dropbox/MCU/nxp/RT1021/projects/alencon-systems/bootloader-v0.3/build/delay.o
                                        0x2e8 (size before relaxing)
 .debug_str     0x00000000000025c1       0x24 /home/asmir/Desktop/Dropbox/MCU/nxp/RT1021/projects/alencon-systems/bootloader-v0.3/build/fwver.o
                                        0x25b (size before relaxing)
 .debug_str     0x00000000000025e5      0x1f8 /home/asmir/Desktop/Dropbox/MCU/nxp/RT1021/projects/alencon-systems/bootloader-v0.3/build/debug.o
                                        0x8c7 (size before relaxing)
 .debug_str     0x00000000000027dd       0xf1 /home/asmir/Desktop/Dropbox/MCU/nxp/RT1021/projects/alencon-systems/bootloader-v0.3/build/misc.o
                                        0x77d (size before relaxing)
 .debug_str     0x00000000000028ce     0x19c4 /home/asmir/Desktop/Dropbox/MCU/nxp/RT1021/projects/alencon-systems/bootloader-v0.3/build/lpuart.o
                                       0x3c10 (size before relaxing)
 .debug_str     0x0000000000004292      0x704 /home/asmir/Desktop/Dropbox/MCU/nxp/RT1021/projects/alencon-systems/bootloader-v0.3/build/evkmimxrt1020_flexspi_nor_config.o
                                       0x16b9 (size before relaxing)
 .debug_str     0x0000000000004996     0x15da /home/asmir/Desktop/Dropbox/MCU/nxp/RT1021/projects/alencon-systems/bootloader-v0.3/build/fsl_clock.o
                                       0x27e1 (size before relaxing)
 .debug_str     0x0000000000005f70       0x9d /home/asmir/Desktop/Dropbox/MCU/nxp/RT1021/projects/alencon-systems/bootloader-v0.3/build/pin_mux.o
                                        0xe20 (size before relaxing)
 .debug_str     0x000000000000600d      0x2ab /home/asmir/Desktop/Dropbox/MCU/nxp/RT1021/projects/alencon-systems/bootloader-v0.3/build/clock_config.o
                                       0x221c (size before relaxing)
 .debug_str     0x00000000000062b8       0x90 /home/asmir/Desktop/Dropbox/MCU/nxp/RT1021/projects/alencon-systems/bootloader-v0.3/build/system_MIMXRT1021.o
                                        0x75f (size before relaxing)
 .debug_str     0x0000000000006348       0x19 /home/asmir/Desktop/Dropbox/MCU/nxp/RT1021/projects/alencon-systems/bootloader-v0.3/build/dcd.o
                                        0x24f (size before relaxing)
 .debug_str     0x0000000000006361       0x27 /home/asmir/Desktop/Dropbox/MCU/nxp/RT1021/projects/alencon-systems/bootloader-v0.3/build/fsl_assert.o
                                        0x6a5 (size before relaxing)
 .debug_str     0x0000000000006388       0x86 /home/asmir/Desktop/Dropbox/MCU/nxp/RT1021/projects/alencon-systems/bootloader-v0.3/build/fsl_flexspi_nor_boot.o
                                       0x11cb (size before relaxing)
 .debug_str     0x000000000000640e       0x6c /home/asmir/Desktop/Dropbox/MCU/nxp/RT1021/projects/alencon-systems/bootloader-v0.3/build/fsl_sbrk.o
                                        0x684 (size before relaxing)
 .debug_str     0x000000000000647a      0x54a /home/asmir/Desktop/Dropbox/MCU/nxp/RT1021/projects/alencon-systems/bootloader-v0.3/build/flash.o
                                        0xc49 (size before relaxing)
 .debug_str     0x00000000000069c4      0x146 /home/asmir/Desktop/Dropbox/MCU/nxp/RT1021/projects/alencon-systems/bootloader-v0.3/build/timing.o
                                       0x1219 (size before relaxing)
 .debug_str     0x0000000000006b0a      0xb24 /home/asmir/Desktop/Dropbox/MCU/nxp/RT1021/projects/alencon-systems/bootloader-v0.3/build/fsl_flexspi.o
                                       0x26f8 (size before relaxing)
 .debug_str     0x000000000000762e      0x50b /home/asmir/Desktop/Dropbox/MCU/nxp/RT1021/projects/alencon-systems/bootloader-v0.3/build/flexspi_nor_flash_ops.o
                                       0x24b7 (size before relaxing)
 .debug_str     0x0000000000007b39      0x162 /home/asmir/Desktop/Dropbox/MCU/nxp/RT1021/projects/alencon-systems/bootloader-v0.3/build/fsl_cache.o
                                        0x956 (size before relaxing)
 .debug_str     0x0000000000007c9b      0x148 /home/asmir/Desktop/Dropbox/MCU/nxp/RT1021/projects/alencon-systems/bootloader-v0.3/build/hal_eeprom.o
                                       0x1838 (size before relaxing)
 .debug_str     0x0000000000007de3        0xf /home/asmir/Desktop/Dropbox/MCU/nxp/RT1021/projects/alencon-systems/bootloader-v0.3/build/eeprom.o
                                        0x860 (size before relaxing)
 .debug_str     0x0000000000007df2      0x1de /home/asmir/Desktop/Dropbox/MCU/nxp/RT1021/projects/alencon-systems/bootloader-v0.3/build/hal_uart.o
                                       0x34e6 (size before relaxing)
 .debug_str     0x0000000000007fd0      0x331 /home/asmir/Desktop/Dropbox/MCU/nxp/RT1021/projects/alencon-systems/bootloader-v0.3/build/uart.o
                                        0xb18 (size before relaxing)
 .debug_str     0x0000000000008301       0x4c /home/asmir/Desktop/Dropbox/MCU/nxp/RT1021/projects/alencon-systems/bootloader-v0.3/build/buffer.o
                                        0x797 (size before relaxing)
 .debug_str     0x000000000000834d       0x95 /home/asmir/Desktop/Dropbox/MCU/nxp/RT1021/projects/alencon-systems/bootloader-v0.3/build/buffer_printf.o
                                        0x7d6 (size before relaxing)
 .debug_str     0x00000000000083e2      0x26e /home/asmir/Desktop/Dropbox/MCU/nxp/RT1021/projects/alencon-systems/bootloader-v0.3/build/task.o
                                        0x993 (size before relaxing)
 .debug_str     0x0000000000008650      0x10f /home/asmir/Desktop/Dropbox/MCU/nxp/RT1021/projects/alencon-systems/bootloader-v0.3/build/list.o
                                        0x941 (size before relaxing)
 .debug_str     0x000000000000875f       0x4a /home/asmir/Desktop/Dropbox/MCU/nxp/RT1021/projects/alencon-systems/bootloader-v0.3/build/crc16.o
                                       0x1176 (size before relaxing)
 .debug_str     0x00000000000087a9      0x1fa /home/asmir/Desktop/Dropbox/MCU/nxp/RT1021/projects/alencon-systems/bootloader-v0.3/build/subsys.o
                                       0x1407 (size before relaxing)
 .debug_str     0x00000000000089a3      0x174 /home/asmir/Desktop/Dropbox/MCU/nxp/RT1021/projects/alencon-systems/bootloader-v0.3/build/bootloader.o
                                       0x12f8 (size before relaxing)
 .debug_str     0x0000000000008b17      0x5d7 /home/asmir/Desktop/Dropbox/MCU/nxp/RT1021/projects/alencon-systems/bootloader-v0.3/build/hardware.o
                                        0xcb0 (size before relaxing)
 .debug_str     0x00000000000090ee      0x16d /home/asmir/Desktop/Dropbox/MCU/nxp/RT1021/projects/alencon-systems/bootloader-v0.3/build/RS485Serial.o
                                       0x2ddc (size before relaxing)
 .debug_str     0x000000000000925b       0x7c /home/asmir/Desktop/Dropbox/MCU/nxp/RT1021/projects/alencon-systems/bootloader-v0.3/build/mbcrc.o
                                       0x11ac (size before relaxing)
 .debug_str     0x00000000000092d7      0x2c9 /home/asmir/Desktop/Dropbox/MCU/nxp/RT1021/projects/alencon-systems/bootloader-v0.3/build/mbfunccoils.o
                                        0xacf (size before relaxing)
 .debug_str     0x00000000000095a0       0x81 /home/asmir/Desktop/Dropbox/MCU/nxp/RT1021/projects/alencon-systems/bootloader-v0.3/build/mbfuncdisc.o
                                        0xa6a (size before relaxing)
 .debug_str     0x0000000000009621      0x14e /home/asmir/Desktop/Dropbox/MCU/nxp/RT1021/projects/alencon-systems/bootloader-v0.3/build/mbfuncholding.o
                                        0xb47 (size before relaxing)
 .debug_str     0x000000000000976f       0x70 /home/asmir/Desktop/Dropbox/MCU/nxp/RT1021/projects/alencon-systems/bootloader-v0.3/build/mbfuncinput.o
                                        0xa5b (size before relaxing)
 .debug_str     0x00000000000097df       0xba /home/asmir/Desktop/Dropbox/MCU/nxp/RT1021/projects/alencon-systems/bootloader-v0.3/build/mbfuncother.o
                                       0x13ac (size before relaxing)
 .debug_str     0x0000000000009899       0xbd /home/asmir/Desktop/Dropbox/MCU/nxp/RT1021/projects/alencon-systems/bootloader-v0.3/build/mbutils.o
                                        0xa90 (size before relaxing)
 .debug_str     0x0000000000009956      0x333 /home/asmir/Desktop/Dropbox/MCU/nxp/RT1021/projects/alencon-systems/bootloader-v0.3/build/mb.o
                                       0x163b (size before relaxing)
 .debug_str     0x0000000000009c89      0x23d /home/asmir/Desktop/Dropbox/MCU/nxp/RT1021/projects/alencon-systems/bootloader-v0.3/build/AlenconModbus.o
                                       0x1553 (size before relaxing)
 .debug_str     0x0000000000009ec6      0x750 /home/asmir/Desktop/Dropbox/MCU/nxp/RT1021/projects/alencon-systems/bootloader-v0.3/build/AlenconModbusBootloader.o
                                       0x1dd8 (size before relaxing)
 .debug_str     0x000000000000a616       0x41 /home/asmir/Desktop/Dropbox/MCU/nxp/RT1021/projects/alencon-systems/bootloader-v0.3/build/mbportevent.o
                                       0x122b (size before relaxing)
 .debug_str     0x000000000000a657       0xa0 /home/asmir/Desktop/Dropbox/MCU/nxp/RT1021/projects/alencon-systems/bootloader-v0.3/build/mbportother.o
                                       0x138e (size before relaxing)
 .debug_str     0x000000000000a6f7       0x9e /home/asmir/Desktop/Dropbox/MCU/nxp/RT1021/projects/alencon-systems/bootloader-v0.3/build/mbporttimer.o
                                       0x1266 (size before relaxing)
 .debug_str     0x000000000000a795      0x1ae /home/asmir/Desktop/Dropbox/MCU/nxp/RT1021/projects/alencon-systems/bootloader-v0.3/build/DCDC_mbrtu.o
                                       0x1589 (size before relaxing)

.comment        0x0000000000000000       0x7f
 .comment       0x0000000000000000       0x7f /home/asmir/Desktop/Dropbox/MCU/nxp/RT1021/projects/alencon-systems/bootloader-v0.3/build/main.o
                                         0x80 (size before relaxing)
 .comment       0x000000000000007f       0x80 /home/asmir/Desktop/Dropbox/MCU/nxp/RT1021/projects/alencon-systems/bootloader-v0.3/build/systemclk.o
 .comment       0x000000000000007f       0x80 /home/asmir/Desktop/Dropbox/MCU/nxp/RT1021/projects/alencon-systems/bootloader-v0.3/build/delay.o
 .comment       0x000000000000007f       0x80 /home/asmir/Desktop/Dropbox/MCU/nxp/RT1021/projects/alencon-systems/bootloader-v0.3/build/fwver.o
 .comment       0x000000000000007f       0x80 /home/asmir/Desktop/Dropbox/MCU/nxp/RT1021/projects/alencon-systems/bootloader-v0.3/build/debug.o
 .comment       0x000000000000007f       0x80 /home/asmir/Desktop/Dropbox/MCU/nxp/RT1021/projects/alencon-systems/bootloader-v0.3/build/misc.o
 .comment       0x000000000000007f       0x80 /home/asmir/Desktop/Dropbox/MCU/nxp/RT1021/projects/alencon-systems/bootloader-v0.3/build/lpuart.o
 .comment       0x000000000000007f       0x80 /home/asmir/Desktop/Dropbox/MCU/nxp/RT1021/projects/alencon-systems/bootloader-v0.3/build/evkmimxrt1020_flexspi_nor_config.o
 .comment       0x000000000000007f       0x80 /home/asmir/Desktop/Dropbox/MCU/nxp/RT1021/projects/alencon-systems/bootloader-v0.3/build/fsl_clock.o
 .comment       0x000000000000007f       0x80 /home/asmir/Desktop/Dropbox/MCU/nxp/RT1021/projects/alencon-systems/bootloader-v0.3/build/pin_mux.o
 .comment       0x000000000000007f       0x80 /home/asmir/Desktop/Dropbox/MCU/nxp/RT1021/projects/alencon-systems/bootloader-v0.3/build/clock_config.o
 .comment       0x000000000000007f       0x80 /home/asmir/Desktop/Dropbox/MCU/nxp/RT1021/projects/alencon-systems/bootloader-v0.3/build/system_MIMXRT1021.o
 .comment       0x000000000000007f       0x80 /home/asmir/Desktop/Dropbox/MCU/nxp/RT1021/projects/alencon-systems/bootloader-v0.3/build/dcd.o
 .comment       0x000000000000007f       0x80 /home/asmir/Desktop/Dropbox/MCU/nxp/RT1021/projects/alencon-systems/bootloader-v0.3/build/fsl_assert.o
 .comment       0x000000000000007f       0x80 /home/asmir/Desktop/Dropbox/MCU/nxp/RT1021/projects/alencon-systems/bootloader-v0.3/build/fsl_flexspi_nor_boot.o
 .comment       0x000000000000007f       0x80 /home/asmir/Desktop/Dropbox/MCU/nxp/RT1021/projects/alencon-systems/bootloader-v0.3/build/fsl_sbrk.o
 .comment       0x000000000000007f       0x80 /home/asmir/Desktop/Dropbox/MCU/nxp/RT1021/projects/alencon-systems/bootloader-v0.3/build/flash.o
 .comment       0x000000000000007f       0x80 /home/asmir/Desktop/Dropbox/MCU/nxp/RT1021/projects/alencon-systems/bootloader-v0.3/build/timing.o
 .comment       0x000000000000007f       0x80 /home/asmir/Desktop/Dropbox/MCU/nxp/RT1021/projects/alencon-systems/bootloader-v0.3/build/fsl_flexspi.o
 .comment       0x000000000000007f       0x80 /home/asmir/Desktop/Dropbox/MCU/nxp/RT1021/projects/alencon-systems/bootloader-v0.3/build/flexspi_nor_flash_ops.o
 .comment       0x000000000000007f       0x80 /home/asmir/Desktop/Dropbox/MCU/nxp/RT1021/projects/alencon-systems/bootloader-v0.3/build/fsl_cache.o
 .comment       0x000000000000007f       0x80 /home/asmir/Desktop/Dropbox/MCU/nxp/RT1021/projects/alencon-systems/bootloader-v0.3/build/hal_eeprom.o
 .comment       0x000000000000007f       0x80 /home/asmir/Desktop/Dropbox/MCU/nxp/RT1021/projects/alencon-systems/bootloader-v0.3/build/eeprom.o
 .comment       0x000000000000007f       0x80 /home/asmir/Desktop/Dropbox/MCU/nxp/RT1021/projects/alencon-systems/bootloader-v0.3/build/hal_uart.o
 .comment       0x000000000000007f       0x80 /home/asmir/Desktop/Dropbox/MCU/nxp/RT1021/projects/alencon-systems/bootloader-v0.3/build/uart.o
 .comment       0x000000000000007f       0x80 /home/asmir/Desktop/Dropbox/MCU/nxp/RT1021/projects/alencon-systems/bootloader-v0.3/build/buffer.o
 .comment       0x000000000000007f       0x80 /home/asmir/Desktop/Dropbox/MCU/nxp/RT1021/projects/alencon-systems/bootloader-v0.3/build/buffer_printf.o
 .comment       0x000000000000007f       0x80 /home/asmir/Desktop/Dropbox/MCU/nxp/RT1021/projects/alencon-systems/bootloader-v0.3/build/task.o
 .comment       0x000000000000007f       0x80 /home/asmir/Desktop/Dropbox/MCU/nxp/RT1021/projects/alencon-systems/bootloader-v0.3/build/list.o
 .comment       0x000000000000007f       0x80 /home/asmir/Desktop/Dropbox/MCU/nxp/RT1021/projects/alencon-systems/bootloader-v0.3/build/crc16.o
 .comment       0x000000000000007f       0x80 /home/asmir/Desktop/Dropbox/MCU/nxp/RT1021/projects/alencon-systems/bootloader-v0.3/build/subsys.o
 .comment       0x000000000000007f       0x80 /home/asmir/Desktop/Dropbox/MCU/nxp/RT1021/projects/alencon-systems/bootloader-v0.3/build/bootloader.o
 .comment       0x000000000000007f       0x80 /home/asmir/Desktop/Dropbox/MCU/nxp/RT1021/projects/alencon-systems/bootloader-v0.3/build/hardware.o
 .comment       0x000000000000007f       0x80 /home/asmir/Desktop/Dropbox/MCU/nxp/RT1021/projects/alencon-systems/bootloader-v0.3/build/RS485Serial.o
 .comment       0x000000000000007f       0x80 /home/asmir/Desktop/Dropbox/MCU/nxp/RT1021/projects/alencon-systems/bootloader-v0.3/build/mbcrc.o
 .comment       0x000000000000007f       0x80 /home/asmir/Desktop/Dropbox/MCU/nxp/RT1021/projects/alencon-systems/bootloader-v0.3/build/mbfunccoils.o
 .comment       0x000000000000007f       0x80 /home/asmir/Desktop/Dropbox/MCU/nxp/RT1021/projects/alencon-systems/bootloader-v0.3/build/mbfuncdisc.o
 .comment       0x000000000000007f       0x80 /home/asmir/Desktop/Dropbox/MCU/nxp/RT1021/projects/alencon-systems/bootloader-v0.3/build/mbfuncholding.o
 .comment       0x000000000000007f       0x80 /home/asmir/Desktop/Dropbox/MCU/nxp/RT1021/projects/alencon-systems/bootloader-v0.3/build/mbfuncinput.o
 .comment       0x000000000000007f       0x80 /home/asmir/Desktop/Dropbox/MCU/nxp/RT1021/projects/alencon-systems/bootloader-v0.3/build/mbfuncother.o
 .comment       0x000000000000007f       0x80 /home/asmir/Desktop/Dropbox/MCU/nxp/RT1021/projects/alencon-systems/bootloader-v0.3/build/mbutils.o
 .comment       0x000000000000007f       0x80 /home/asmir/Desktop/Dropbox/MCU/nxp/RT1021/projects/alencon-systems/bootloader-v0.3/build/mb.o
 .comment       0x000000000000007f       0x80 /home/asmir/Desktop/Dropbox/MCU/nxp/RT1021/projects/alencon-systems/bootloader-v0.3/build/AlenconModbus.o
 .comment       0x000000000000007f       0x80 /home/asmir/Desktop/Dropbox/MCU/nxp/RT1021/projects/alencon-systems/bootloader-v0.3/build/AlenconModbusBootloader.o
 .comment       0x000000000000007f       0x80 /home/asmir/Desktop/Dropbox/MCU/nxp/RT1021/projects/alencon-systems/bootloader-v0.3/build/mbportevent.o
 .comment       0x000000000000007f       0x80 /home/asmir/Desktop/Dropbox/MCU/nxp/RT1021/projects/alencon-systems/bootloader-v0.3/build/mbportother.o
 .comment       0x000000000000007f       0x80 /home/asmir/Desktop/Dropbox/MCU/nxp/RT1021/projects/alencon-systems/bootloader-v0.3/build/mbporttimer.o
 .comment       0x000000000000007f       0x80 /home/asmir/Desktop/Dropbox/MCU/nxp/RT1021/projects/alencon-systems/bootloader-v0.3/build/DCDC_mbrtu.o

.debug_frame    0x0000000000000000     0x2ff8
 .debug_frame   0x0000000000000000       0x28 /home/asmir/Desktop/Dropbox/MCU/nxp/RT1021/projects/alencon-systems/bootloader-v0.3/build/main.o
 .debug_frame   0x0000000000000028       0x40 /home/asmir/Desktop/Dropbox/MCU/nxp/RT1021/projects/alencon-systems/bootloader-v0.3/build/systemclk.o
 .debug_frame   0x0000000000000068       0x88 /home/asmir/Desktop/Dropbox/MCU/nxp/RT1021/projects/alencon-systems/bootloader-v0.3/build/delay.o
 .debug_frame   0x00000000000000f0      0x128 /home/asmir/Desktop/Dropbox/MCU/nxp/RT1021/projects/alencon-systems/bootloader-v0.3/build/debug.o
 .debug_frame   0x0000000000000218      0x1b8 /home/asmir/Desktop/Dropbox/MCU/nxp/RT1021/projects/alencon-systems/bootloader-v0.3/build/misc.o
 .debug_frame   0x00000000000003d0      0x100 /home/asmir/Desktop/Dropbox/MCU/nxp/RT1021/projects/alencon-systems/bootloader-v0.3/build/lpuart.o
 .debug_frame   0x00000000000004d0      0x38c /home/asmir/Desktop/Dropbox/MCU/nxp/RT1021/projects/alencon-systems/bootloader-v0.3/build/fsl_clock.o
 .debug_frame   0x000000000000085c       0x3c /home/asmir/Desktop/Dropbox/MCU/nxp/RT1021/projects/alencon-systems/bootloader-v0.3/build/pin_mux.o
 .debug_frame   0x0000000000000898       0x54 /home/asmir/Desktop/Dropbox/MCU/nxp/RT1021/projects/alencon-systems/bootloader-v0.3/build/clock_config.o
 .debug_frame   0x00000000000008ec       0x58 /home/asmir/Desktop/Dropbox/MCU/nxp/RT1021/projects/alencon-systems/bootloader-v0.3/build/system_MIMXRT1021.o
 .debug_frame   0x0000000000000944       0x20 /home/asmir/Desktop/Dropbox/MCU/nxp/RT1021/projects/alencon-systems/bootloader-v0.3/build/fsl_assert.o
 .debug_frame   0x0000000000000964       0x28 /home/asmir/Desktop/Dropbox/MCU/nxp/RT1021/projects/alencon-systems/bootloader-v0.3/build/fsl_sbrk.o
 .debug_frame   0x000000000000098c       0x60 /home/asmir/Desktop/Dropbox/MCU/nxp/RT1021/projects/alencon-systems/bootloader-v0.3/build/flash.o
 .debug_frame   0x00000000000009ec      0x138 /home/asmir/Desktop/Dropbox/MCU/nxp/RT1021/projects/alencon-systems/bootloader-v0.3/build/timing.o
 .debug_frame   0x0000000000000b24      0x258 /home/asmir/Desktop/Dropbox/MCU/nxp/RT1021/projects/alencon-systems/bootloader-v0.3/build/fsl_flexspi.o
 .debug_frame   0x0000000000000d7c      0x1ac /home/asmir/Desktop/Dropbox/MCU/nxp/RT1021/projects/alencon-systems/bootloader-v0.3/build/flexspi_nor_flash_ops.o
 .debug_frame   0x0000000000000f28       0x60 /home/asmir/Desktop/Dropbox/MCU/nxp/RT1021/projects/alencon-systems/bootloader-v0.3/build/fsl_cache.o
 .debug_frame   0x0000000000000f88      0x130 /home/asmir/Desktop/Dropbox/MCU/nxp/RT1021/projects/alencon-systems/bootloader-v0.3/build/hal_eeprom.o
 .debug_frame   0x00000000000010b8       0x48 /home/asmir/Desktop/Dropbox/MCU/nxp/RT1021/projects/alencon-systems/bootloader-v0.3/build/eeprom.o
 .debug_frame   0x0000000000001100      0x150 /home/asmir/Desktop/Dropbox/MCU/nxp/RT1021/projects/alencon-systems/bootloader-v0.3/build/hal_uart.o
 .debug_frame   0x0000000000001250      0x214 /home/asmir/Desktop/Dropbox/MCU/nxp/RT1021/projects/alencon-systems/bootloader-v0.3/build/uart.o
 .debug_frame   0x0000000000001464       0xc0 /home/asmir/Desktop/Dropbox/MCU/nxp/RT1021/projects/alencon-systems/bootloader-v0.3/build/buffer.o
 .debug_frame   0x0000000000001524      0x1a0 /home/asmir/Desktop/Dropbox/MCU/nxp/RT1021/projects/alencon-systems/bootloader-v0.3/build/buffer_printf.o
 .debug_frame   0x00000000000016c4      0x184 /home/asmir/Desktop/Dropbox/MCU/nxp/RT1021/projects/alencon-systems/bootloader-v0.3/build/task.o
 .debug_frame   0x0000000000001848      0x2c0 /home/asmir/Desktop/Dropbox/MCU/nxp/RT1021/projects/alencon-systems/bootloader-v0.3/build/list.o
 .debug_frame   0x0000000000001b08       0x2c /home/asmir/Desktop/Dropbox/MCU/nxp/RT1021/projects/alencon-systems/bootloader-v0.3/build/crc16.o
 .debug_frame   0x0000000000001b34      0x298 /home/asmir/Desktop/Dropbox/MCU/nxp/RT1021/projects/alencon-systems/bootloader-v0.3/build/subsys.o
 .debug_frame   0x0000000000001dcc       0x98 /home/asmir/Desktop/Dropbox/MCU/nxp/RT1021/projects/alencon-systems/bootloader-v0.3/build/bootloader.o
 .debug_frame   0x0000000000001e64      0x1fc /home/asmir/Desktop/Dropbox/MCU/nxp/RT1021/projects/alencon-systems/bootloader-v0.3/build/hardware.o
 .debug_frame   0x0000000000002060       0xdc /home/asmir/Desktop/Dropbox/MCU/nxp/RT1021/projects/alencon-systems/bootloader-v0.3/build/RS485Serial.o
 .debug_frame   0x000000000000213c       0x38 /home/asmir/Desktop/Dropbox/MCU/nxp/RT1021/projects/alencon-systems/bootloader-v0.3/build/mbcrc.o
 .debug_frame   0x0000000000002174       0x78 /home/asmir/Desktop/Dropbox/MCU/nxp/RT1021/projects/alencon-systems/bootloader-v0.3/build/mbfunccoils.o
 .debug_frame   0x00000000000021ec       0x34 /home/asmir/Desktop/Dropbox/MCU/nxp/RT1021/projects/alencon-systems/bootloader-v0.3/build/mbfuncdisc.o
 .debug_frame   0x0000000000002220       0x9c /home/asmir/Desktop/Dropbox/MCU/nxp/RT1021/projects/alencon-systems/bootloader-v0.3/build/mbfuncholding.o
 .debug_frame   0x00000000000022bc       0x34 /home/asmir/Desktop/Dropbox/MCU/nxp/RT1021/projects/alencon-systems/bootloader-v0.3/build/mbfuncinput.o
 .debug_frame   0x00000000000022f0       0x4c /home/asmir/Desktop/Dropbox/MCU/nxp/RT1021/projects/alencon-systems/bootloader-v0.3/build/mbfuncother.o
 .debug_frame   0x000000000000233c       0x5c /home/asmir/Desktop/Dropbox/MCU/nxp/RT1021/projects/alencon-systems/bootloader-v0.3/build/mbutils.o
 .debug_frame   0x0000000000002398       0xc8 /home/asmir/Desktop/Dropbox/MCU/nxp/RT1021/projects/alencon-systems/bootloader-v0.3/build/mb.o
 .debug_frame   0x0000000000002460      0x1dc /home/asmir/Desktop/Dropbox/MCU/nxp/RT1021/projects/alencon-systems/bootloader-v0.3/build/AlenconModbus.o
 .debug_frame   0x000000000000263c      0x224 /home/asmir/Desktop/Dropbox/MCU/nxp/RT1021/projects/alencon-systems/bootloader-v0.3/build/AlenconModbusBootloader.o
 .debug_frame   0x0000000000002860       0x4c /home/asmir/Desktop/Dropbox/MCU/nxp/RT1021/projects/alencon-systems/bootloader-v0.3/build/mbportevent.o
 .debug_frame   0x00000000000028ac       0x4c /home/asmir/Desktop/Dropbox/MCU/nxp/RT1021/projects/alencon-systems/bootloader-v0.3/build/mbportother.o
 .debug_frame   0x00000000000028f8       0x90 /home/asmir/Desktop/Dropbox/MCU/nxp/RT1021/projects/alencon-systems/bootloader-v0.3/build/mbporttimer.o
 .debug_frame   0x0000000000002988      0x134 /home/asmir/Desktop/Dropbox/MCU/nxp/RT1021/projects/alencon-systems/bootloader-v0.3/build/DCDC_mbrtu.o
 .debug_frame   0x0000000000002abc       0x20 /home/asmir/Desktop/Dropbox/MCU/gcc/gcc-arm-none-eabi-7-2018-q2-update/bin/../lib/gcc/arm-none-eabi/7.3.1/../../../../arm-none-eabi/lib/thumb/v7e-m/fpv4-sp/hard/libc.a(lib_a-errno.o)
 .debug_frame   0x0000000000002adc       0x2c /home/asmir/Desktop/Dropbox/MCU/gcc/gcc-arm-none-eabi-7-2018-q2-update/bin/../lib/gcc/arm-none-eabi/7.3.1/../../../../arm-none-eabi/lib/thumb/v7e-m/fpv4-sp/hard/libc.a(lib_a-init.o)
 .debug_frame   0x0000000000002b08       0x30 /home/asmir/Desktop/Dropbox/MCU/gcc/gcc-arm-none-eabi-7-2018-q2-update/bin/../lib/gcc/arm-none-eabi/7.3.1/../../../../arm-none-eabi/lib/thumb/v7e-m/fpv4-sp/hard/libc.a(lib_a-malloc.o)
 .debug_frame   0x0000000000002b38       0x54 /home/asmir/Desktop/Dropbox/MCU/gcc/gcc-arm-none-eabi-7-2018-q2-update/bin/../lib/gcc/arm-none-eabi/7.3.1/../../../../arm-none-eabi/lib/thumb/v7e-m/fpv4-sp/hard/libc.a(lib_a-mallocr.o)
 .debug_frame   0x0000000000002b8c       0x38 /home/asmir/Desktop/Dropbox/MCU/gcc/gcc-arm-none-eabi-7-2018-q2-update/bin/../lib/gcc/arm-none-eabi/7.3.1/../../../../arm-none-eabi/lib/thumb/v7e-m/fpv4-sp/hard/libc.a(lib_a-memcmp.o)
 .debug_frame   0x0000000000002bc4       0x38 /home/asmir/Desktop/Dropbox/MCU/gcc/gcc-arm-none-eabi-7-2018-q2-update/bin/../lib/gcc/arm-none-eabi/7.3.1/../../../../arm-none-eabi/lib/thumb/v7e-m/fpv4-sp/hard/libc.a(lib_a-memset.o)
 .debug_frame   0x0000000000002bfc       0x30 /home/asmir/Desktop/Dropbox/MCU/gcc/gcc-arm-none-eabi-7-2018-q2-update/bin/../lib/gcc/arm-none-eabi/7.3.1/../../../../arm-none-eabi/lib/thumb/v7e-m/fpv4-sp/hard/libc.a(lib_a-mlock.o)
 .debug_frame   0x0000000000002c2c       0x2c /home/asmir/Desktop/Dropbox/MCU/gcc/gcc-arm-none-eabi-7-2018-q2-update/bin/../lib/gcc/arm-none-eabi/7.3.1/../../../../arm-none-eabi/lib/thumb/v7e-m/fpv4-sp/hard/libc.a(lib_a-sbrkr.o)
 .debug_frame   0x0000000000002c58       0x30 /home/asmir/Desktop/Dropbox/MCU/gcc/gcc-arm-none-eabi-7-2018-q2-update/bin/../lib/gcc/arm-none-eabi/7.3.1/../../../../arm-none-eabi/lib/thumb/v7e-m/fpv4-sp/hard/libc.a(lib_a-strcasecmp.o)
 .debug_frame   0x0000000000002c88       0x5c /home/asmir/Desktop/Dropbox/MCU/gcc/gcc-arm-none-eabi-7-2018-q2-update/bin/../lib/gcc/arm-none-eabi/7.3.1/../../../../arm-none-eabi/lib/thumb/v7e-m/fpv4-sp/hard/libc.a(lib_a-__call_atexit.o)
 .debug_frame   0x0000000000002ce4       0x20 /home/asmir/Desktop/Dropbox/MCU/gcc/gcc-arm-none-eabi-7-2018-q2-update/bin/../lib/gcc/arm-none-eabi/7.3.1/../../../../arm-none-eabi/lib/thumb/v7e-m/fpv4-sp/hard/libc.a(lib_a-atexit.o)
 .debug_frame   0x0000000000002d04       0x34 /home/asmir/Desktop/Dropbox/MCU/gcc/gcc-arm-none-eabi-7-2018-q2-update/bin/../lib/gcc/arm-none-eabi/7.3.1/../../../../arm-none-eabi/lib/thumb/v7e-m/fpv4-sp/hard/libc.a(lib_a-fini.o)
 .debug_frame   0x0000000000002d38       0x80 /home/asmir/Desktop/Dropbox/MCU/gcc/gcc-arm-none-eabi-7-2018-q2-update/bin/../lib/gcc/arm-none-eabi/7.3.1/../../../../arm-none-eabi/lib/thumb/v7e-m/fpv4-sp/hard/libc.a(lib_a-freer.o)
 .debug_frame   0x0000000000002db8       0x6c /home/asmir/Desktop/Dropbox/MCU/gcc/gcc-arm-none-eabi-7-2018-q2-update/bin/../lib/gcc/arm-none-eabi/7.3.1/../../../../arm-none-eabi/lib/thumb/v7e-m/fpv4-sp/hard/libc.a(lib_a-locale.o)
 .debug_frame   0x0000000000002e24       0xb0 /home/asmir/Desktop/Dropbox/MCU/gcc/gcc-arm-none-eabi-7-2018-q2-update/bin/../lib/gcc/arm-none-eabi/7.3.1/../../../../arm-none-eabi/lib/thumb/v7e-m/fpv4-sp/hard/libc.a(lib_a-lock.o)
 .debug_frame   0x0000000000002ed4       0x4c /home/asmir/Desktop/Dropbox/MCU/gcc/gcc-arm-none-eabi-7-2018-q2-update/bin/../lib/gcc/arm-none-eabi/7.3.1/../../../../arm-none-eabi/lib/thumb/v7e-m/fpv4-sp/hard/libc.a(lib_a-mbtowc_r.o)
 .debug_frame   0x0000000000002f20       0x68 /home/asmir/Desktop/Dropbox/MCU/gcc/gcc-arm-none-eabi-7-2018-q2-update/bin/../lib/gcc/arm-none-eabi/7.3.1/../../../../arm-none-eabi/lib/thumb/v7e-m/fpv4-sp/hard/libc.a(lib_a-reent.o)
 .debug_frame   0x0000000000002f88       0x3c /home/asmir/Desktop/Dropbox/MCU/gcc/gcc-arm-none-eabi-7-2018-q2-update/bin/../lib/gcc/arm-none-eabi/7.3.1/../../../../arm-none-eabi/lib/thumb/v7e-m/fpv4-sp/hard/libc.a(lib_a-wctomb_r.o)
 .debug_frame   0x0000000000002fc4       0x34 /home/asmir/Desktop/Dropbox/MCU/gcc/gcc-arm-none-eabi-7-2018-q2-update/bin/../lib/gcc/arm-none-eabi/7.3.1/../../../../arm-none-eabi/lib/thumb/v7e-m/fpv4-sp/hard/libc.a(lib_a-__atexit.o)

.debug_loc      0x0000000000000000     0xc9fb
 .debug_loc     0x0000000000000000       0x96 /home/asmir/Desktop/Dropbox/MCU/nxp/RT1021/projects/alencon-systems/bootloader-v0.3/build/systemclk.o
 .debug_loc     0x0000000000000096       0x99 /home/asmir/Desktop/Dropbox/MCU/nxp/RT1021/projects/alencon-systems/bootloader-v0.3/build/delay.o
 .debug_loc     0x000000000000012f      0x42b /home/asmir/Desktop/Dropbox/MCU/nxp/RT1021/projects/alencon-systems/bootloader-v0.3/build/debug.o
 .debug_loc     0x000000000000055a     0x112f /home/asmir/Desktop/Dropbox/MCU/nxp/RT1021/projects/alencon-systems/bootloader-v0.3/build/misc.o
 .debug_loc     0x0000000000001689      0x458 /home/asmir/Desktop/Dropbox/MCU/nxp/RT1021/projects/alencon-systems/bootloader-v0.3/build/lpuart.o
 .debug_loc     0x0000000000001ae1     0x1167 /home/asmir/Desktop/Dropbox/MCU/nxp/RT1021/projects/alencon-systems/bootloader-v0.3/build/fsl_clock.o
 .debug_loc     0x0000000000002c48      0x2fe /home/asmir/Desktop/Dropbox/MCU/nxp/RT1021/projects/alencon-systems/bootloader-v0.3/build/pin_mux.o
 .debug_loc     0x0000000000002f46     0x1c4a /home/asmir/Desktop/Dropbox/MCU/nxp/RT1021/projects/alencon-systems/bootloader-v0.3/build/clock_config.o
 .debug_loc     0x0000000000004b90      0x12d /home/asmir/Desktop/Dropbox/MCU/nxp/RT1021/projects/alencon-systems/bootloader-v0.3/build/system_MIMXRT1021.o
 .debug_loc     0x0000000000004cbd       0x8b /home/asmir/Desktop/Dropbox/MCU/nxp/RT1021/projects/alencon-systems/bootloader-v0.3/build/fsl_sbrk.o
 .debug_loc     0x0000000000004d48      0x1e0 /home/asmir/Desktop/Dropbox/MCU/nxp/RT1021/projects/alencon-systems/bootloader-v0.3/build/flash.o
 .debug_loc     0x0000000000004f28      0x15b /home/asmir/Desktop/Dropbox/MCU/nxp/RT1021/projects/alencon-systems/bootloader-v0.3/build/timing.o
 .debug_loc     0x0000000000005083     0x152c /home/asmir/Desktop/Dropbox/MCU/nxp/RT1021/projects/alencon-systems/bootloader-v0.3/build/fsl_flexspi.o
 .debug_loc     0x00000000000065af      0x59d /home/asmir/Desktop/Dropbox/MCU/nxp/RT1021/projects/alencon-systems/bootloader-v0.3/build/flexspi_nor_flash_ops.o
 .debug_loc     0x0000000000006b4c      0x3ab /home/asmir/Desktop/Dropbox/MCU/nxp/RT1021/projects/alencon-systems/bootloader-v0.3/build/fsl_cache.o
 .debug_loc     0x0000000000006ef7      0x4ca /home/asmir/Desktop/Dropbox/MCU/nxp/RT1021/projects/alencon-systems/bootloader-v0.3/build/hal_eeprom.o
 .debug_loc     0x00000000000073c1       0x63 /home/asmir/Desktop/Dropbox/MCU/nxp/RT1021/projects/alencon-systems/bootloader-v0.3/build/eeprom.o
 .debug_loc     0x0000000000007424      0x4a2 /home/asmir/Desktop/Dropbox/MCU/nxp/RT1021/projects/alencon-systems/bootloader-v0.3/build/hal_uart.o
 .debug_loc     0x00000000000078c6      0x402 /home/asmir/Desktop/Dropbox/MCU/nxp/RT1021/projects/alencon-systems/bootloader-v0.3/build/uart.o
 .debug_loc     0x0000000000007cc8      0x223 /home/asmir/Desktop/Dropbox/MCU/nxp/RT1021/projects/alencon-systems/bootloader-v0.3/build/buffer.o
 .debug_loc     0x0000000000007eeb      0x7f7 /home/asmir/Desktop/Dropbox/MCU/nxp/RT1021/projects/alencon-systems/bootloader-v0.3/build/buffer_printf.o
 .debug_loc     0x00000000000086e2      0x444 /home/asmir/Desktop/Dropbox/MCU/nxp/RT1021/projects/alencon-systems/bootloader-v0.3/build/task.o
 .debug_loc     0x0000000000008b26      0xa9c /home/asmir/Desktop/Dropbox/MCU/nxp/RT1021/projects/alencon-systems/bootloader-v0.3/build/list.o
 .debug_loc     0x00000000000095c2       0xe5 /home/asmir/Desktop/Dropbox/MCU/nxp/RT1021/projects/alencon-systems/bootloader-v0.3/build/crc16.o
 .debug_loc     0x00000000000096a7      0x534 /home/asmir/Desktop/Dropbox/MCU/nxp/RT1021/projects/alencon-systems/bootloader-v0.3/build/subsys.o
 .debug_loc     0x0000000000009bdb       0xdf /home/asmir/Desktop/Dropbox/MCU/nxp/RT1021/projects/alencon-systems/bootloader-v0.3/build/bootloader.o
 .debug_loc     0x0000000000009cba      0x1ff /home/asmir/Desktop/Dropbox/MCU/nxp/RT1021/projects/alencon-systems/bootloader-v0.3/build/RS485Serial.o
 .debug_loc     0x0000000000009eb9      0x10c /home/asmir/Desktop/Dropbox/MCU/nxp/RT1021/projects/alencon-systems/bootloader-v0.3/build/mbcrc.o
 .debug_loc     0x0000000000009fc5      0x4a9 /home/asmir/Desktop/Dropbox/MCU/nxp/RT1021/projects/alencon-systems/bootloader-v0.3/build/mbfunccoils.o
 .debug_loc     0x000000000000a46e      0x1d4 /home/asmir/Desktop/Dropbox/MCU/nxp/RT1021/projects/alencon-systems/bootloader-v0.3/build/mbfuncdisc.o
 .debug_loc     0x000000000000a642      0x7c8 /home/asmir/Desktop/Dropbox/MCU/nxp/RT1021/projects/alencon-systems/bootloader-v0.3/build/mbfuncholding.o
 .debug_loc     0x000000000000ae0a      0x1da /home/asmir/Desktop/Dropbox/MCU/nxp/RT1021/projects/alencon-systems/bootloader-v0.3/build/mbfuncinput.o
 .debug_loc     0x000000000000afe4      0x1a7 /home/asmir/Desktop/Dropbox/MCU/nxp/RT1021/projects/alencon-systems/bootloader-v0.3/build/mbfuncother.o
 .debug_loc     0x000000000000b18b      0x43c /home/asmir/Desktop/Dropbox/MCU/nxp/RT1021/projects/alencon-systems/bootloader-v0.3/build/mbutils.o
 .debug_loc     0x000000000000b5c7      0x2c2 /home/asmir/Desktop/Dropbox/MCU/nxp/RT1021/projects/alencon-systems/bootloader-v0.3/build/mb.o
 .debug_loc     0x000000000000b889      0x54f /home/asmir/Desktop/Dropbox/MCU/nxp/RT1021/projects/alencon-systems/bootloader-v0.3/build/AlenconModbus.o
 .debug_loc     0x000000000000bdd8      0x782 /home/asmir/Desktop/Dropbox/MCU/nxp/RT1021/projects/alencon-systems/bootloader-v0.3/build/AlenconModbusBootloader.o
 .debug_loc     0x000000000000c55a       0x6e /home/asmir/Desktop/Dropbox/MCU/nxp/RT1021/projects/alencon-systems/bootloader-v0.3/build/mbportevent.o
 .debug_loc     0x000000000000c5c8       0x4d /home/asmir/Desktop/Dropbox/MCU/nxp/RT1021/projects/alencon-systems/bootloader-v0.3/build/mbportother.o
 .debug_loc     0x000000000000c615       0x42 /home/asmir/Desktop/Dropbox/MCU/nxp/RT1021/projects/alencon-systems/bootloader-v0.3/build/mbporttimer.o
 .debug_loc     0x000000000000c657      0x3a4 /home/asmir/Desktop/Dropbox/MCU/nxp/RT1021/projects/alencon-systems/bootloader-v0.3/build/DCDC_mbrtu.o

Cross Reference Table

Symbol                                            File
ACMP1_IRQHandler                                  /home/asmir/Desktop/Dropbox/MCU/nxp/RT1021/projects/alencon-systems/bootloader-v0.3/build/startup_MIMXRT1021.o
ACMP2_IRQHandler                                  /home/asmir/Desktop/Dropbox/MCU/nxp/RT1021/projects/alencon-systems/bootloader-v0.3/build/startup_MIMXRT1021.o
ACMP3_IRQHandler                                  /home/asmir/Desktop/Dropbox/MCU/nxp/RT1021/projects/alencon-systems/bootloader-v0.3/build/startup_MIMXRT1021.o
ACMP4_IRQHandler                                  /home/asmir/Desktop/Dropbox/MCU/nxp/RT1021/projects/alencon-systems/bootloader-v0.3/build/startup_MIMXRT1021.o
ADC1_IRQHandler                                   /home/asmir/Desktop/Dropbox/MCU/nxp/RT1021/projects/alencon-systems/bootloader-v0.3/build/startup_MIMXRT1021.o
ADC2_IRQHandler                                   /home/asmir/Desktop/Dropbox/MCU/nxp/RT1021/projects/alencon-systems/bootloader-v0.3/build/startup_MIMXRT1021.o
ADC_ETC_ERROR_IRQ_IRQHandler                      /home/asmir/Desktop/Dropbox/MCU/nxp/RT1021/projects/alencon-systems/bootloader-v0.3/build/startup_MIMXRT1021.o
ADC_ETC_IRQ0_IRQHandler                           /home/asmir/Desktop/Dropbox/MCU/nxp/RT1021/projects/alencon-systems/bootloader-v0.3/build/startup_MIMXRT1021.o
ADC_ETC_IRQ1_IRQHandler                           /home/asmir/Desktop/Dropbox/MCU/nxp/RT1021/projects/alencon-systems/bootloader-v0.3/build/startup_MIMXRT1021.o
ADC_ETC_IRQ2_IRQHandler                           /home/asmir/Desktop/Dropbox/MCU/nxp/RT1021/projects/alencon-systems/bootloader-v0.3/build/startup_MIMXRT1021.o
AlenconModbus_Init                                /home/asmir/Desktop/Dropbox/MCU/nxp/RT1021/projects/alencon-systems/bootloader-v0.3/build/AlenconModbusBootloader.o
                                                  /home/asmir/Desktop/Dropbox/MCU/nxp/RT1021/projects/alencon-systems/bootloader-v0.3/build/bootloader.o
AlenconModbus_InitBootloader                      /home/asmir/Desktop/Dropbox/MCU/nxp/RT1021/projects/alencon-systems/bootloader-v0.3/build/AlenconModbusBootloader.o
                                                  /home/asmir/Desktop/Dropbox/MCU/nxp/RT1021/projects/alencon-systems/bootloader-v0.3/build/bootloader.o
AlenconModbus_Stop                                /home/asmir/Desktop/Dropbox/MCU/nxp/RT1021/projects/alencon-systems/bootloader-v0.3/build/AlenconModbus.o
                                                  /home/asmir/Desktop/Dropbox/MCU/nxp/RT1021/projects/alencon-systems/bootloader-v0.3/build/bootloader.o
ArgToU16                                          /home/asmir/Desktop/Dropbox/MCU/nxp/RT1021/projects/alencon-systems/bootloader-v0.3/build/subsys.o
ArgToU32                                          /home/asmir/Desktop/Dropbox/MCU/nxp/RT1021/projects/alencon-systems/bootloader-v0.3/build/subsys.o
ArgToU8                                           /home/asmir/Desktop/Dropbox/MCU/nxp/RT1021/projects/alencon-systems/bootloader-v0.3/build/subsys.o
BEE_IRQHandler                                    /home/asmir/Desktop/Dropbox/MCU/nxp/RT1021/projects/alencon-systems/bootloader-v0.3/build/startup_MIMXRT1021.o
BOARD_BootClockRUN                                /home/asmir/Desktop/Dropbox/MCU/nxp/RT1021/projects/alencon-systems/bootloader-v0.3/build/clock_config.o
BOARD_ConfigMPU                                   /home/asmir/Desktop/Dropbox/MCU/nxp/RT1021/projects/alencon-systems/bootloader-v0.3/build/board.o
BOARD_DebugConsoleSrcFreq                         /home/asmir/Desktop/Dropbox/MCU/nxp/RT1021/projects/alencon-systems/bootloader-v0.3/build/board.o
BOARD_InitBootClocks                              /home/asmir/Desktop/Dropbox/MCU/nxp/RT1021/projects/alencon-systems/bootloader-v0.3/build/clock_config.o
                                                  /home/asmir/Desktop/Dropbox/MCU/nxp/RT1021/projects/alencon-systems/bootloader-v0.3/build/systemclk.o
BOARD_InitBootPins                                /home/asmir/Desktop/Dropbox/MCU/nxp/RT1021/projects/alencon-systems/bootloader-v0.3/build/pin_mux.o
                                                  /home/asmir/Desktop/Dropbox/MCU/nxp/RT1021/projects/alencon-systems/bootloader-v0.3/build/systemclk.o
BOARD_InitDebugConsole                            /home/asmir/Desktop/Dropbox/MCU/nxp/RT1021/projects/alencon-systems/bootloader-v0.3/build/board.o
BOARD_InitPins                                    /home/asmir/Desktop/Dropbox/MCU/nxp/RT1021/projects/alencon-systems/bootloader-v0.3/build/pin_mux.o
BUILD_TIME                                        /home/asmir/Desktop/Dropbox/MCU/nxp/RT1021/projects/alencon-systems/bootloader-v0.3/build/fwver.o
                                                  /home/asmir/Desktop/Dropbox/MCU/nxp/RT1021/projects/alencon-systems/bootloader-v0.3/build/debug.o
Bootloader_DeinitAppModules                       /home/asmir/Desktop/Dropbox/MCU/nxp/RT1021/projects/alencon-systems/bootloader-v0.3/build/bootloader.o
Bootloader_DontLoadApp                            /home/asmir/Desktop/Dropbox/MCU/nxp/RT1021/projects/alencon-systems/bootloader-v0.3/build/bootloader.o
                                                  /home/asmir/Desktop/Dropbox/MCU/nxp/RT1021/projects/alencon-systems/bootloader-v0.3/build/AlenconModbusBootloader.o
Bootloader_Init                                   /home/asmir/Desktop/Dropbox/MCU/nxp/RT1021/projects/alencon-systems/bootloader-v0.3/build/bootloader.o
                                                  /home/asmir/Desktop/Dropbox/MCU/nxp/RT1021/projects/alencon-systems/bootloader-v0.3/build/main.o
Buffer_Binary16                                   /home/asmir/Desktop/Dropbox/MCU/nxp/RT1021/projects/alencon-systems/bootloader-v0.3/build/buffer_printf.o
Buffer_ClearCallback                              /home/asmir/Desktop/Dropbox/MCU/nxp/RT1021/projects/alencon-systems/bootloader-v0.3/build/buffer.o
Buffer_Dequeue                                    /home/asmir/Desktop/Dropbox/MCU/nxp/RT1021/projects/alencon-systems/bootloader-v0.3/build/buffer.o
                                                  /home/asmir/Desktop/Dropbox/MCU/nxp/RT1021/projects/alencon-systems/bootloader-v0.3/build/uart.o
Buffer_Enqueue                                    /home/asmir/Desktop/Dropbox/MCU/nxp/RT1021/projects/alencon-systems/bootloader-v0.3/build/buffer.o
                                                  /home/asmir/Desktop/Dropbox/MCU/nxp/RT1021/projects/alencon-systems/bootloader-v0.3/build/buffer_printf.o
                                                  /home/asmir/Desktop/Dropbox/MCU/nxp/RT1021/projects/alencon-systems/bootloader-v0.3/build/uart.o
Buffer_EnqueueData                                /home/asmir/Desktop/Dropbox/MCU/nxp/RT1021/projects/alencon-systems/bootloader-v0.3/build/buffer.o
                                                  /home/asmir/Desktop/Dropbox/MCU/nxp/RT1021/projects/alencon-systems/bootloader-v0.3/build/uart.o
Buffer_Float                                      /home/asmir/Desktop/Dropbox/MCU/nxp/RT1021/projects/alencon-systems/bootloader-v0.3/build/buffer_printf.o
Buffer_GetSize                                    /home/asmir/Desktop/Dropbox/MCU/nxp/RT1021/projects/alencon-systems/bootloader-v0.3/build/buffer.o
                                                  /home/asmir/Desktop/Dropbox/MCU/nxp/RT1021/projects/alencon-systems/bootloader-v0.3/build/uart.o
Buffer_HexN                                       /home/asmir/Desktop/Dropbox/MCU/nxp/RT1021/projects/alencon-systems/bootloader-v0.3/build/buffer_printf.o
Buffer_Init                                       /home/asmir/Desktop/Dropbox/MCU/nxp/RT1021/projects/alencon-systems/bootloader-v0.3/build/buffer.o
                                                  /home/asmir/Desktop/Dropbox/MCU/nxp/RT1021/projects/alencon-systems/bootloader-v0.3/build/uart.o
Buffer_SetCallback                                /home/asmir/Desktop/Dropbox/MCU/nxp/RT1021/projects/alencon-systems/bootloader-v0.3/build/buffer.o
Buffer_Str                                        /home/asmir/Desktop/Dropbox/MCU/nxp/RT1021/projects/alencon-systems/bootloader-v0.3/build/buffer_printf.o
Buffer_int16                                      /home/asmir/Desktop/Dropbox/MCU/nxp/RT1021/projects/alencon-systems/bootloader-v0.3/build/buffer_printf.o
Buffer_int32                                      /home/asmir/Desktop/Dropbox/MCU/nxp/RT1021/projects/alencon-systems/bootloader-v0.3/build/buffer_printf.o
Buffer_printf                                     /home/asmir/Desktop/Dropbox/MCU/nxp/RT1021/projects/alencon-systems/bootloader-v0.3/build/buffer_printf.o
Buffer_uint16                                     /home/asmir/Desktop/Dropbox/MCU/nxp/RT1021/projects/alencon-systems/bootloader-v0.3/build/buffer_printf.o
Buffer_uint32                                     /home/asmir/Desktop/Dropbox/MCU/nxp/RT1021/projects/alencon-systems/bootloader-v0.3/build/buffer_printf.o
Buffer_vprintf                                    /home/asmir/Desktop/Dropbox/MCU/nxp/RT1021/projects/alencon-systems/bootloader-v0.3/build/buffer_printf.o
                                                  /home/asmir/Desktop/Dropbox/MCU/nxp/RT1021/projects/alencon-systems/bootloader-v0.3/build/uart.o
BusFault_Handler                                  /home/asmir/Desktop/Dropbox/MCU/nxp/RT1021/projects/alencon-systems/bootloader-v0.3/build/debug.o
CAN1_DriverIRQHandler                             /home/asmir/Desktop/Dropbox/MCU/nxp/RT1021/projects/alencon-systems/bootloader-v0.3/build/startup_MIMXRT1021.o
CAN1_IRQHandler                                   /home/asmir/Desktop/Dropbox/MCU/nxp/RT1021/projects/alencon-systems/bootloader-v0.3/build/startup_MIMXRT1021.o
CAN2_DriverIRQHandler                             /home/asmir/Desktop/Dropbox/MCU/nxp/RT1021/projects/alencon-systems/bootloader-v0.3/build/startup_MIMXRT1021.o
CAN2_IRQHandler                                   /home/asmir/Desktop/Dropbox/MCU/nxp/RT1021/projects/alencon-systems/bootloader-v0.3/build/startup_MIMXRT1021.o
CCM_1_IRQHandler                                  /home/asmir/Desktop/Dropbox/MCU/nxp/RT1021/projects/alencon-systems/bootloader-v0.3/build/startup_MIMXRT1021.o
CCM_2_IRQHandler                                  /home/asmir/Desktop/Dropbox/MCU/nxp/RT1021/projects/alencon-systems/bootloader-v0.3/build/startup_MIMXRT1021.o
CLOCK_DeinitAudioPll                              /home/asmir/Desktop/Dropbox/MCU/nxp/RT1021/projects/alencon-systems/bootloader-v0.3/build/fsl_clock.o
                                                  /home/asmir/Desktop/Dropbox/MCU/nxp/RT1021/projects/alencon-systems/bootloader-v0.3/build/clock_config.o
CLOCK_DeinitEnetPll                               /home/asmir/Desktop/Dropbox/MCU/nxp/RT1021/projects/alencon-systems/bootloader-v0.3/build/fsl_clock.o
CLOCK_DeinitExternalClk                           /home/asmir/Desktop/Dropbox/MCU/nxp/RT1021/projects/alencon-systems/bootloader-v0.3/build/fsl_clock.o
CLOCK_DeinitRcOsc24M                              /home/asmir/Desktop/Dropbox/MCU/nxp/RT1021/projects/alencon-systems/bootloader-v0.3/build/fsl_clock.o
CLOCK_DeinitSysPfd                                /home/asmir/Desktop/Dropbox/MCU/nxp/RT1021/projects/alencon-systems/bootloader-v0.3/build/fsl_clock.o
CLOCK_DeinitSysPll                                /home/asmir/Desktop/Dropbox/MCU/nxp/RT1021/projects/alencon-systems/bootloader-v0.3/build/fsl_clock.o
CLOCK_DeinitUsb1Pfd                               /home/asmir/Desktop/Dropbox/MCU/nxp/RT1021/projects/alencon-systems/bootloader-v0.3/build/fsl_clock.o
CLOCK_DeinitUsb1Pll                               /home/asmir/Desktop/Dropbox/MCU/nxp/RT1021/projects/alencon-systems/bootloader-v0.3/build/fsl_clock.o
CLOCK_DisableUsbhs0PhyPllClock                    /home/asmir/Desktop/Dropbox/MCU/nxp/RT1021/projects/alencon-systems/bootloader-v0.3/build/fsl_clock.o
CLOCK_EnableUsbhs0Clock                           /home/asmir/Desktop/Dropbox/MCU/nxp/RT1021/projects/alencon-systems/bootloader-v0.3/build/fsl_clock.o
CLOCK_EnableUsbhs0PhyPllClock                     /home/asmir/Desktop/Dropbox/MCU/nxp/RT1021/projects/alencon-systems/bootloader-v0.3/build/fsl_clock.o
CLOCK_GetAhbFreq                                  /home/asmir/Desktop/Dropbox/MCU/nxp/RT1021/projects/alencon-systems/bootloader-v0.3/build/fsl_clock.o
CLOCK_GetClockOutCLKO1Freq                        /home/asmir/Desktop/Dropbox/MCU/nxp/RT1021/projects/alencon-systems/bootloader-v0.3/build/fsl_clock.o
CLOCK_GetClockOutClkO2Freq                        /home/asmir/Desktop/Dropbox/MCU/nxp/RT1021/projects/alencon-systems/bootloader-v0.3/build/fsl_clock.o
CLOCK_GetClockRootFreq                            /home/asmir/Desktop/Dropbox/MCU/nxp/RT1021/projects/alencon-systems/bootloader-v0.3/build/fsl_clock.o
CLOCK_GetFreq                                     /home/asmir/Desktop/Dropbox/MCU/nxp/RT1021/projects/alencon-systems/bootloader-v0.3/build/fsl_clock.o
CLOCK_GetIpgFreq                                  /home/asmir/Desktop/Dropbox/MCU/nxp/RT1021/projects/alencon-systems/bootloader-v0.3/build/fsl_clock.o
CLOCK_GetPerClkFreq                               /home/asmir/Desktop/Dropbox/MCU/nxp/RT1021/projects/alencon-systems/bootloader-v0.3/build/fsl_clock.o
CLOCK_GetPllFreq                                  /home/asmir/Desktop/Dropbox/MCU/nxp/RT1021/projects/alencon-systems/bootloader-v0.3/build/fsl_clock.o
                                                  /home/asmir/Desktop/Dropbox/MCU/nxp/RT1021/projects/alencon-systems/bootloader-v0.3/build/board.o
CLOCK_GetSemcFreq                                 /home/asmir/Desktop/Dropbox/MCU/nxp/RT1021/projects/alencon-systems/bootloader-v0.3/build/fsl_clock.o
CLOCK_GetSysPfdFreq                               /home/asmir/Desktop/Dropbox/MCU/nxp/RT1021/projects/alencon-systems/bootloader-v0.3/build/fsl_clock.o
CLOCK_GetUsb1PfdFreq                              /home/asmir/Desktop/Dropbox/MCU/nxp/RT1021/projects/alencon-systems/bootloader-v0.3/build/fsl_clock.o
CLOCK_InitAudioPll                                /home/asmir/Desktop/Dropbox/MCU/nxp/RT1021/projects/alencon-systems/bootloader-v0.3/build/fsl_clock.o
CLOCK_InitEnetPll                                 /home/asmir/Desktop/Dropbox/MCU/nxp/RT1021/projects/alencon-systems/bootloader-v0.3/build/fsl_clock.o
                                                  /home/asmir/Desktop/Dropbox/MCU/nxp/RT1021/projects/alencon-systems/bootloader-v0.3/build/clock_config.o
CLOCK_InitExternalClk                             /home/asmir/Desktop/Dropbox/MCU/nxp/RT1021/projects/alencon-systems/bootloader-v0.3/build/fsl_clock.o
                                                  /home/asmir/Desktop/Dropbox/MCU/nxp/RT1021/projects/alencon-systems/bootloader-v0.3/build/clock_config.o
CLOCK_InitRcOsc24M                                /home/asmir/Desktop/Dropbox/MCU/nxp/RT1021/projects/alencon-systems/bootloader-v0.3/build/fsl_clock.o
                                                  /home/asmir/Desktop/Dropbox/MCU/nxp/RT1021/projects/alencon-systems/bootloader-v0.3/build/clock_config.o
CLOCK_InitSysPfd                                  /home/asmir/Desktop/Dropbox/MCU/nxp/RT1021/projects/alencon-systems/bootloader-v0.3/build/fsl_clock.o
                                                  /home/asmir/Desktop/Dropbox/MCU/nxp/RT1021/projects/alencon-systems/bootloader-v0.3/build/flexspi_nor_flash_ops.o
CLOCK_InitSysPll                                  /home/asmir/Desktop/Dropbox/MCU/nxp/RT1021/projects/alencon-systems/bootloader-v0.3/build/fsl_clock.o
CLOCK_InitUsb1Pfd                                 /home/asmir/Desktop/Dropbox/MCU/nxp/RT1021/projects/alencon-systems/bootloader-v0.3/build/fsl_clock.o
CLOCK_InitUsb1Pll                                 /home/asmir/Desktop/Dropbox/MCU/nxp/RT1021/projects/alencon-systems/bootloader-v0.3/build/fsl_clock.o
CLOCK_IsSysPfdEnabled                             /home/asmir/Desktop/Dropbox/MCU/nxp/RT1021/projects/alencon-systems/bootloader-v0.3/build/fsl_clock.o
CLOCK_IsUsb1PfdEnabled                            /home/asmir/Desktop/Dropbox/MCU/nxp/RT1021/projects/alencon-systems/bootloader-v0.3/build/fsl_clock.o
CLOCK_SetClockOutput1                             /home/asmir/Desktop/Dropbox/MCU/nxp/RT1021/projects/alencon-systems/bootloader-v0.3/build/fsl_clock.o
CLOCK_SetClockOutput2                             /home/asmir/Desktop/Dropbox/MCU/nxp/RT1021/projects/alencon-systems/bootloader-v0.3/build/fsl_clock.o
CLOCK_SwitchOsc                                   /home/asmir/Desktop/Dropbox/MCU/nxp/RT1021/projects/alencon-systems/bootloader-v0.3/build/fsl_clock.o
                                                  /home/asmir/Desktop/Dropbox/MCU/nxp/RT1021/projects/alencon-systems/bootloader-v0.3/build/clock_config.o
CORE_IRQHandler                                   /home/asmir/Desktop/Dropbox/MCU/nxp/RT1021/projects/alencon-systems/bootloader-v0.3/build/startup_MIMXRT1021.o
CRC16_Update                                      /home/asmir/Desktop/Dropbox/MCU/nxp/RT1021/projects/alencon-systems/bootloader-v0.3/build/crc16.o
                                                  /home/asmir/Desktop/Dropbox/MCU/nxp/RT1021/projects/alencon-systems/bootloader-v0.3/build/AlenconModbusBootloader.o
CSU_IRQHandler                                    /home/asmir/Desktop/Dropbox/MCU/nxp/RT1021/projects/alencon-systems/bootloader-v0.3/build/startup_MIMXRT1021.o
CTI0_ERROR_IRQHandler                             /home/asmir/Desktop/Dropbox/MCU/nxp/RT1021/projects/alencon-systems/bootloader-v0.3/build/startup_MIMXRT1021.o
CTI1_ERROR_IRQHandler                             /home/asmir/Desktop/Dropbox/MCU/nxp/RT1021/projects/alencon-systems/bootloader-v0.3/build/startup_MIMXRT1021.o
CharReceiverList_Add                              /home/asmir/Desktop/Dropbox/MCU/nxp/RT1021/projects/alencon-systems/bootloader-v0.3/build/charReceiverList.o
CharReceiverList_Init                             /home/asmir/Desktop/Dropbox/MCU/nxp/RT1021/projects/alencon-systems/bootloader-v0.3/build/charReceiverList.o
CharReceiverList_Remove                           /home/asmir/Desktop/Dropbox/MCU/nxp/RT1021/projects/alencon-systems/bootloader-v0.3/build/charReceiverList.o
CharReceiverList_Run                              /home/asmir/Desktop/Dropbox/MCU/nxp/RT1021/projects/alencon-systems/bootloader-v0.3/build/charReceiverList.o
DCACHE_CleanByRange                               /home/asmir/Desktop/Dropbox/MCU/nxp/RT1021/projects/alencon-systems/bootloader-v0.3/build/fsl_cache.o
DCACHE_CleanInvalidateByRange                     /home/asmir/Desktop/Dropbox/MCU/nxp/RT1021/projects/alencon-systems/bootloader-v0.3/build/fsl_cache.o
DCACHE_InvalidateByRange                          /home/asmir/Desktop/Dropbox/MCU/nxp/RT1021/projects/alencon-systems/bootloader-v0.3/build/fsl_cache.o
                                                  /home/asmir/Desktop/Dropbox/MCU/nxp/RT1021/projects/alencon-systems/bootloader-v0.3/build/hal_eeprom.o
                                                  /home/asmir/Desktop/Dropbox/MCU/nxp/RT1021/projects/alencon-systems/bootloader-v0.3/build/flash.o
DCDC_IRQHandler                                   /home/asmir/Desktop/Dropbox/MCU/nxp/RT1021/projects/alencon-systems/bootloader-v0.3/build/startup_MIMXRT1021.o
DCP_IRQHandler                                    /home/asmir/Desktop/Dropbox/MCU/nxp/RT1021/projects/alencon-systems/bootloader-v0.3/build/startup_MIMXRT1021.o
DCP_VMI_IRQHandler                                /home/asmir/Desktop/Dropbox/MCU/nxp/RT1021/projects/alencon-systems/bootloader-v0.3/build/startup_MIMXRT1021.o
DMA0_DMA16_DriverIRQHandler                       /home/asmir/Desktop/Dropbox/MCU/nxp/RT1021/projects/alencon-systems/bootloader-v0.3/build/startup_MIMXRT1021.o
DMA0_DMA16_IRQHandler                             /home/asmir/Desktop/Dropbox/MCU/nxp/RT1021/projects/alencon-systems/bootloader-v0.3/build/startup_MIMXRT1021.o
DMA10_DMA26_DriverIRQHandler                      /home/asmir/Desktop/Dropbox/MCU/nxp/RT1021/projects/alencon-systems/bootloader-v0.3/build/startup_MIMXRT1021.o
DMA10_DMA26_IRQHandler                            /home/asmir/Desktop/Dropbox/MCU/nxp/RT1021/projects/alencon-systems/bootloader-v0.3/build/startup_MIMXRT1021.o
DMA11_DMA27_DriverIRQHandler                      /home/asmir/Desktop/Dropbox/MCU/nxp/RT1021/projects/alencon-systems/bootloader-v0.3/build/startup_MIMXRT1021.o
DMA11_DMA27_IRQHandler                            /home/asmir/Desktop/Dropbox/MCU/nxp/RT1021/projects/alencon-systems/bootloader-v0.3/build/startup_MIMXRT1021.o
DMA12_DMA28_DriverIRQHandler                      /home/asmir/Desktop/Dropbox/MCU/nxp/RT1021/projects/alencon-systems/bootloader-v0.3/build/startup_MIMXRT1021.o
DMA12_DMA28_IRQHandler                            /home/asmir/Desktop/Dropbox/MCU/nxp/RT1021/projects/alencon-systems/bootloader-v0.3/build/startup_MIMXRT1021.o
DMA13_DMA29_DriverIRQHandler                      /home/asmir/Desktop/Dropbox/MCU/nxp/RT1021/projects/alencon-systems/bootloader-v0.3/build/startup_MIMXRT1021.o
DMA13_DMA29_IRQHandler                            /home/asmir/Desktop/Dropbox/MCU/nxp/RT1021/projects/alencon-systems/bootloader-v0.3/build/startup_MIMXRT1021.o
DMA14_DMA30_DriverIRQHandler                      /home/asmir/Desktop/Dropbox/MCU/nxp/RT1021/projects/alencon-systems/bootloader-v0.3/build/startup_MIMXRT1021.o
DMA14_DMA30_IRQHandler                            /home/asmir/Desktop/Dropbox/MCU/nxp/RT1021/projects/alencon-systems/bootloader-v0.3/build/startup_MIMXRT1021.o
DMA15_DMA31_DriverIRQHandler                      /home/asmir/Desktop/Dropbox/MCU/nxp/RT1021/projects/alencon-systems/bootloader-v0.3/build/startup_MIMXRT1021.o
DMA15_DMA31_IRQHandler                            /home/asmir/Desktop/Dropbox/MCU/nxp/RT1021/projects/alencon-systems/bootloader-v0.3/build/startup_MIMXRT1021.o
DMA1_DMA17_DriverIRQHandler                       /home/asmir/Desktop/Dropbox/MCU/nxp/RT1021/projects/alencon-systems/bootloader-v0.3/build/startup_MIMXRT1021.o
DMA1_DMA17_IRQHandler                             /home/asmir/Desktop/Dropbox/MCU/nxp/RT1021/projects/alencon-systems/bootloader-v0.3/build/startup_MIMXRT1021.o
DMA2_DMA18_DriverIRQHandler                       /home/asmir/Desktop/Dropbox/MCU/nxp/RT1021/projects/alencon-systems/bootloader-v0.3/build/startup_MIMXRT1021.o
DMA2_DMA18_IRQHandler                             /home/asmir/Desktop/Dropbox/MCU/nxp/RT1021/projects/alencon-systems/bootloader-v0.3/build/startup_MIMXRT1021.o
DMA3_DMA19_DriverIRQHandler                       /home/asmir/Desktop/Dropbox/MCU/nxp/RT1021/projects/alencon-systems/bootloader-v0.3/build/startup_MIMXRT1021.o
DMA3_DMA19_IRQHandler                             /home/asmir/Desktop/Dropbox/MCU/nxp/RT1021/projects/alencon-systems/bootloader-v0.3/build/startup_MIMXRT1021.o
DMA4_DMA20_DriverIRQHandler                       /home/asmir/Desktop/Dropbox/MCU/nxp/RT1021/projects/alencon-systems/bootloader-v0.3/build/startup_MIMXRT1021.o
DMA4_DMA20_IRQHandler                             /home/asmir/Desktop/Dropbox/MCU/nxp/RT1021/projects/alencon-systems/bootloader-v0.3/build/startup_MIMXRT1021.o
DMA5_DMA21_DriverIRQHandler                       /home/asmir/Desktop/Dropbox/MCU/nxp/RT1021/projects/alencon-systems/bootloader-v0.3/build/startup_MIMXRT1021.o
DMA5_DMA21_IRQHandler                             /home/asmir/Desktop/Dropbox/MCU/nxp/RT1021/projects/alencon-systems/bootloader-v0.3/build/startup_MIMXRT1021.o
DMA6_DMA22_DriverIRQHandler                       /home/asmir/Desktop/Dropbox/MCU/nxp/RT1021/projects/alencon-systems/bootloader-v0.3/build/startup_MIMXRT1021.o
DMA6_DMA22_IRQHandler                             /home/asmir/Desktop/Dropbox/MCU/nxp/RT1021/projects/alencon-systems/bootloader-v0.3/build/startup_MIMXRT1021.o
DMA7_DMA23_DriverIRQHandler                       /home/asmir/Desktop/Dropbox/MCU/nxp/RT1021/projects/alencon-systems/bootloader-v0.3/build/startup_MIMXRT1021.o
DMA7_DMA23_IRQHandler                             /home/asmir/Desktop/Dropbox/MCU/nxp/RT1021/projects/alencon-systems/bootloader-v0.3/build/startup_MIMXRT1021.o
DMA8_DMA24_DriverIRQHandler                       /home/asmir/Desktop/Dropbox/MCU/nxp/RT1021/projects/alencon-systems/bootloader-v0.3/build/startup_MIMXRT1021.o
DMA8_DMA24_IRQHandler                             /home/asmir/Desktop/Dropbox/MCU/nxp/RT1021/projects/alencon-systems/bootloader-v0.3/build/startup_MIMXRT1021.o
DMA9_DMA25_DriverIRQHandler                       /home/asmir/Desktop/Dropbox/MCU/nxp/RT1021/projects/alencon-systems/bootloader-v0.3/build/startup_MIMXRT1021.o
DMA9_DMA25_IRQHandler                             /home/asmir/Desktop/Dropbox/MCU/nxp/RT1021/projects/alencon-systems/bootloader-v0.3/build/startup_MIMXRT1021.o
DMA_ERROR_DriverIRQHandler                        /home/asmir/Desktop/Dropbox/MCU/nxp/RT1021/projects/alencon-systems/bootloader-v0.3/build/startup_MIMXRT1021.o
DMA_ERROR_IRQHandler                              /home/asmir/Desktop/Dropbox/MCU/nxp/RT1021/projects/alencon-systems/bootloader-v0.3/build/startup_MIMXRT1021.o
DebugMon_Handler                                  /home/asmir/Desktop/Dropbox/MCU/nxp/RT1021/projects/alencon-systems/bootloader-v0.3/build/startup_MIMXRT1021.o
DefaultISR                                        /home/asmir/Desktop/Dropbox/MCU/nxp/RT1021/projects/alencon-systems/bootloader-v0.3/build/startup_MIMXRT1021.o
DelayMs                                           /home/asmir/Desktop/Dropbox/MCU/nxp/RT1021/projects/alencon-systems/bootloader-v0.3/build/timing.o
                                                  /home/asmir/Desktop/Dropbox/MCU/nxp/RT1021/projects/alencon-systems/bootloader-v0.3/build/mbporttimer.o
                                                  /home/asmir/Desktop/Dropbox/MCU/nxp/RT1021/projects/alencon-systems/bootloader-v0.3/build/AlenconModbusBootloader.o
DelayUs                                           /home/asmir/Desktop/Dropbox/MCU/nxp/RT1021/projects/alencon-systems/bootloader-v0.3/build/timing.o
EEPROM_Init                                       /home/asmir/Desktop/Dropbox/MCU/nxp/RT1021/projects/alencon-systems/bootloader-v0.3/build/eeprom.o
                                                  /home/asmir/Desktop/Dropbox/MCU/nxp/RT1021/projects/alencon-systems/bootloader-v0.3/build/AlenconModbusBootloader.o
EEPROM_Read                                       /home/asmir/Desktop/Dropbox/MCU/nxp/RT1021/projects/alencon-systems/bootloader-v0.3/build/eeprom.o
                                                  /home/asmir/Desktop/Dropbox/MCU/nxp/RT1021/projects/alencon-systems/bootloader-v0.3/build/AlenconModbusBootloader.o
EEPROM_Write                                      /home/asmir/Desktop/Dropbox/MCU/nxp/RT1021/projects/alencon-systems/bootloader-v0.3/build/eeprom.o
ENC1_IRQHandler                                   /home/asmir/Desktop/Dropbox/MCU/nxp/RT1021/projects/alencon-systems/bootloader-v0.3/build/startup_MIMXRT1021.o
ENC2_IRQHandler                                   /home/asmir/Desktop/Dropbox/MCU/nxp/RT1021/projects/alencon-systems/bootloader-v0.3/build/startup_MIMXRT1021.o
ENET_1588_Timer_DriverIRQHandler                  /home/asmir/Desktop/Dropbox/MCU/nxp/RT1021/projects/alencon-systems/bootloader-v0.3/build/startup_MIMXRT1021.o
ENET_1588_Timer_IRQHandler                        /home/asmir/Desktop/Dropbox/MCU/nxp/RT1021/projects/alencon-systems/bootloader-v0.3/build/startup_MIMXRT1021.o
ENET_DriverIRQHandler                             /home/asmir/Desktop/Dropbox/MCU/nxp/RT1021/projects/alencon-systems/bootloader-v0.3/build/startup_MIMXRT1021.o
ENET_IRQHandler                                   /home/asmir/Desktop/Dropbox/MCU/nxp/RT1021/projects/alencon-systems/bootloader-v0.3/build/startup_MIMXRT1021.o
EWM_IRQHandler                                    /home/asmir/Desktop/Dropbox/MCU/nxp/RT1021/projects/alencon-systems/bootloader-v0.3/build/startup_MIMXRT1021.o
FIRMWARE_VERSION                                  /home/asmir/Desktop/Dropbox/MCU/nxp/RT1021/projects/alencon-systems/bootloader-v0.3/build/fwver.o
                                                  /home/asmir/Desktop/Dropbox/MCU/nxp/RT1021/projects/alencon-systems/bootloader-v0.3/build/debug.o
FLASH_EraseSector                                 /home/asmir/Desktop/Dropbox/MCU/nxp/RT1021/projects/alencon-systems/bootloader-v0.3/build/flash.o
                                                  /home/asmir/Desktop/Dropbox/MCU/nxp/RT1021/projects/alencon-systems/bootloader-v0.3/build/AlenconModbusBootloader.o
FLASH_Init                                        /home/asmir/Desktop/Dropbox/MCU/nxp/RT1021/projects/alencon-systems/bootloader-v0.3/build/flash.o
                                                  /home/asmir/Desktop/Dropbox/MCU/nxp/RT1021/projects/alencon-systems/bootloader-v0.3/build/AlenconModbusBootloader.o
FLASH_Program                                     /home/asmir/Desktop/Dropbox/MCU/nxp/RT1021/projects/alencon-systems/bootloader-v0.3/build/flash.o
                                                  /home/asmir/Desktop/Dropbox/MCU/nxp/RT1021/projects/alencon-systems/bootloader-v0.3/build/AlenconModbusBootloader.o
FLEXIO1_DriverIRQHandler                          /home/asmir/Desktop/Dropbox/MCU/nxp/RT1021/projects/alencon-systems/bootloader-v0.3/build/startup_MIMXRT1021.o
FLEXIO1_IRQHandler                                /home/asmir/Desktop/Dropbox/MCU/nxp/RT1021/projects/alencon-systems/bootloader-v0.3/build/startup_MIMXRT1021.o
FLEXRAM_IRQHandler                                /home/asmir/Desktop/Dropbox/MCU/nxp/RT1021/projects/alencon-systems/bootloader-v0.3/build/startup_MIMXRT1021.o
FLEXSPI_CheckAndClearError                        /home/asmir/Desktop/Dropbox/MCU/nxp/RT1021/projects/alencon-systems/bootloader-v0.3/build/fsl_flexspi.o
FLEXSPI_Deinit                                    /home/asmir/Desktop/Dropbox/MCU/nxp/RT1021/projects/alencon-systems/bootloader-v0.3/build/fsl_flexspi.o
FLEXSPI_DriverIRQHandler                          /home/asmir/Desktop/Dropbox/MCU/nxp/RT1021/projects/alencon-systems/bootloader-v0.3/build/fsl_flexspi.o
FLEXSPI_GetDefaultConfig                          /home/asmir/Desktop/Dropbox/MCU/nxp/RT1021/projects/alencon-systems/bootloader-v0.3/build/fsl_flexspi.o
                                                  /home/asmir/Desktop/Dropbox/MCU/nxp/RT1021/projects/alencon-systems/bootloader-v0.3/build/flexspi_nor_flash_ops.o
FLEXSPI_GetInstance                               /home/asmir/Desktop/Dropbox/MCU/nxp/RT1021/projects/alencon-systems/bootloader-v0.3/build/fsl_flexspi.o
FLEXSPI_IRQHandler                                /home/asmir/Desktop/Dropbox/MCU/nxp/RT1021/projects/alencon-systems/bootloader-v0.3/build/startup_MIMXRT1021.o
FLEXSPI_Init                                      /home/asmir/Desktop/Dropbox/MCU/nxp/RT1021/projects/alencon-systems/bootloader-v0.3/build/fsl_flexspi.o
                                                  /home/asmir/Desktop/Dropbox/MCU/nxp/RT1021/projects/alencon-systems/bootloader-v0.3/build/flexspi_nor_flash_ops.o
FLEXSPI_ReadBlocking                              /home/asmir/Desktop/Dropbox/MCU/nxp/RT1021/projects/alencon-systems/bootloader-v0.3/build/fsl_flexspi.o
FLEXSPI_SetFlashConfig                            /home/asmir/Desktop/Dropbox/MCU/nxp/RT1021/projects/alencon-systems/bootloader-v0.3/build/fsl_flexspi.o
                                                  /home/asmir/Desktop/Dropbox/MCU/nxp/RT1021/projects/alencon-systems/bootloader-v0.3/build/flexspi_nor_flash_ops.o
FLEXSPI_TransferAbort                             /home/asmir/Desktop/Dropbox/MCU/nxp/RT1021/projects/alencon-systems/bootloader-v0.3/build/fsl_flexspi.o
FLEXSPI_TransferBlocking                          /home/asmir/Desktop/Dropbox/MCU/nxp/RT1021/projects/alencon-systems/bootloader-v0.3/build/fsl_flexspi.o
                                                  /home/asmir/Desktop/Dropbox/MCU/nxp/RT1021/projects/alencon-systems/bootloader-v0.3/build/flexspi_nor_flash_ops.o
FLEXSPI_TransferCreateHandle                      /home/asmir/Desktop/Dropbox/MCU/nxp/RT1021/projects/alencon-systems/bootloader-v0.3/build/fsl_flexspi.o
FLEXSPI_TransferGetCount                          /home/asmir/Desktop/Dropbox/MCU/nxp/RT1021/projects/alencon-systems/bootloader-v0.3/build/fsl_flexspi.o
FLEXSPI_TransferHandleIRQ                         /home/asmir/Desktop/Dropbox/MCU/nxp/RT1021/projects/alencon-systems/bootloader-v0.3/build/fsl_flexspi.o
FLEXSPI_TransferNonBlocking                       /home/asmir/Desktop/Dropbox/MCU/nxp/RT1021/projects/alencon-systems/bootloader-v0.3/build/fsl_flexspi.o
FLEXSPI_UpdateDllValue                            /home/asmir/Desktop/Dropbox/MCU/nxp/RT1021/projects/alencon-systems/bootloader-v0.3/build/fsl_flexspi.o
FLEXSPI_UpdateLUT                                 /home/asmir/Desktop/Dropbox/MCU/nxp/RT1021/projects/alencon-systems/bootloader-v0.3/build/fsl_flexspi.o
                                                  /home/asmir/Desktop/Dropbox/MCU/nxp/RT1021/projects/alencon-systems/bootloader-v0.3/build/flexspi_nor_flash_ops.o
FLEXSPI_UpdateRxSampleClock                       /home/asmir/Desktop/Dropbox/MCU/nxp/RT1021/projects/alencon-systems/bootloader-v0.3/build/fsl_flexspi.o
FLEXSPI_WriteBlocking                             /home/asmir/Desktop/Dropbox/MCU/nxp/RT1021/projects/alencon-systems/bootloader-v0.3/build/fsl_flexspi.o
GPC_IRQHandler                                    /home/asmir/Desktop/Dropbox/MCU/nxp/RT1021/projects/alencon-systems/bootloader-v0.3/build/startup_MIMXRT1021.o
GPIO1_Combined_0_15_IRQHandler                    /home/asmir/Desktop/Dropbox/MCU/nxp/RT1021/projects/alencon-systems/bootloader-v0.3/build/startup_MIMXRT1021.o
GPIO1_Combined_16_31_IRQHandler                   /home/asmir/Desktop/Dropbox/MCU/nxp/RT1021/projects/alencon-systems/bootloader-v0.3/build/startup_MIMXRT1021.o
GPIO1_INT0_IRQHandler                             /home/asmir/Desktop/Dropbox/MCU/nxp/RT1021/projects/alencon-systems/bootloader-v0.3/build/startup_MIMXRT1021.o
GPIO1_INT1_IRQHandler                             /home/asmir/Desktop/Dropbox/MCU/nxp/RT1021/projects/alencon-systems/bootloader-v0.3/build/startup_MIMXRT1021.o
GPIO1_INT2_IRQHandler                             /home/asmir/Desktop/Dropbox/MCU/nxp/RT1021/projects/alencon-systems/bootloader-v0.3/build/startup_MIMXRT1021.o
GPIO1_INT3_IRQHandler                             /home/asmir/Desktop/Dropbox/MCU/nxp/RT1021/projects/alencon-systems/bootloader-v0.3/build/startup_MIMXRT1021.o
GPIO1_INT4_IRQHandler                             /home/asmir/Desktop/Dropbox/MCU/nxp/RT1021/projects/alencon-systems/bootloader-v0.3/build/startup_MIMXRT1021.o
GPIO1_INT5_IRQHandler                             /home/asmir/Desktop/Dropbox/MCU/nxp/RT1021/projects/alencon-systems/bootloader-v0.3/build/startup_MIMXRT1021.o
GPIO1_INT6_IRQHandler                             /home/asmir/Desktop/Dropbox/MCU/nxp/RT1021/projects/alencon-systems/bootloader-v0.3/build/startup_MIMXRT1021.o
GPIO1_INT7_IRQHandler                             /home/asmir/Desktop/Dropbox/MCU/nxp/RT1021/projects/alencon-systems/bootloader-v0.3/build/startup_MIMXRT1021.o
GPIO2_Combined_0_15_IRQHandler                    /home/asmir/Desktop/Dropbox/MCU/nxp/RT1021/projects/alencon-systems/bootloader-v0.3/build/startup_MIMXRT1021.o
GPIO2_Combined_16_31_IRQHandler                   /home/asmir/Desktop/Dropbox/MCU/nxp/RT1021/projects/alencon-systems/bootloader-v0.3/build/startup_MIMXRT1021.o
GPIO3_Combined_0_15_IRQHandler                    /home/asmir/Desktop/Dropbox/MCU/nxp/RT1021/projects/alencon-systems/bootloader-v0.3/build/startup_MIMXRT1021.o
GPIO3_Combined_16_31_IRQHandler                   /home/asmir/Desktop/Dropbox/MCU/nxp/RT1021/projects/alencon-systems/bootloader-v0.3/build/startup_MIMXRT1021.o
GPIO5_Combined_0_15_IRQHandler                    /home/asmir/Desktop/Dropbox/MCU/nxp/RT1021/projects/alencon-systems/bootloader-v0.3/build/startup_MIMXRT1021.o
GPIO5_Combined_16_31_IRQHandler                   /home/asmir/Desktop/Dropbox/MCU/nxp/RT1021/projects/alencon-systems/bootloader-v0.3/build/startup_MIMXRT1021.o
GPIO_PinInit                                      /home/asmir/Desktop/Dropbox/MCU/nxp/RT1021/projects/alencon-systems/bootloader-v0.3/build/fsl_gpio.o
GPIO_PinSetInterruptConfig                        /home/asmir/Desktop/Dropbox/MCU/nxp/RT1021/projects/alencon-systems/bootloader-v0.3/build/fsl_gpio.o
GPIO_PinWrite                                     /home/asmir/Desktop/Dropbox/MCU/nxp/RT1021/projects/alencon-systems/bootloader-v0.3/build/fsl_gpio.o
GPR_IRQ_IRQHandler                                /home/asmir/Desktop/Dropbox/MCU/nxp/RT1021/projects/alencon-systems/bootloader-v0.3/build/startup_MIMXRT1021.o
GPT1_IRQHandler                                   /home/asmir/Desktop/Dropbox/MCU/nxp/RT1021/projects/alencon-systems/bootloader-v0.3/build/startup_MIMXRT1021.o
GPT2_IRQHandler                                   /home/asmir/Desktop/Dropbox/MCU/nxp/RT1021/projects/alencon-systems/bootloader-v0.3/build/startup_MIMXRT1021.o
GetActivePage                                     /home/asmir/Desktop/Dropbox/MCU/nxp/RT1021/projects/alencon-systems/bootloader-v0.3/build/hal_eeprom.o
GetNextLocation                                   /home/asmir/Desktop/Dropbox/MCU/nxp/RT1021/projects/alencon-systems/bootloader-v0.3/build/hal_eeprom.o
GetSubsystemName                                  /home/asmir/Desktop/Dropbox/MCU/nxp/RT1021/projects/alencon-systems/bootloader-v0.3/build/subsys.o
HardFault_Handler                                 /home/asmir/Desktop/Dropbox/MCU/nxp/RT1021/projects/alencon-systems/bootloader-v0.3/build/debug.o
HardFault_HandlerC                                /home/asmir/Desktop/Dropbox/MCU/nxp/RT1021/projects/alencon-systems/bootloader-v0.3/build/debug.o
Hardware_GetGUID                                  /home/asmir/Desktop/Dropbox/MCU/nxp/RT1021/projects/alencon-systems/bootloader-v0.3/build/hardware.o
                                                  /home/asmir/Desktop/Dropbox/MCU/nxp/RT1021/projects/alencon-systems/bootloader-v0.3/build/AlenconModbusBootloader.o
Hardware_GetID                                    /home/asmir/Desktop/Dropbox/MCU/nxp/RT1021/projects/alencon-systems/bootloader-v0.3/build/hardware.o
                                                  /home/asmir/Desktop/Dropbox/MCU/nxp/RT1021/projects/alencon-systems/bootloader-v0.3/build/AlenconModbusBootloader.o
Hardware_GetMCU                                   /home/asmir/Desktop/Dropbox/MCU/nxp/RT1021/projects/alencon-systems/bootloader-v0.3/build/hardware.o
                                                  /home/asmir/Desktop/Dropbox/MCU/nxp/RT1021/projects/alencon-systems/bootloader-v0.3/build/AlenconModbusBootloader.o
Hardware_Has1_65VrefOnPTC0                        /home/asmir/Desktop/Dropbox/MCU/nxp/RT1021/projects/alencon-systems/bootloader-v0.3/build/hardware.o
Hardware_HasAuxUVP                                /home/asmir/Desktop/Dropbox/MCU/nxp/RT1021/projects/alencon-systems/bootloader-v0.3/build/hardware.o
Hardware_HasBatteryGateFaultDetection             /home/asmir/Desktop/Dropbox/MCU/nxp/RT1021/projects/alencon-systems/bootloader-v0.3/build/hardware.o
Hardware_HasBidirectionalDCDC                     /home/asmir/Desktop/Dropbox/MCU/nxp/RT1021/projects/alencon-systems/bootloader-v0.3/build/hardware.o
                                                  /home/asmir/Desktop/Dropbox/MCU/nxp/RT1021/projects/alencon-systems/bootloader-v0.3/build/AlenconModbusBootloader.o
Hardware_HasBuckboostTopology                     /home/asmir/Desktop/Dropbox/MCU/nxp/RT1021/projects/alencon-systems/bootloader-v0.3/build/hardware.o
Hardware_HasDabTopology                           /home/asmir/Desktop/Dropbox/MCU/nxp/RT1021/projects/alencon-systems/bootloader-v0.3/build/hardware.o
                                                  /home/asmir/Desktop/Dropbox/MCU/nxp/RT1021/projects/alencon-systems/bootloader-v0.3/build/AlenconModbusBootloader.o
Hardware_HasDiagnosticUART                        /home/asmir/Desktop/Dropbox/MCU/nxp/RT1021/projects/alencon-systems/bootloader-v0.3/build/hardware.o
                                                  /home/asmir/Desktop/Dropbox/MCU/nxp/RT1021/projects/alencon-systems/bootloader-v0.3/build/AlenconModbusBootloader.o
Hardware_HasExternalFan                           /home/asmir/Desktop/Dropbox/MCU/nxp/RT1021/projects/alencon-systems/bootloader-v0.3/build/hardware.o
Hardware_HasFaultyZeroCurrentOffset               /home/asmir/Desktop/Dropbox/MCU/nxp/RT1021/projects/alencon-systems/bootloader-v0.3/build/hardware.o
Hardware_HasGroundFaultDetector                   /home/asmir/Desktop/Dropbox/MCU/nxp/RT1021/projects/alencon-systems/bootloader-v0.3/build/hardware.o
Hardware_HasHO25CurrentSensor                     /home/asmir/Desktop/Dropbox/MCU/nxp/RT1021/projects/alencon-systems/bootloader-v0.3/build/hardware.o
Hardware_HasHumiditySensor                        /home/asmir/Desktop/Dropbox/MCU/nxp/RT1021/projects/alencon-systems/bootloader-v0.3/build/hardware.o
Hardware_HasLatestVoltageGain                     /home/asmir/Desktop/Dropbox/MCU/nxp/RT1021/projects/alencon-systems/bootloader-v0.3/build/hardware.o
Hardware_HasMKV5Pinout                            /home/asmir/Desktop/Dropbox/MCU/nxp/RT1021/projects/alencon-systems/bootloader-v0.3/build/hardware.o
Hardware_HasNewGateDriver                         /home/asmir/Desktop/Dropbox/MCU/nxp/RT1021/projects/alencon-systems/bootloader-v0.3/build/hardware.o
Hardware_HasOVP_Internal_Comparator               /home/asmir/Desktop/Dropbox/MCU/nxp/RT1021/projects/alencon-systems/bootloader-v0.3/build/hardware.o
Hardware_HasRJ45_Shutdown                         /home/asmir/Desktop/Dropbox/MCU/nxp/RT1021/projects/alencon-systems/bootloader-v0.3/build/hardware.o
Hardware_HasResonantTopology                      /home/asmir/Desktop/Dropbox/MCU/nxp/RT1021/projects/alencon-systems/bootloader-v0.3/build/hardware.o
Hardware_HasSecondExternalFan                     /home/asmir/Desktop/Dropbox/MCU/nxp/RT1021/projects/alencon-systems/bootloader-v0.3/build/hardware.o
Hardware_HasSecondOVP                             /home/asmir/Desktop/Dropbox/MCU/nxp/RT1021/projects/alencon-systems/bootloader-v0.3/build/hardware.o
Hardware_HasSecondaryDriverBoard                  /home/asmir/Desktop/Dropbox/MCU/nxp/RT1021/projects/alencon-systems/bootloader-v0.3/build/hardware.o
Hardware_HasSpotV6PinoutCMP                       /home/asmir/Desktop/Dropbox/MCU/nxp/RT1021/projects/alencon-systems/bootloader-v0.3/build/hardware.o
Hardware_HasTransformerTemperatureSensor          /home/asmir/Desktop/Dropbox/MCU/nxp/RT1021/projects/alencon-systems/bootloader-v0.3/build/hardware.o
Hardware_HasV3ADC0                                /home/asmir/Desktop/Dropbox/MCU/nxp/RT1021/projects/alencon-systems/bootloader-v0.3/build/hardware.o
Hardware_HasV4ADC0                                /home/asmir/Desktop/Dropbox/MCU/nxp/RT1021/projects/alencon-systems/bootloader-v0.3/build/hardware.o
Hardware_HasVincotechThermistor                   /home/asmir/Desktop/Dropbox/MCU/nxp/RT1021/projects/alencon-systems/bootloader-v0.3/build/hardware.o
ICACHE_InvalidateByRange                          /home/asmir/Desktop/Dropbox/MCU/nxp/RT1021/projects/alencon-systems/bootloader-v0.3/build/fsl_cache.o
JumpAddress                                       /home/asmir/Desktop/Dropbox/MCU/nxp/RT1021/projects/alencon-systems/bootloader-v0.3/build/bootloader.o
JumpToAppStateMachine                             /home/asmir/Desktop/Dropbox/MCU/nxp/RT1021/projects/alencon-systems/bootloader-v0.3/build/bootloader.o
JumpToUserApplication                             /home/asmir/Desktop/Dropbox/MCU/nxp/RT1021/projects/alencon-systems/bootloader-v0.3/build/bootloader.o
Jump_To_Application                               /home/asmir/Desktop/Dropbox/MCU/nxp/RT1021/projects/alencon-systems/bootloader-v0.3/build/bootloader.o
KPP_IRQHandler                                    /home/asmir/Desktop/Dropbox/MCU/nxp/RT1021/projects/alencon-systems/bootloader-v0.3/build/startup_MIMXRT1021.o
L1CACHE_InvalidateICacheByRange                   /home/asmir/Desktop/Dropbox/MCU/nxp/RT1021/projects/alencon-systems/bootloader-v0.3/build/fsl_cache.o
LIST_AddHead                                      /home/asmir/Desktop/Dropbox/MCU/nxp/RT1021/projects/alencon-systems/bootloader-v0.3/build/fsl_component_generic_list.o
LIST_AddPrevElement                               /home/asmir/Desktop/Dropbox/MCU/nxp/RT1021/projects/alencon-systems/bootloader-v0.3/build/fsl_component_generic_list.o
LIST_AddTail                                      /home/asmir/Desktop/Dropbox/MCU/nxp/RT1021/projects/alencon-systems/bootloader-v0.3/build/fsl_component_generic_list.o
LIST_GetAvailableSize                             /home/asmir/Desktop/Dropbox/MCU/nxp/RT1021/projects/alencon-systems/bootloader-v0.3/build/fsl_component_generic_list.o
LIST_GetHead                                      /home/asmir/Desktop/Dropbox/MCU/nxp/RT1021/projects/alencon-systems/bootloader-v0.3/build/fsl_component_generic_list.o
LIST_GetList                                      /home/asmir/Desktop/Dropbox/MCU/nxp/RT1021/projects/alencon-systems/bootloader-v0.3/build/fsl_component_generic_list.o
LIST_GetNext                                      /home/asmir/Desktop/Dropbox/MCU/nxp/RT1021/projects/alencon-systems/bootloader-v0.3/build/fsl_component_generic_list.o
LIST_GetPrev                                      /home/asmir/Desktop/Dropbox/MCU/nxp/RT1021/projects/alencon-systems/bootloader-v0.3/build/fsl_component_generic_list.o
LIST_GetSize                                      /home/asmir/Desktop/Dropbox/MCU/nxp/RT1021/projects/alencon-systems/bootloader-v0.3/build/fsl_component_generic_list.o
LIST_Init                                         /home/asmir/Desktop/Dropbox/MCU/nxp/RT1021/projects/alencon-systems/bootloader-v0.3/build/fsl_component_generic_list.o
LIST_RemoveElement                                /home/asmir/Desktop/Dropbox/MCU/nxp/RT1021/projects/alencon-systems/bootloader-v0.3/build/fsl_component_generic_list.o
LIST_RemoveHead                                   /home/asmir/Desktop/Dropbox/MCU/nxp/RT1021/projects/alencon-systems/bootloader-v0.3/build/fsl_component_generic_list.o
LPI2C1_DriverIRQHandler                           /home/asmir/Desktop/Dropbox/MCU/nxp/RT1021/projects/alencon-systems/bootloader-v0.3/build/startup_MIMXRT1021.o
LPI2C1_IRQHandler                                 /home/asmir/Desktop/Dropbox/MCU/nxp/RT1021/projects/alencon-systems/bootloader-v0.3/build/startup_MIMXRT1021.o
LPI2C2_DriverIRQHandler                           /home/asmir/Desktop/Dropbox/MCU/nxp/RT1021/projects/alencon-systems/bootloader-v0.3/build/startup_MIMXRT1021.o
LPI2C2_IRQHandler                                 /home/asmir/Desktop/Dropbox/MCU/nxp/RT1021/projects/alencon-systems/bootloader-v0.3/build/startup_MIMXRT1021.o
LPI2C3_DriverIRQHandler                           /home/asmir/Desktop/Dropbox/MCU/nxp/RT1021/projects/alencon-systems/bootloader-v0.3/build/startup_MIMXRT1021.o
LPI2C3_IRQHandler                                 /home/asmir/Desktop/Dropbox/MCU/nxp/RT1021/projects/alencon-systems/bootloader-v0.3/build/startup_MIMXRT1021.o
LPI2C4_DriverIRQHandler                           /home/asmir/Desktop/Dropbox/MCU/nxp/RT1021/projects/alencon-systems/bootloader-v0.3/build/startup_MIMXRT1021.o
LPI2C4_IRQHandler                                 /home/asmir/Desktop/Dropbox/MCU/nxp/RT1021/projects/alencon-systems/bootloader-v0.3/build/startup_MIMXRT1021.o
LPSPI1_DriverIRQHandler                           /home/asmir/Desktop/Dropbox/MCU/nxp/RT1021/projects/alencon-systems/bootloader-v0.3/build/startup_MIMXRT1021.o
LPSPI1_IRQHandler                                 /home/asmir/Desktop/Dropbox/MCU/nxp/RT1021/projects/alencon-systems/bootloader-v0.3/build/startup_MIMXRT1021.o
LPSPI2_DriverIRQHandler                           /home/asmir/Desktop/Dropbox/MCU/nxp/RT1021/projects/alencon-systems/bootloader-v0.3/build/startup_MIMXRT1021.o
LPSPI2_IRQHandler                                 /home/asmir/Desktop/Dropbox/MCU/nxp/RT1021/projects/alencon-systems/bootloader-v0.3/build/startup_MIMXRT1021.o
LPSPI3_DriverIRQHandler                           /home/asmir/Desktop/Dropbox/MCU/nxp/RT1021/projects/alencon-systems/bootloader-v0.3/build/startup_MIMXRT1021.o
LPSPI3_IRQHandler                                 /home/asmir/Desktop/Dropbox/MCU/nxp/RT1021/projects/alencon-systems/bootloader-v0.3/build/startup_MIMXRT1021.o
LPSPI4_DriverIRQHandler                           /home/asmir/Desktop/Dropbox/MCU/nxp/RT1021/projects/alencon-systems/bootloader-v0.3/build/startup_MIMXRT1021.o
LPSPI4_IRQHandler                                 /home/asmir/Desktop/Dropbox/MCU/nxp/RT1021/projects/alencon-systems/bootloader-v0.3/build/startup_MIMXRT1021.o
LPUART1_DriverIRQHandler                          /home/asmir/Desktop/Dropbox/MCU/nxp/RT1021/projects/alencon-systems/bootloader-v0.3/build/startup_MIMXRT1021.o
LPUART1_IRQHandler                                /home/asmir/Desktop/Dropbox/MCU/nxp/RT1021/projects/alencon-systems/bootloader-v0.3/build/hal_uart.o
LPUART2_DriverIRQHandler                          /home/asmir/Desktop/Dropbox/MCU/nxp/RT1021/projects/alencon-systems/bootloader-v0.3/build/startup_MIMXRT1021.o
LPUART2_IRQHandler                                /home/asmir/Desktop/Dropbox/MCU/nxp/RT1021/projects/alencon-systems/bootloader-v0.3/build/hal_uart.o
LPUART3_DriverIRQHandler                          /home/asmir/Desktop/Dropbox/MCU/nxp/RT1021/projects/alencon-systems/bootloader-v0.3/build/startup_MIMXRT1021.o
LPUART3_IRQHandler                                /home/asmir/Desktop/Dropbox/MCU/nxp/RT1021/projects/alencon-systems/bootloader-v0.3/build/startup_MIMXRT1021.o
LPUART4_DriverIRQHandler                          /home/asmir/Desktop/Dropbox/MCU/nxp/RT1021/projects/alencon-systems/bootloader-v0.3/build/startup_MIMXRT1021.o
LPUART4_IRQHandler                                /home/asmir/Desktop/Dropbox/MCU/nxp/RT1021/projects/alencon-systems/bootloader-v0.3/build/startup_MIMXRT1021.o
LPUART5_DriverIRQHandler                          /home/asmir/Desktop/Dropbox/MCU/nxp/RT1021/projects/alencon-systems/bootloader-v0.3/build/startup_MIMXRT1021.o
LPUART5_IRQHandler                                /home/asmir/Desktop/Dropbox/MCU/nxp/RT1021/projects/alencon-systems/bootloader-v0.3/build/startup_MIMXRT1021.o
LPUART6_DriverIRQHandler                          /home/asmir/Desktop/Dropbox/MCU/nxp/RT1021/projects/alencon-systems/bootloader-v0.3/build/startup_MIMXRT1021.o
LPUART6_IRQHandler                                /home/asmir/Desktop/Dropbox/MCU/nxp/RT1021/projects/alencon-systems/bootloader-v0.3/build/startup_MIMXRT1021.o
LPUART7_DriverIRQHandler                          /home/asmir/Desktop/Dropbox/MCU/nxp/RT1021/projects/alencon-systems/bootloader-v0.3/build/startup_MIMXRT1021.o
LPUART7_IRQHandler                                /home/asmir/Desktop/Dropbox/MCU/nxp/RT1021/projects/alencon-systems/bootloader-v0.3/build/startup_MIMXRT1021.o
LPUART8_DriverIRQHandler                          /home/asmir/Desktop/Dropbox/MCU/nxp/RT1021/projects/alencon-systems/bootloader-v0.3/build/startup_MIMXRT1021.o
LPUART8_IRQHandler                                /home/asmir/Desktop/Dropbox/MCU/nxp/RT1021/projects/alencon-systems/bootloader-v0.3/build/startup_MIMXRT1021.o
List_Add                                          /home/asmir/Desktop/Dropbox/MCU/nxp/RT1021/projects/alencon-systems/bootloader-v0.3/build/list.o
List_AddAndLink                                   /home/asmir/Desktop/Dropbox/MCU/nxp/RT1021/projects/alencon-systems/bootloader-v0.3/build/list.o
List_AddIndirect                                  /home/asmir/Desktop/Dropbox/MCU/nxp/RT1021/projects/alencon-systems/bootloader-v0.3/build/list.o
                                                  /home/asmir/Desktop/Dropbox/MCU/nxp/RT1021/projects/alencon-systems/bootloader-v0.3/build/task.o
List_GetFirst                                     /home/asmir/Desktop/Dropbox/MCU/nxp/RT1021/projects/alencon-systems/bootloader-v0.3/build/list.o
                                                  /home/asmir/Desktop/Dropbox/MCU/nxp/RT1021/projects/alencon-systems/bootloader-v0.3/build/task.o
List_GetItem                                      /home/asmir/Desktop/Dropbox/MCU/nxp/RT1021/projects/alencon-systems/bootloader-v0.3/build/list.o
                                                  /home/asmir/Desktop/Dropbox/MCU/nxp/RT1021/projects/alencon-systems/bootloader-v0.3/build/task.o
List_GetLast                                      /home/asmir/Desktop/Dropbox/MCU/nxp/RT1021/projects/alencon-systems/bootloader-v0.3/build/list.o
List_GetNext                                      /home/asmir/Desktop/Dropbox/MCU/nxp/RT1021/projects/alencon-systems/bootloader-v0.3/build/list.o
                                                  /home/asmir/Desktop/Dropbox/MCU/nxp/RT1021/projects/alencon-systems/bootloader-v0.3/build/task.o
List_Init                                         /home/asmir/Desktop/Dropbox/MCU/nxp/RT1021/projects/alencon-systems/bootloader-v0.3/build/list.o
                                                  /home/asmir/Desktop/Dropbox/MCU/nxp/RT1021/projects/alencon-systems/bootloader-v0.3/build/task.o
List_Link                                         /home/asmir/Desktop/Dropbox/MCU/nxp/RT1021/projects/alencon-systems/bootloader-v0.3/build/list.o
                                                  /home/asmir/Desktop/Dropbox/MCU/nxp/RT1021/projects/alencon-systems/bootloader-v0.3/build/task.o
List_LinkItem                                     /home/asmir/Desktop/Dropbox/MCU/nxp/RT1021/projects/alencon-systems/bootloader-v0.3/build/list.o
                                                  /home/asmir/Desktop/Dropbox/MCU/nxp/RT1021/projects/alencon-systems/bootloader-v0.3/build/task.o
List_Remove                                       /home/asmir/Desktop/Dropbox/MCU/nxp/RT1021/projects/alencon-systems/bootloader-v0.3/build/list.o
                                                  /home/asmir/Desktop/Dropbox/MCU/nxp/RT1021/projects/alencon-systems/bootloader-v0.3/build/task.o
List_RemoveAll                                    /home/asmir/Desktop/Dropbox/MCU/nxp/RT1021/projects/alencon-systems/bootloader-v0.3/build/list.o
List_RemoveFirst                                  /home/asmir/Desktop/Dropbox/MCU/nxp/RT1021/projects/alencon-systems/bootloader-v0.3/build/list.o
List_RemoveLast                                   /home/asmir/Desktop/Dropbox/MCU/nxp/RT1021/projects/alencon-systems/bootloader-v0.3/build/list.o
List_ResortFirst                                  /home/asmir/Desktop/Dropbox/MCU/nxp/RT1021/projects/alencon-systems/bootloader-v0.3/build/list.o
List_ResortLast                                   /home/asmir/Desktop/Dropbox/MCU/nxp/RT1021/projects/alencon-systems/bootloader-v0.3/build/list.o
List_RunFunction                                  /home/asmir/Desktop/Dropbox/MCU/nxp/RT1021/projects/alencon-systems/bootloader-v0.3/build/list.o
List_SetIdentifyFunction                          /home/asmir/Desktop/Dropbox/MCU/nxp/RT1021/projects/alencon-systems/bootloader-v0.3/build/list.o
                                                  /home/asmir/Desktop/Dropbox/MCU/nxp/RT1021/projects/alencon-systems/bootloader-v0.3/build/task.o
List_SetSortFunction                              /home/asmir/Desktop/Dropbox/MCU/nxp/RT1021/projects/alencon-systems/bootloader-v0.3/build/list.o
                                                  /home/asmir/Desktop/Dropbox/MCU/nxp/RT1021/projects/alencon-systems/bootloader-v0.3/build/task.o
List_UnlinkFirst                                  /home/asmir/Desktop/Dropbox/MCU/nxp/RT1021/projects/alencon-systems/bootloader-v0.3/build/list.o
                                                  /home/asmir/Desktop/Dropbox/MCU/nxp/RT1021/projects/alencon-systems/bootloader-v0.3/build/task.o
List_UnlinkItem                                   /home/asmir/Desktop/Dropbox/MCU/nxp/RT1021/projects/alencon-systems/bootloader-v0.3/build/list.o
                                                  /home/asmir/Desktop/Dropbox/MCU/nxp/RT1021/projects/alencon-systems/bootloader-v0.3/build/task.o
List_UnlinkLast                                   /home/asmir/Desktop/Dropbox/MCU/nxp/RT1021/projects/alencon-systems/bootloader-v0.3/build/list.o
LogMsg                                            /home/asmir/Desktop/Dropbox/MCU/nxp/RT1021/projects/alencon-systems/bootloader-v0.3/build/subsys.o
                                                  /home/asmir/Desktop/Dropbox/MCU/nxp/RT1021/projects/alencon-systems/bootloader-v0.3/build/AlenconModbusBootloader.o
LogStr                                            /home/asmir/Desktop/Dropbox/MCU/nxp/RT1021/projects/alencon-systems/bootloader-v0.3/build/subsys.o
                                                  /home/asmir/Desktop/Dropbox/MCU/nxp/RT1021/projects/alencon-systems/bootloader-v0.3/build/AlenconModbusBootloader.o
LogVersion                                        /home/asmir/Desktop/Dropbox/MCU/nxp/RT1021/projects/alencon-systems/bootloader-v0.3/build/subsys.o
Log_EchoOff                                       /home/asmir/Desktop/Dropbox/MCU/nxp/RT1021/projects/alencon-systems/bootloader-v0.3/build/subsys.o
Log_EchoOn                                        /home/asmir/Desktop/Dropbox/MCU/nxp/RT1021/projects/alencon-systems/bootloader-v0.3/build/subsys.o
Log_GetEcho                                       /home/asmir/Desktop/Dropbox/MCU/nxp/RT1021/projects/alencon-systems/bootloader-v0.3/build/subsys.o
Log_Header                                        /home/asmir/Desktop/Dropbox/MCU/nxp/RT1021/projects/alencon-systems/bootloader-v0.3/build/subsys.o
MemManage_Handler                                 /home/asmir/Desktop/Dropbox/MCU/nxp/RT1021/projects/alencon-systems/bootloader-v0.3/build/debug.o
ModbusBootloader_Task                             /home/asmir/Desktop/Dropbox/MCU/nxp/RT1021/projects/alencon-systems/bootloader-v0.3/build/AlenconModbusBootloader.o
                                                  /home/asmir/Desktop/Dropbox/MCU/nxp/RT1021/projects/alencon-systems/bootloader-v0.3/build/bootloader.o
Modbus_AddHoldingRegister                         /home/asmir/Desktop/Dropbox/MCU/nxp/RT1021/projects/alencon-systems/bootloader-v0.3/build/AlenconModbus.o
                                                  /home/asmir/Desktop/Dropbox/MCU/nxp/RT1021/projects/alencon-systems/bootloader-v0.3/build/AlenconModbusBootloader.o
Modbus_AddInputSource                             /home/asmir/Desktop/Dropbox/MCU/nxp/RT1021/projects/alencon-systems/bootloader-v0.3/build/AlenconModbus.o
                                                  /home/asmir/Desktop/Dropbox/MCU/nxp/RT1021/projects/alencon-systems/bootloader-v0.3/build/AlenconModbusBootloader.o
Modbus_ChangeSlaveAddress                         /home/asmir/Desktop/Dropbox/MCU/nxp/RT1021/projects/alencon-systems/bootloader-v0.3/build/AlenconModbus.o
                                                  /home/asmir/Desktop/Dropbox/MCU/nxp/RT1021/projects/alencon-systems/bootloader-v0.3/build/AlenconModbusBootloader.o
Modbus_FloatToRegisters                           /home/asmir/Desktop/Dropbox/MCU/nxp/RT1021/projects/alencon-systems/bootloader-v0.3/build/AlenconModbus.o
Modbus_GetSlaveAddress                            /home/asmir/Desktop/Dropbox/MCU/nxp/RT1021/projects/alencon-systems/bootloader-v0.3/build/AlenconModbus.o
                                                  /home/asmir/Desktop/Dropbox/MCU/nxp/RT1021/projects/alencon-systems/bootloader-v0.3/build/AlenconModbusBootloader.o
Modbus_LongToRegisters                            /home/asmir/Desktop/Dropbox/MCU/nxp/RT1021/projects/alencon-systems/bootloader-v0.3/build/AlenconModbus.o
Modbus_RegistersToFloat                           /home/asmir/Desktop/Dropbox/MCU/nxp/RT1021/projects/alencon-systems/bootloader-v0.3/build/AlenconModbus.o
Modbus_Reset                                      /home/asmir/Desktop/Dropbox/MCU/nxp/RT1021/projects/alencon-systems/bootloader-v0.3/build/AlenconModbus.o
Modbus_Routine                                    /home/asmir/Desktop/Dropbox/MCU/nxp/RT1021/projects/alencon-systems/bootloader-v0.3/build/AlenconModbus.o
                                                  /home/asmir/Desktop/Dropbox/MCU/nxp/RT1021/projects/alencon-systems/bootloader-v0.3/build/bootloader.o
Modbus_SetBaudRate                                /home/asmir/Desktop/Dropbox/MCU/nxp/RT1021/projects/alencon-systems/bootloader-v0.3/build/AlenconModbus.o
                                                  /home/asmir/Desktop/Dropbox/MCU/nxp/RT1021/projects/alencon-systems/bootloader-v0.3/build/AlenconModbusBootloader.o
MuteAll                                           /home/asmir/Desktop/Dropbox/MCU/nxp/RT1021/projects/alencon-systems/bootloader-v0.3/build/subsys.o
MuteSys                                           /home/asmir/Desktop/Dropbox/MCU/nxp/RT1021/projects/alencon-systems/bootloader-v0.3/build/subsys.o
NMI_Handler                                       /home/asmir/Desktop/Dropbox/MCU/nxp/RT1021/projects/alencon-systems/bootloader-v0.3/build/debug.o
NVM_Object_EraseAll                               /home/asmir/Desktop/Dropbox/MCU/nxp/RT1021/projects/alencon-systems/bootloader-v0.3/build/nvm_objects.o
NVM_Object_Get                                    /home/asmir/Desktop/Dropbox/MCU/nxp/RT1021/projects/alencon-systems/bootloader-v0.3/build/nvm_objects.o
NVM_Object_Get_AltBank                            /home/asmir/Desktop/Dropbox/MCU/nxp/RT1021/projects/alencon-systems/bootloader-v0.3/build/nvm_objects.o
NVM_Object_Set                                    /home/asmir/Desktop/Dropbox/MCU/nxp/RT1021/projects/alencon-systems/bootloader-v0.3/build/nvm_objects.o
PIT_IRQHandler                                    /home/asmir/Desktop/Dropbox/MCU/nxp/RT1021/projects/alencon-systems/bootloader-v0.3/build/startup_MIMXRT1021.o
PMU_IRQHandler                                    /home/asmir/Desktop/Dropbox/MCU/nxp/RT1021/projects/alencon-systems/bootloader-v0.3/build/startup_MIMXRT1021.o
PWM1_0_IRQHandler                                 /home/asmir/Desktop/Dropbox/MCU/nxp/RT1021/projects/alencon-systems/bootloader-v0.3/build/startup_MIMXRT1021.o
PWM1_1_IRQHandler                                 /home/asmir/Desktop/Dropbox/MCU/nxp/RT1021/projects/alencon-systems/bootloader-v0.3/build/startup_MIMXRT1021.o
PWM1_2_IRQHandler                                 /home/asmir/Desktop/Dropbox/MCU/nxp/RT1021/projects/alencon-systems/bootloader-v0.3/build/startup_MIMXRT1021.o
PWM1_3_IRQHandler                                 /home/asmir/Desktop/Dropbox/MCU/nxp/RT1021/projects/alencon-systems/bootloader-v0.3/build/startup_MIMXRT1021.o
PWM1_FAULT_IRQHandler                             /home/asmir/Desktop/Dropbox/MCU/nxp/RT1021/projects/alencon-systems/bootloader-v0.3/build/startup_MIMXRT1021.o
PWM2_0_IRQHandler                                 /home/asmir/Desktop/Dropbox/MCU/nxp/RT1021/projects/alencon-systems/bootloader-v0.3/build/startup_MIMXRT1021.o
PWM2_1_IRQHandler                                 /home/asmir/Desktop/Dropbox/MCU/nxp/RT1021/projects/alencon-systems/bootloader-v0.3/build/startup_MIMXRT1021.o
PWM2_2_IRQHandler                                 /home/asmir/Desktop/Dropbox/MCU/nxp/RT1021/projects/alencon-systems/bootloader-v0.3/build/startup_MIMXRT1021.o
PWM2_3_IRQHandler                                 /home/asmir/Desktop/Dropbox/MCU/nxp/RT1021/projects/alencon-systems/bootloader-v0.3/build/startup_MIMXRT1021.o
PWM2_FAULT_IRQHandler                             /home/asmir/Desktop/Dropbox/MCU/nxp/RT1021/projects/alencon-systems/bootloader-v0.3/build/startup_MIMXRT1021.o
PendSV_Handler                                    /home/asmir/Desktop/Dropbox/MCU/nxp/RT1021/projects/alencon-systems/bootloader-v0.3/build/startup_MIMXRT1021.o
ProcessMsg                                        /home/asmir/Desktop/Dropbox/MCU/nxp/RT1021/projects/alencon-systems/bootloader-v0.3/build/subsys.o
RS485_Get_Buffer_Size                             /home/asmir/Desktop/Dropbox/MCU/nxp/RT1021/projects/alencon-systems/bootloader-v0.3/build/RS485Serial.o
RS485_ReadByte                                    /home/asmir/Desktop/Dropbox/MCU/nxp/RT1021/projects/alencon-systems/bootloader-v0.3/build/RS485Serial.o
RS485_Rx_Push                                     /home/asmir/Desktop/Dropbox/MCU/nxp/RT1021/projects/alencon-systems/bootloader-v0.3/build/RS485Serial.o
RS485_Serial_Close                                /home/asmir/Desktop/Dropbox/MCU/nxp/RT1021/projects/alencon-systems/bootloader-v0.3/build/RS485Serial.o
                                                  /home/asmir/Desktop/Dropbox/MCU/nxp/RT1021/projects/alencon-systems/bootloader-v0.3/build/DCDC_mbrtu.o
RS485_Serial_Get_Tx_Fifo_length                   /home/asmir/Desktop/Dropbox/MCU/nxp/RT1021/projects/alencon-systems/bootloader-v0.3/build/RS485Serial.o
RS485_Serial_Read                                 /home/asmir/Desktop/Dropbox/MCU/nxp/RT1021/projects/alencon-systems/bootloader-v0.3/build/RS485Serial.o
                                                  /home/asmir/Desktop/Dropbox/MCU/nxp/RT1021/projects/alencon-systems/bootloader-v0.3/build/DCDC_mbrtu.o
RS485_Serial_RegisterTxCompleteCallback           /home/asmir/Desktop/Dropbox/MCU/nxp/RT1021/projects/alencon-systems/bootloader-v0.3/build/RS485Serial.o
                                                  /home/asmir/Desktop/Dropbox/MCU/nxp/RT1021/projects/alencon-systems/bootloader-v0.3/build/DCDC_mbrtu.o
RS485_Serial_Write                                /home/asmir/Desktop/Dropbox/MCU/nxp/RT1021/projects/alencon-systems/bootloader-v0.3/build/RS485Serial.o
                                                  /home/asmir/Desktop/Dropbox/MCU/nxp/RT1021/projects/alencon-systems/bootloader-v0.3/build/DCDC_mbrtu.o
RS485_Serial_init                                 /home/asmir/Desktop/Dropbox/MCU/nxp/RT1021/projects/alencon-systems/bootloader-v0.3/build/RS485Serial.o
                                                  /home/asmir/Desktop/Dropbox/MCU/nxp/RT1021/projects/alencon-systems/bootloader-v0.3/build/DCDC_mbrtu.o
RTWDOG_IRQHandler                                 /home/asmir/Desktop/Dropbox/MCU/nxp/RT1021/projects/alencon-systems/bootloader-v0.3/build/startup_MIMXRT1021.o
ReceiveChar                                       /home/asmir/Desktop/Dropbox/MCU/nxp/RT1021/projects/alencon-systems/bootloader-v0.3/build/subsys.o
Reserved102_IRQHandler                            /home/asmir/Desktop/Dropbox/MCU/nxp/RT1021/projects/alencon-systems/bootloader-v0.3/build/startup_MIMXRT1021.o
Reserved103_IRQHandler                            /home/asmir/Desktop/Dropbox/MCU/nxp/RT1021/projects/alencon-systems/bootloader-v0.3/build/startup_MIMXRT1021.o
Reserved107_IRQHandler                            /home/asmir/Desktop/Dropbox/MCU/nxp/RT1021/projects/alencon-systems/bootloader-v0.3/build/startup_MIMXRT1021.o
Reserved115_IRQHandler                            /home/asmir/Desktop/Dropbox/MCU/nxp/RT1021/projects/alencon-systems/bootloader-v0.3/build/startup_MIMXRT1021.o
Reserved123_IRQHandler                            /home/asmir/Desktop/Dropbox/MCU/nxp/RT1021/projects/alencon-systems/bootloader-v0.3/build/startup_MIMXRT1021.o
Reserved128_IRQHandler                            /home/asmir/Desktop/Dropbox/MCU/nxp/RT1021/projects/alencon-systems/bootloader-v0.3/build/startup_MIMXRT1021.o
Reserved143_IRQHandler                            /home/asmir/Desktop/Dropbox/MCU/nxp/RT1021/projects/alencon-systems/bootloader-v0.3/build/startup_MIMXRT1021.o
Reserved144_IRQHandler                            /home/asmir/Desktop/Dropbox/MCU/nxp/RT1021/projects/alencon-systems/bootloader-v0.3/build/startup_MIMXRT1021.o
Reserved147_IRQHandler                            /home/asmir/Desktop/Dropbox/MCU/nxp/RT1021/projects/alencon-systems/bootloader-v0.3/build/startup_MIMXRT1021.o
Reserved148_IRQHandler                            /home/asmir/Desktop/Dropbox/MCU/nxp/RT1021/projects/alencon-systems/bootloader-v0.3/build/startup_MIMXRT1021.o
Reserved151_IRQHandler                            /home/asmir/Desktop/Dropbox/MCU/nxp/RT1021/projects/alencon-systems/bootloader-v0.3/build/startup_MIMXRT1021.o
Reserved152_IRQHandler                            /home/asmir/Desktop/Dropbox/MCU/nxp/RT1021/projects/alencon-systems/bootloader-v0.3/build/startup_MIMXRT1021.o
Reserved56_IRQHandler                             /home/asmir/Desktop/Dropbox/MCU/nxp/RT1021/projects/alencon-systems/bootloader-v0.3/build/startup_MIMXRT1021.o
Reserved58_IRQHandler                             /home/asmir/Desktop/Dropbox/MCU/nxp/RT1021/projects/alencon-systems/bootloader-v0.3/build/startup_MIMXRT1021.o
Reserved59_IRQHandler                             /home/asmir/Desktop/Dropbox/MCU/nxp/RT1021/projects/alencon-systems/bootloader-v0.3/build/startup_MIMXRT1021.o
Reserved60_IRQHandler                             /home/asmir/Desktop/Dropbox/MCU/nxp/RT1021/projects/alencon-systems/bootloader-v0.3/build/startup_MIMXRT1021.o
Reserved68_IRQHandler                             /home/asmir/Desktop/Dropbox/MCU/nxp/RT1021/projects/alencon-systems/bootloader-v0.3/build/startup_MIMXRT1021.o
Reserved70_IRQHandler                             /home/asmir/Desktop/Dropbox/MCU/nxp/RT1021/projects/alencon-systems/bootloader-v0.3/build/startup_MIMXRT1021.o
Reserved78_IRQHandler                             /home/asmir/Desktop/Dropbox/MCU/nxp/RT1021/projects/alencon-systems/bootloader-v0.3/build/startup_MIMXRT1021.o
Reserved82_IRQHandler                             /home/asmir/Desktop/Dropbox/MCU/nxp/RT1021/projects/alencon-systems/bootloader-v0.3/build/startup_MIMXRT1021.o
Reserved86_IRQHandler                             /home/asmir/Desktop/Dropbox/MCU/nxp/RT1021/projects/alencon-systems/bootloader-v0.3/build/startup_MIMXRT1021.o
Reserved87_IRQHandler                             /home/asmir/Desktop/Dropbox/MCU/nxp/RT1021/projects/alencon-systems/bootloader-v0.3/build/startup_MIMXRT1021.o
Reset_Handler                                     /home/asmir/Desktop/Dropbox/MCU/nxp/RT1021/projects/alencon-systems/bootloader-v0.3/build/startup_MIMXRT1021.o
SAI1_DriverIRQHandler                             /home/asmir/Desktop/Dropbox/MCU/nxp/RT1021/projects/alencon-systems/bootloader-v0.3/build/startup_MIMXRT1021.o
SAI1_IRQHandler                                   /home/asmir/Desktop/Dropbox/MCU/nxp/RT1021/projects/alencon-systems/bootloader-v0.3/build/startup_MIMXRT1021.o
SAI2_DriverIRQHandler                             /home/asmir/Desktop/Dropbox/MCU/nxp/RT1021/projects/alencon-systems/bootloader-v0.3/build/startup_MIMXRT1021.o
SAI2_IRQHandler                                   /home/asmir/Desktop/Dropbox/MCU/nxp/RT1021/projects/alencon-systems/bootloader-v0.3/build/startup_MIMXRT1021.o
SAI3_RX_DriverIRQHandler                          /home/asmir/Desktop/Dropbox/MCU/nxp/RT1021/projects/alencon-systems/bootloader-v0.3/build/startup_MIMXRT1021.o
SAI3_RX_IRQHandler                                /home/asmir/Desktop/Dropbox/MCU/nxp/RT1021/projects/alencon-systems/bootloader-v0.3/build/startup_MIMXRT1021.o
SAI3_TX_DriverIRQHandler                          /home/asmir/Desktop/Dropbox/MCU/nxp/RT1021/projects/alencon-systems/bootloader-v0.3/build/startup_MIMXRT1021.o
SAI3_TX_IRQHandler                                /home/asmir/Desktop/Dropbox/MCU/nxp/RT1021/projects/alencon-systems/bootloader-v0.3/build/startup_MIMXRT1021.o
SDK_DelayAtLeastUs                                /home/asmir/Desktop/Dropbox/MCU/nxp/RT1021/projects/alencon-systems/bootloader-v0.3/build/fsl_common_arm.o
SDK_Free                                          /home/asmir/Desktop/Dropbox/MCU/nxp/RT1021/projects/alencon-systems/bootloader-v0.3/build/fsl_common.o
SDK_Malloc                                        /home/asmir/Desktop/Dropbox/MCU/nxp/RT1021/projects/alencon-systems/bootloader-v0.3/build/fsl_common.o
SEMC_IRQHandler                                   /home/asmir/Desktop/Dropbox/MCU/nxp/RT1021/projects/alencon-systems/bootloader-v0.3/build/startup_MIMXRT1021.o
SNVS_HP_WRAPPER_IRQHandler                        /home/asmir/Desktop/Dropbox/MCU/nxp/RT1021/projects/alencon-systems/bootloader-v0.3/build/startup_MIMXRT1021.o
SNVS_HP_WRAPPER_TZ_IRQHandler                     /home/asmir/Desktop/Dropbox/MCU/nxp/RT1021/projects/alencon-systems/bootloader-v0.3/build/startup_MIMXRT1021.o
SNVS_LP_HP_WRAPPER_IRQHandler                     /home/asmir/Desktop/Dropbox/MCU/nxp/RT1021/projects/alencon-systems/bootloader-v0.3/build/startup_MIMXRT1021.o
SPDIF_DriverIRQHandler                            /home/asmir/Desktop/Dropbox/MCU/nxp/RT1021/projects/alencon-systems/bootloader-v0.3/build/startup_MIMXRT1021.o
SPDIF_IRQHandler                                  /home/asmir/Desktop/Dropbox/MCU/nxp/RT1021/projects/alencon-systems/bootloader-v0.3/build/startup_MIMXRT1021.o
SRC_IRQHandler                                    /home/asmir/Desktop/Dropbox/MCU/nxp/RT1021/projects/alencon-systems/bootloader-v0.3/build/startup_MIMXRT1021.o
SVC_Handler                                       /home/asmir/Desktop/Dropbox/MCU/nxp/RT1021/projects/alencon-systems/bootloader-v0.3/build/startup_MIMXRT1021.o
Subsystem_Init                                    /home/asmir/Desktop/Dropbox/MCU/nxp/RT1021/projects/alencon-systems/bootloader-v0.3/build/subsys.o
                                                  /home/asmir/Desktop/Dropbox/MCU/nxp/RT1021/projects/alencon-systems/bootloader-v0.3/build/AlenconModbusBootloader.o
Subsystem_RegisterCallback                        /home/asmir/Desktop/Dropbox/MCU/nxp/RT1021/projects/alencon-systems/bootloader-v0.3/build/subsys.o
Subsystem_SystemDisable                           /home/asmir/Desktop/Dropbox/MCU/nxp/RT1021/projects/alencon-systems/bootloader-v0.3/build/subsys.o
Subsystem_SystemEnable                            /home/asmir/Desktop/Dropbox/MCU/nxp/RT1021/projects/alencon-systems/bootloader-v0.3/build/subsys.o
SysTick_Handler                                   /home/asmir/Desktop/Dropbox/MCU/nxp/RT1021/projects/alencon-systems/bootloader-v0.3/build/timing.o
SystemCoreClock                                   /home/asmir/Desktop/Dropbox/MCU/nxp/RT1021/projects/alencon-systems/bootloader-v0.3/build/system_MIMXRT1021.o
                                                  /home/asmir/Desktop/Dropbox/MCU/nxp/RT1021/projects/alencon-systems/bootloader-v0.3/build/clock_config.o
SystemCoreClockUpdate                             /home/asmir/Desktop/Dropbox/MCU/nxp/RT1021/projects/alencon-systems/bootloader-v0.3/build/system_MIMXRT1021.o
SystemInit                                        /home/asmir/Desktop/Dropbox/MCU/nxp/RT1021/projects/alencon-systems/bootloader-v0.3/build/system_MIMXRT1021.o
                                                  /home/asmir/Desktop/Dropbox/MCU/nxp/RT1021/projects/alencon-systems/bootloader-v0.3/build/startup_MIMXRT1021.o
SystemInitHook                                    /home/asmir/Desktop/Dropbox/MCU/nxp/RT1021/projects/alencon-systems/bootloader-v0.3/build/system_MIMXRT1021.o
SystemTick                                        /home/asmir/Desktop/Dropbox/MCU/nxp/RT1021/projects/alencon-systems/bootloader-v0.3/build/task.o
TEMP_LOW_HIGH_IRQHandler                          /home/asmir/Desktop/Dropbox/MCU/nxp/RT1021/projects/alencon-systems/bootloader-v0.3/build/startup_MIMXRT1021.o
TEMP_PANIC_IRQHandler                             /home/asmir/Desktop/Dropbox/MCU/nxp/RT1021/projects/alencon-systems/bootloader-v0.3/build/startup_MIMXRT1021.o
TMR1_IRQHandler                                   /home/asmir/Desktop/Dropbox/MCU/nxp/RT1021/projects/alencon-systems/bootloader-v0.3/build/startup_MIMXRT1021.o
TMR2_IRQHandler                                   /home/asmir/Desktop/Dropbox/MCU/nxp/RT1021/projects/alencon-systems/bootloader-v0.3/build/startup_MIMXRT1021.o
TRNG_IRQHandler                                   /home/asmir/Desktop/Dropbox/MCU/nxp/RT1021/projects/alencon-systems/bootloader-v0.3/build/startup_MIMXRT1021.o
Task_ChangePeriod                                 /home/asmir/Desktop/Dropbox/MCU/nxp/RT1021/projects/alencon-systems/bootloader-v0.3/build/task.o
Task_Init                                         /home/asmir/Desktop/Dropbox/MCU/nxp/RT1021/projects/alencon-systems/bootloader-v0.3/build/task.o
                                                  /home/asmir/Desktop/Dropbox/MCU/nxp/RT1021/projects/alencon-systems/bootloader-v0.3/build/uart.o
Task_IsScheduled                                  /home/asmir/Desktop/Dropbox/MCU/nxp/RT1021/projects/alencon-systems/bootloader-v0.3/build/task.o
Task_Queue                                        /home/asmir/Desktop/Dropbox/MCU/nxp/RT1021/projects/alencon-systems/bootloader-v0.3/build/task.o
Task_Remove                                       /home/asmir/Desktop/Dropbox/MCU/nxp/RT1021/projects/alencon-systems/bootloader-v0.3/build/task.o
Task_Schedule                                     /home/asmir/Desktop/Dropbox/MCU/nxp/RT1021/projects/alencon-systems/bootloader-v0.3/build/task.o
                                                  /home/asmir/Desktop/Dropbox/MCU/nxp/RT1021/projects/alencon-systems/bootloader-v0.3/build/uart.o
Task_SetIdleTask                                  /home/asmir/Desktop/Dropbox/MCU/nxp/RT1021/projects/alencon-systems/bootloader-v0.3/build/task.o
TimeNow                                           /home/asmir/Desktop/Dropbox/MCU/nxp/RT1021/projects/alencon-systems/bootloader-v0.3/build/timing.o
                                                  /home/asmir/Desktop/Dropbox/MCU/nxp/RT1021/projects/alencon-systems/bootloader-v0.3/build/AlenconModbusBootloader.o
                                                  /home/asmir/Desktop/Dropbox/MCU/nxp/RT1021/projects/alencon-systems/bootloader-v0.3/build/bootloader.o
                                                  /home/asmir/Desktop/Dropbox/MCU/nxp/RT1021/projects/alencon-systems/bootloader-v0.3/build/subsys.o
                                                  /home/asmir/Desktop/Dropbox/MCU/nxp/RT1021/projects/alencon-systems/bootloader-v0.3/build/task.o
TimeNowUngated                                    /home/asmir/Desktop/Dropbox/MCU/nxp/RT1021/projects/alencon-systems/bootloader-v0.3/build/timing.o
                                                  /home/asmir/Desktop/Dropbox/MCU/nxp/RT1021/projects/alencon-systems/bootloader-v0.3/build/mbporttimer.o
TimeNowUs                                         /home/asmir/Desktop/Dropbox/MCU/nxp/RT1021/projects/alencon-systems/bootloader-v0.3/build/timing.o
TimeSince                                         /home/asmir/Desktop/Dropbox/MCU/nxp/RT1021/projects/alencon-systems/bootloader-v0.3/build/timing.o
                                                  /home/asmir/Desktop/Dropbox/MCU/nxp/RT1021/projects/alencon-systems/bootloader-v0.3/build/AlenconModbusBootloader.o
                                                  /home/asmir/Desktop/Dropbox/MCU/nxp/RT1021/projects/alencon-systems/bootloader-v0.3/build/mb.o
                                                  /home/asmir/Desktop/Dropbox/MCU/nxp/RT1021/projects/alencon-systems/bootloader-v0.3/build/bootloader.o
                                                  /home/asmir/Desktop/Dropbox/MCU/nxp/RT1021/projects/alencon-systems/bootloader-v0.3/build/task.o
TimeSinceUs                                       /home/asmir/Desktop/Dropbox/MCU/nxp/RT1021/projects/alencon-systems/bootloader-v0.3/build/timing.o
TimingISR                                         /home/asmir/Desktop/Dropbox/MCU/nxp/RT1021/projects/alencon-systems/bootloader-v0.3/build/timing.o
Timing_DisableTimer                               /home/asmir/Desktop/Dropbox/MCU/nxp/RT1021/projects/alencon-systems/bootloader-v0.3/build/timing.o
Timing_EnableTimer                                /home/asmir/Desktop/Dropbox/MCU/nxp/RT1021/projects/alencon-systems/bootloader-v0.3/build/timing.o
Timing_Init                                       /home/asmir/Desktop/Dropbox/MCU/nxp/RT1021/projects/alencon-systems/bootloader-v0.3/build/timing.o
                                                  /home/asmir/Desktop/Dropbox/MCU/nxp/RT1021/projects/alencon-systems/bootloader-v0.3/build/bootloader.o
                                                  /home/asmir/Desktop/Dropbox/MCU/nxp/RT1021/projects/alencon-systems/bootloader-v0.3/build/task.o
Timing_IsEnabled                                  /home/asmir/Desktop/Dropbox/MCU/nxp/RT1021/projects/alencon-systems/bootloader-v0.3/build/timing.o
Timing_Roll                                       /home/asmir/Desktop/Dropbox/MCU/nxp/RT1021/projects/alencon-systems/bootloader-v0.3/build/timing.o
                                                  /home/asmir/Desktop/Dropbox/MCU/nxp/RT1021/projects/alencon-systems/bootloader-v0.3/build/task.o
UART_Error_Handler                                /home/asmir/Desktop/Dropbox/MCU/nxp/RT1021/projects/alencon-systems/bootloader-v0.3/build/uart.o
UART_GetInstance                                  /home/asmir/Desktop/Dropbox/MCU/nxp/RT1021/projects/alencon-systems/bootloader-v0.3/build/hal_uart.o
UART_Init                                         /home/asmir/Desktop/Dropbox/MCU/nxp/RT1021/projects/alencon-systems/bootloader-v0.3/build/uart.o
                                                  /home/asmir/Desktop/Dropbox/MCU/nxp/RT1021/projects/alencon-systems/bootloader-v0.3/build/RS485Serial.o
                                                  /home/asmir/Desktop/Dropbox/MCU/nxp/RT1021/projects/alencon-systems/bootloader-v0.3/build/bootloader.o
UART_IsTransmitting                               /home/asmir/Desktop/Dropbox/MCU/nxp/RT1021/projects/alencon-systems/bootloader-v0.3/build/uart.o
UART_ReconfigureBaud                              /home/asmir/Desktop/Dropbox/MCU/nxp/RT1021/projects/alencon-systems/bootloader-v0.3/build/uart.o
UART_RegisterErrorCallback                        /home/asmir/Desktop/Dropbox/MCU/nxp/RT1021/projects/alencon-systems/bootloader-v0.3/build/uart.o
UART_RegisterReceiver                             /home/asmir/Desktop/Dropbox/MCU/nxp/RT1021/projects/alencon-systems/bootloader-v0.3/build/uart.o
                                                  /home/asmir/Desktop/Dropbox/MCU/nxp/RT1021/projects/alencon-systems/bootloader-v0.3/build/RS485Serial.o
                                                  /home/asmir/Desktop/Dropbox/MCU/nxp/RT1021/projects/alencon-systems/bootloader-v0.3/build/subsys.o
UART_RegisterRxOverwriteCallback                  /home/asmir/Desktop/Dropbox/MCU/nxp/RT1021/projects/alencon-systems/bootloader-v0.3/build/uart.o
UART_RegisterTxOverwriteCallback                  /home/asmir/Desktop/Dropbox/MCU/nxp/RT1021/projects/alencon-systems/bootloader-v0.3/build/uart.o
UART_Rx_Handler                                   /home/asmir/Desktop/Dropbox/MCU/nxp/RT1021/projects/alencon-systems/bootloader-v0.3/build/uart.o
                                                  /home/asmir/Desktop/Dropbox/MCU/nxp/RT1021/projects/alencon-systems/bootloader-v0.3/build/hal_uart.o
UART_Tick                                         /home/asmir/Desktop/Dropbox/MCU/nxp/RT1021/projects/alencon-systems/bootloader-v0.3/build/uart.o
                                                  /home/asmir/Desktop/Dropbox/MCU/nxp/RT1021/projects/alencon-systems/bootloader-v0.3/build/bootloader.o
UART_Tx_Handler                                   /home/asmir/Desktop/Dropbox/MCU/nxp/RT1021/projects/alencon-systems/bootloader-v0.3/build/uart.o
                                                  /home/asmir/Desktop/Dropbox/MCU/nxp/RT1021/projects/alencon-systems/bootloader-v0.3/build/hal_uart.o
UART_UnregisterReceiver                           /home/asmir/Desktop/Dropbox/MCU/nxp/RT1021/projects/alencon-systems/bootloader-v0.3/build/uart.o
                                                  /home/asmir/Desktop/Dropbox/MCU/nxp/RT1021/projects/alencon-systems/bootloader-v0.3/build/subsys.o
UART_Write                                        /home/asmir/Desktop/Dropbox/MCU/nxp/RT1021/projects/alencon-systems/bootloader-v0.3/build/uart.o
UART_WriteByte                                    /home/asmir/Desktop/Dropbox/MCU/nxp/RT1021/projects/alencon-systems/bootloader-v0.3/build/uart.o
                                                  /home/asmir/Desktop/Dropbox/MCU/nxp/RT1021/projects/alencon-systems/bootloader-v0.3/build/RS485Serial.o
                                                  /home/asmir/Desktop/Dropbox/MCU/nxp/RT1021/projects/alencon-systems/bootloader-v0.3/build/subsys.o
UART_printf                                       /home/asmir/Desktop/Dropbox/MCU/nxp/RT1021/projects/alencon-systems/bootloader-v0.3/build/uart.o
                                                  /home/asmir/Desktop/Dropbox/MCU/nxp/RT1021/projects/alencon-systems/bootloader-v0.3/build/subsys.o
UART_vprintf                                      /home/asmir/Desktop/Dropbox/MCU/nxp/RT1021/projects/alencon-systems/bootloader-v0.3/build/uart.o
                                                  /home/asmir/Desktop/Dropbox/MCU/nxp/RT1021/projects/alencon-systems/bootloader-v0.3/build/subsys.o
USB_OTG1_IRQHandler                               /home/asmir/Desktop/Dropbox/MCU/nxp/RT1021/projects/alencon-systems/bootloader-v0.3/build/startup_MIMXRT1021.o
USB_PHY_IRQHandler                                /home/asmir/Desktop/Dropbox/MCU/nxp/RT1021/projects/alencon-systems/bootloader-v0.3/build/startup_MIMXRT1021.o
USDHC1_DriverIRQHandler                           /home/asmir/Desktop/Dropbox/MCU/nxp/RT1021/projects/alencon-systems/bootloader-v0.3/build/startup_MIMXRT1021.o
USDHC1_IRQHandler                                 /home/asmir/Desktop/Dropbox/MCU/nxp/RT1021/projects/alencon-systems/bootloader-v0.3/build/startup_MIMXRT1021.o
USDHC2_DriverIRQHandler                           /home/asmir/Desktop/Dropbox/MCU/nxp/RT1021/projects/alencon-systems/bootloader-v0.3/build/startup_MIMXRT1021.o
USDHC2_IRQHandler                                 /home/asmir/Desktop/Dropbox/MCU/nxp/RT1021/projects/alencon-systems/bootloader-v0.3/build/startup_MIMXRT1021.o
UnmuteAll                                         /home/asmir/Desktop/Dropbox/MCU/nxp/RT1021/projects/alencon-systems/bootloader-v0.3/build/subsys.o
UnmuteSys                                         /home/asmir/Desktop/Dropbox/MCU/nxp/RT1021/projects/alencon-systems/bootloader-v0.3/build/subsys.o
UsageFault_Handler                                /home/asmir/Desktop/Dropbox/MCU/nxp/RT1021/projects/alencon-systems/bootloader-v0.3/build/debug.o
WDOG1_IRQHandler                                  /home/asmir/Desktop/Dropbox/MCU/nxp/RT1021/projects/alencon-systems/bootloader-v0.3/build/startup_MIMXRT1021.o
WDOG2_IRQHandler                                  /home/asmir/Desktop/Dropbox/MCU/nxp/RT1021/projects/alencon-systems/bootloader-v0.3/build/startup_MIMXRT1021.o
WaitMs                                            /home/asmir/Desktop/Dropbox/MCU/nxp/RT1021/projects/alencon-systems/bootloader-v0.3/build/task.o
XBAR1_IRQ_0_1_IRQHandler                          /home/asmir/Desktop/Dropbox/MCU/nxp/RT1021/projects/alencon-systems/bootloader-v0.3/build/startup_MIMXRT1021.o
XBAR1_IRQ_2_3_IRQHandler                          /home/asmir/Desktop/Dropbox/MCU/nxp/RT1021/projects/alencon-systems/bootloader-v0.3/build/startup_MIMXRT1021.o
_PathLocale                                       /home/asmir/Desktop/Dropbox/MCU/gcc/gcc-arm-none-eabi-7-2018-q2-update/bin/../lib/gcc/arm-none-eabi/7.3.1/../../../../arm-none-eabi/lib/thumb/v7e-m/fpv4-sp/hard/libc.a(lib_a-locale.o)
__HeapLimit                                       /home/asmir/Desktop/Dropbox/MCU/nxp/RT1021/projects/alencon-systems/bootloader-v0.3/build/fsl_sbrk.o
__NCACHE_REGION_SIZE                              /home/asmir/Desktop/Dropbox/MCU/nxp/RT1021/projects/alencon-systems/bootloader-v0.3/build/board.o
                                                  /home/asmir/Desktop/Dropbox/MCU/nxp/RT1021/projects/alencon-systems/bootloader-v0.3/build/systemclk.o
__NCACHE_REGION_START                             /home/asmir/Desktop/Dropbox/MCU/nxp/RT1021/projects/alencon-systems/bootloader-v0.3/build/board.o
                                                  /home/asmir/Desktop/Dropbox/MCU/nxp/RT1021/projects/alencon-systems/bootloader-v0.3/build/systemclk.o
__StackTop                                        /home/asmir/Desktop/Dropbox/MCU/nxp/RT1021/projects/alencon-systems/bootloader-v0.3/build/startup_MIMXRT1021.o
__Vectors                                         /home/asmir/Desktop/Dropbox/MCU/nxp/RT1021/projects/alencon-systems/bootloader-v0.3/build/fsl_flexspi_nor_boot.o
__aeabi_idiv0                                     /home/asmir/Desktop/Dropbox/MCU/gcc/gcc-arm-none-eabi-7-2018-q2-update/bin/../lib/gcc/arm-none-eabi/7.3.1/thumb/v7e-m/fpv4-sp/hard/libgcc.a(_dvmd_tls.o)
__aeabi_ldiv0                                     /home/asmir/Desktop/Dropbox/MCU/gcc/gcc-arm-none-eabi-7-2018-q2-update/bin/../lib/gcc/arm-none-eabi/7.3.1/thumb/v7e-m/fpv4-sp/hard/libgcc.a(_dvmd_tls.o)
                                                  /home/asmir/Desktop/Dropbox/MCU/gcc/gcc-arm-none-eabi-7-2018-q2-update/bin/../lib/gcc/arm-none-eabi/7.3.1/thumb/v7e-m/fpv4-sp/hard/libgcc.a(_aeabi_uldivmod.o)
                                                  /home/asmir/Desktop/Dropbox/MCU/gcc/gcc-arm-none-eabi-7-2018-q2-update/bin/../lib/gcc/arm-none-eabi/7.3.1/thumb/v7e-m/fpv4-sp/hard/libgcc.a(_aeabi_ldivmod.o)
__aeabi_ldivmod                                   /home/asmir/Desktop/Dropbox/MCU/gcc/gcc-arm-none-eabi-7-2018-q2-update/bin/../lib/gcc/arm-none-eabi/7.3.1/thumb/v7e-m/fpv4-sp/hard/libgcc.a(_aeabi_ldivmod.o)
                                                  /home/asmir/Desktop/Dropbox/MCU/nxp/RT1021/projects/alencon-systems/bootloader-v0.3/build/system_MIMXRT1021.o
__aeabi_uldivmod                                  /home/asmir/Desktop/Dropbox/MCU/gcc/gcc-arm-none-eabi-7-2018-q2-update/bin/../lib/gcc/arm-none-eabi/7.3.1/thumb/v7e-m/fpv4-sp/hard/libgcc.a(_aeabi_uldivmod.o)
                                                  /home/asmir/Desktop/Dropbox/MCU/nxp/RT1021/projects/alencon-systems/bootloader-v0.3/build/system_MIMXRT1021.o
                                                  /home/asmir/Desktop/Dropbox/MCU/nxp/RT1021/projects/alencon-systems/bootloader-v0.3/build/fsl_common_arm.o
__ascii_mbtowc                                    /home/asmir/Desktop/Dropbox/MCU/gcc/gcc-arm-none-eabi-7-2018-q2-update/bin/../lib/gcc/arm-none-eabi/7.3.1/../../../../arm-none-eabi/lib/thumb/v7e-m/fpv4-sp/hard/libc.a(lib_a-mbtowc_r.o)
                                                  /home/asmir/Desktop/Dropbox/MCU/gcc/gcc-arm-none-eabi-7-2018-q2-update/bin/../lib/gcc/arm-none-eabi/7.3.1/../../../../arm-none-eabi/lib/thumb/v7e-m/fpv4-sp/hard/libc.a(lib_a-locale.o)
__ascii_wctomb                                    /home/asmir/Desktop/Dropbox/MCU/gcc/gcc-arm-none-eabi-7-2018-q2-update/bin/../lib/gcc/arm-none-eabi/7.3.1/../../../../arm-none-eabi/lib/thumb/v7e-m/fpv4-sp/hard/libc.a(lib_a-wctomb_r.o)
                                                  /home/asmir/Desktop/Dropbox/MCU/gcc/gcc-arm-none-eabi-7-2018-q2-update/bin/../lib/gcc/arm-none-eabi/7.3.1/../../../../arm-none-eabi/lib/thumb/v7e-m/fpv4-sp/hard/libc.a(lib_a-locale.o)
__assert_func                                     /home/asmir/Desktop/Dropbox/MCU/nxp/RT1021/projects/alencon-systems/bootloader-v0.3/build/fsl_assert.o
                                                  /home/asmir/Desktop/Dropbox/MCU/nxp/RT1021/projects/alencon-systems/bootloader-v0.3/build/DCDC_mbrtu.o
                                                  /home/asmir/Desktop/Dropbox/MCU/nxp/RT1021/projects/alencon-systems/bootloader-v0.3/build/mbutils.o
                                                  /home/asmir/Desktop/Dropbox/MCU/nxp/RT1021/projects/alencon-systems/bootloader-v0.3/build/hal_uart.o
                                                  /home/asmir/Desktop/Dropbox/MCU/nxp/RT1021/projects/alencon-systems/bootloader-v0.3/build/fsl_flexspi.o
                                                  /home/asmir/Desktop/Dropbox/MCU/nxp/RT1021/projects/alencon-systems/bootloader-v0.3/build/fsl_common_arm.o
                                                  /home/asmir/Desktop/Dropbox/MCU/nxp/RT1021/projects/alencon-systems/bootloader-v0.3/build/clock_config.o
                                                  /home/asmir/Desktop/Dropbox/MCU/nxp/RT1021/projects/alencon-systems/bootloader-v0.3/build/fsl_gpio.o
                                                  /home/asmir/Desktop/Dropbox/MCU/nxp/RT1021/projects/alencon-systems/bootloader-v0.3/build/fsl_clock.o
                                                  /home/asmir/Desktop/Dropbox/MCU/nxp/RT1021/projects/alencon-systems/bootloader-v0.3/build/board.o
                                                  /home/asmir/Desktop/Dropbox/MCU/nxp/RT1021/projects/alencon-systems/bootloader-v0.3/build/systemclk.o
__atexit_recursive_mutex                          /home/asmir/Desktop/Dropbox/MCU/gcc/gcc-arm-none-eabi-7-2018-q2-update/bin/../lib/gcc/arm-none-eabi/7.3.1/../../../../arm-none-eabi/lib/thumb/v7e-m/fpv4-sp/hard/libc.a(lib_a-__call_atexit.o)
                                                  /home/asmir/Desktop/Dropbox/MCU/gcc/gcc-arm-none-eabi-7-2018-q2-update/bin/../lib/gcc/arm-none-eabi/7.3.1/../../../../arm-none-eabi/lib/thumb/v7e-m/fpv4-sp/hard/libc.a(lib_a-__atexit.o)
__bss_end__                                       /home/asmir/Desktop/Dropbox/MCU/nxp/RT1021/projects/alencon-systems/bootloader-v0.3/build/startup_MIMXRT1021.o
                                                  /home/asmir/Desktop/Dropbox/MCU/gcc/gcc-arm-none-eabi-7-2018-q2-update/bin/../lib/gcc/arm-none-eabi/7.3.1/../../../../arm-none-eabi/lib/thumb/v7e-m/fpv4-sp/hard/crt0.o
__bss_start__                                     /home/asmir/Desktop/Dropbox/MCU/nxp/RT1021/projects/alencon-systems/bootloader-v0.3/build/startup_MIMXRT1021.o
                                                  /home/asmir/Desktop/Dropbox/MCU/gcc/gcc-arm-none-eabi-7-2018-q2-update/bin/../lib/gcc/arm-none-eabi/7.3.1/../../../../arm-none-eabi/lib/thumb/v7e-m/fpv4-sp/hard/crt0.o
__call_exitprocs                                  /home/asmir/Desktop/Dropbox/MCU/gcc/gcc-arm-none-eabi-7-2018-q2-update/bin/../lib/gcc/arm-none-eabi/7.3.1/../../../../arm-none-eabi/lib/thumb/v7e-m/fpv4-sp/hard/libc.a(lib_a-__call_atexit.o)
                                                  /home/asmir/Desktop/Dropbox/MCU/gcc/gcc-arm-none-eabi-7-2018-q2-update/bin/../lib/gcc/arm-none-eabi/7.3.1/../../../../arm-none-eabi/lib/thumb/v7e-m/fpv4-sp/hard/libc.a(lib_a-exit.o)
__data_end__                                      /home/asmir/Desktop/Dropbox/MCU/nxp/RT1021/projects/alencon-systems/bootloader-v0.3/build/startup_MIMXRT1021.o
__data_start__                                    /home/asmir/Desktop/Dropbox/MCU/nxp/RT1021/projects/alencon-systems/bootloader-v0.3/build/startup_MIMXRT1021.o
__deregister_frame_info                           /home/asmir/Desktop/Dropbox/MCU/gcc/gcc-arm-none-eabi-7-2018-q2-update/bin/../lib/gcc/arm-none-eabi/7.3.1/thumb/v7e-m/fpv4-sp/hard/crtbegin.o
__dso_handle                                      /home/asmir/Desktop/Dropbox/MCU/gcc/gcc-arm-none-eabi-7-2018-q2-update/bin/../lib/gcc/arm-none-eabi/7.3.1/thumb/v7e-m/fpv4-sp/hard/crtbegin.o
__errno                                           /home/asmir/Desktop/Dropbox/MCU/gcc/gcc-arm-none-eabi-7-2018-q2-update/bin/../lib/gcc/arm-none-eabi/7.3.1/../../../../arm-none-eabi/lib/thumb/v7e-m/fpv4-sp/hard/libc.a(lib_a-errno.o)
                                                  /home/asmir/Desktop/Dropbox/MCU/nxp/RT1021/projects/alencon-systems/bootloader-v0.3/build/fsl_sbrk.o
__etext                                           /home/asmir/Desktop/Dropbox/MCU/nxp/RT1021/projects/alencon-systems/bootloader-v0.3/build/startup_MIMXRT1021.o
__fini_array_end                                  /home/asmir/Desktop/Dropbox/MCU/gcc/gcc-arm-none-eabi-7-2018-q2-update/bin/../lib/gcc/arm-none-eabi/7.3.1/../../../../arm-none-eabi/lib/thumb/v7e-m/fpv4-sp/hard/libc.a(lib_a-fini.o)
__fini_array_start                                /home/asmir/Desktop/Dropbox/MCU/gcc/gcc-arm-none-eabi-7-2018-q2-update/bin/../lib/gcc/arm-none-eabi/7.3.1/../../../../arm-none-eabi/lib/thumb/v7e-m/fpv4-sp/hard/libc.a(lib_a-fini.o)
__flexspi_end__                                   /home/asmir/Desktop/Dropbox/MCU/nxp/RT1021/projects/alencon-systems/bootloader-v0.3/build/startup_MIMXRT1021.o
__flexspi_start__                                 /home/asmir/Desktop/Dropbox/MCU/nxp/RT1021/projects/alencon-systems/bootloader-v0.3/build/startup_MIMXRT1021.o
__global_locale                                   /home/asmir/Desktop/Dropbox/MCU/gcc/gcc-arm-none-eabi-7-2018-q2-update/bin/../lib/gcc/arm-none-eabi/7.3.1/../../../../arm-none-eabi/lib/thumb/v7e-m/fpv4-sp/hard/libc.a(lib_a-locale.o)
                                                  /home/asmir/Desktop/Dropbox/MCU/gcc/gcc-arm-none-eabi-7-2018-q2-update/bin/../lib/gcc/arm-none-eabi/7.3.1/../../../../arm-none-eabi/lib/thumb/v7e-m/fpv4-sp/hard/libc.a(lib_a-wctomb_r.o)
                                                  /home/asmir/Desktop/Dropbox/MCU/gcc/gcc-arm-none-eabi-7-2018-q2-update/bin/../lib/gcc/arm-none-eabi/7.3.1/../../../../arm-none-eabi/lib/thumb/v7e-m/fpv4-sp/hard/libc.a(lib_a-mbtowc_r.o)
__init_array_end                                  /home/asmir/Desktop/Dropbox/MCU/gcc/gcc-arm-none-eabi-7-2018-q2-update/bin/../lib/gcc/arm-none-eabi/7.3.1/../../../../arm-none-eabi/lib/thumb/v7e-m/fpv4-sp/hard/libc.a(lib_a-init.o)
__init_array_start                                /home/asmir/Desktop/Dropbox/MCU/gcc/gcc-arm-none-eabi-7-2018-q2-update/bin/../lib/gcc/arm-none-eabi/7.3.1/../../../../arm-none-eabi/lib/thumb/v7e-m/fpv4-sp/hard/libc.a(lib_a-init.o)
__isr_vector                                      /home/asmir/Desktop/Dropbox/MCU/nxp/RT1021/projects/alencon-systems/bootloader-v0.3/build/startup_MIMXRT1021.o
__libc_fini                                       /home/asmir/Desktop/Dropbox/MCU/gcc/gcc-arm-none-eabi-7-2018-q2-update/bin/../lib/gcc/arm-none-eabi/7.3.1/../../../../arm-none-eabi/lib/thumb/v7e-m/fpv4-sp/hard/libc.a(lib_a-__call_atexit.o)
__libc_fini_array                                 /home/asmir/Desktop/Dropbox/MCU/gcc/gcc-arm-none-eabi-7-2018-q2-update/bin/../lib/gcc/arm-none-eabi/7.3.1/../../../../arm-none-eabi/lib/thumb/v7e-m/fpv4-sp/hard/libc.a(lib_a-fini.o)
                                                  /home/asmir/Desktop/Dropbox/MCU/gcc/gcc-arm-none-eabi-7-2018-q2-update/bin/../lib/gcc/arm-none-eabi/7.3.1/../../../../arm-none-eabi/lib/thumb/v7e-m/fpv4-sp/hard/libc.a(lib_a-__call_atexit.o)
                                                  /home/asmir/Desktop/Dropbox/MCU/gcc/gcc-arm-none-eabi-7-2018-q2-update/bin/../lib/gcc/arm-none-eabi/7.3.1/../../../../arm-none-eabi/lib/thumb/v7e-m/fpv4-sp/hard/crt0.o
__libc_init_array                                 /home/asmir/Desktop/Dropbox/MCU/gcc/gcc-arm-none-eabi-7-2018-q2-update/bin/../lib/gcc/arm-none-eabi/7.3.1/../../../../arm-none-eabi/lib/thumb/v7e-m/fpv4-sp/hard/libc.a(lib_a-init.o)
                                                  /home/asmir/Desktop/Dropbox/MCU/nxp/RT1021/projects/alencon-systems/bootloader-v0.3/build/startup_MIMXRT1021.o
                                                  /home/asmir/Desktop/Dropbox/MCU/gcc/gcc-arm-none-eabi-7-2018-q2-update/bin/../lib/gcc/arm-none-eabi/7.3.1/../../../../arm-none-eabi/lib/thumb/v7e-m/fpv4-sp/hard/crt0.o
__locale_ctype_ptr                                /home/asmir/Desktop/Dropbox/MCU/gcc/gcc-arm-none-eabi-7-2018-q2-update/bin/../lib/gcc/arm-none-eabi/7.3.1/../../../../arm-none-eabi/lib/thumb/v7e-m/fpv4-sp/hard/libc.a(lib_a-locale.o)
                                                  /home/asmir/Desktop/Dropbox/MCU/gcc/gcc-arm-none-eabi-7-2018-q2-update/bin/../lib/gcc/arm-none-eabi/7.3.1/../../../../arm-none-eabi/lib/thumb/v7e-m/fpv4-sp/hard/libc.a(lib_a-strcasecmp.o)
__locale_ctype_ptr_l                              /home/asmir/Desktop/Dropbox/MCU/gcc/gcc-arm-none-eabi-7-2018-q2-update/bin/../lib/gcc/arm-none-eabi/7.3.1/../../../../arm-none-eabi/lib/thumb/v7e-m/fpv4-sp/hard/libc.a(lib_a-locale.o)
__locale_mb_cur_max                               /home/asmir/Desktop/Dropbox/MCU/gcc/gcc-arm-none-eabi-7-2018-q2-update/bin/../lib/gcc/arm-none-eabi/7.3.1/../../../../arm-none-eabi/lib/thumb/v7e-m/fpv4-sp/hard/libc.a(lib_a-locale.o)
__lock___arc4random_mutex                         /home/asmir/Desktop/Dropbox/MCU/gcc/gcc-arm-none-eabi-7-2018-q2-update/bin/../lib/gcc/arm-none-eabi/7.3.1/../../../../arm-none-eabi/lib/thumb/v7e-m/fpv4-sp/hard/libc.a(lib_a-lock.o)
__lock___at_quick_exit_mutex                      /home/asmir/Desktop/Dropbox/MCU/gcc/gcc-arm-none-eabi-7-2018-q2-update/bin/../lib/gcc/arm-none-eabi/7.3.1/../../../../arm-none-eabi/lib/thumb/v7e-m/fpv4-sp/hard/libc.a(lib_a-lock.o)
__lock___atexit_recursive_mutex                   /home/asmir/Desktop/Dropbox/MCU/gcc/gcc-arm-none-eabi-7-2018-q2-update/bin/../lib/gcc/arm-none-eabi/7.3.1/../../../../arm-none-eabi/lib/thumb/v7e-m/fpv4-sp/hard/libc.a(lib_a-lock.o)
                                                  /home/asmir/Desktop/Dropbox/MCU/gcc/gcc-arm-none-eabi-7-2018-q2-update/bin/../lib/gcc/arm-none-eabi/7.3.1/../../../../arm-none-eabi/lib/thumb/v7e-m/fpv4-sp/hard/libc.a(lib_a-__call_atexit.o)
__lock___dd_hash_mutex                            /home/asmir/Desktop/Dropbox/MCU/gcc/gcc-arm-none-eabi-7-2018-q2-update/bin/../lib/gcc/arm-none-eabi/7.3.1/../../../../arm-none-eabi/lib/thumb/v7e-m/fpv4-sp/hard/libc.a(lib_a-lock.o)
__lock___env_recursive_mutex                      /home/asmir/Desktop/Dropbox/MCU/gcc/gcc-arm-none-eabi-7-2018-q2-update/bin/../lib/gcc/arm-none-eabi/7.3.1/../../../../arm-none-eabi/lib/thumb/v7e-m/fpv4-sp/hard/libc.a(lib_a-lock.o)
__lock___malloc_recursive_mutex                   /home/asmir/Desktop/Dropbox/MCU/gcc/gcc-arm-none-eabi-7-2018-q2-update/bin/../lib/gcc/arm-none-eabi/7.3.1/../../../../arm-none-eabi/lib/thumb/v7e-m/fpv4-sp/hard/libc.a(lib_a-lock.o)
                                                  /home/asmir/Desktop/Dropbox/MCU/gcc/gcc-arm-none-eabi-7-2018-q2-update/bin/../lib/gcc/arm-none-eabi/7.3.1/../../../../arm-none-eabi/lib/thumb/v7e-m/fpv4-sp/hard/libc.a(lib_a-mlock.o)
__lock___sfp_recursive_mutex                      /home/asmir/Desktop/Dropbox/MCU/gcc/gcc-arm-none-eabi-7-2018-q2-update/bin/../lib/gcc/arm-none-eabi/7.3.1/../../../../arm-none-eabi/lib/thumb/v7e-m/fpv4-sp/hard/libc.a(lib_a-lock.o)
__lock___sinit_recursive_mutex                    /home/asmir/Desktop/Dropbox/MCU/gcc/gcc-arm-none-eabi-7-2018-q2-update/bin/../lib/gcc/arm-none-eabi/7.3.1/../../../../arm-none-eabi/lib/thumb/v7e-m/fpv4-sp/hard/libc.a(lib_a-lock.o)
__lock___tz_mutex                                 /home/asmir/Desktop/Dropbox/MCU/gcc/gcc-arm-none-eabi-7-2018-q2-update/bin/../lib/gcc/arm-none-eabi/7.3.1/../../../../arm-none-eabi/lib/thumb/v7e-m/fpv4-sp/hard/libc.a(lib_a-lock.o)
__malloc_av_                                      /home/asmir/Desktop/Dropbox/MCU/gcc/gcc-arm-none-eabi-7-2018-q2-update/bin/../lib/gcc/arm-none-eabi/7.3.1/../../../../arm-none-eabi/lib/thumb/v7e-m/fpv4-sp/hard/libc.a(lib_a-mallocr.o)
                                                  /home/asmir/Desktop/Dropbox/MCU/gcc/gcc-arm-none-eabi-7-2018-q2-update/bin/../lib/gcc/arm-none-eabi/7.3.1/../../../../arm-none-eabi/lib/thumb/v7e-m/fpv4-sp/hard/libc.a(lib_a-freer.o)
__malloc_current_mallinfo                         /home/asmir/Desktop/Dropbox/MCU/gcc/gcc-arm-none-eabi-7-2018-q2-update/bin/../lib/gcc/arm-none-eabi/7.3.1/../../../../arm-none-eabi/lib/thumb/v7e-m/fpv4-sp/hard/libc.a(lib_a-mallocr.o)
                                                  /home/asmir/Desktop/Dropbox/MCU/gcc/gcc-arm-none-eabi-7-2018-q2-update/bin/../lib/gcc/arm-none-eabi/7.3.1/../../../../arm-none-eabi/lib/thumb/v7e-m/fpv4-sp/hard/libc.a(lib_a-freer.o)
__malloc_lock                                     /home/asmir/Desktop/Dropbox/MCU/gcc/gcc-arm-none-eabi-7-2018-q2-update/bin/../lib/gcc/arm-none-eabi/7.3.1/../../../../arm-none-eabi/lib/thumb/v7e-m/fpv4-sp/hard/libc.a(lib_a-mlock.o)
                                                  /home/asmir/Desktop/Dropbox/MCU/gcc/gcc-arm-none-eabi-7-2018-q2-update/bin/../lib/gcc/arm-none-eabi/7.3.1/../../../../arm-none-eabi/lib/thumb/v7e-m/fpv4-sp/hard/libc.a(lib_a-freer.o)
                                                  /home/asmir/Desktop/Dropbox/MCU/gcc/gcc-arm-none-eabi-7-2018-q2-update/bin/../lib/gcc/arm-none-eabi/7.3.1/../../../../arm-none-eabi/lib/thumb/v7e-m/fpv4-sp/hard/libc.a(lib_a-mallocr.o)
__malloc_max_sbrked_mem                           /home/asmir/Desktop/Dropbox/MCU/gcc/gcc-arm-none-eabi-7-2018-q2-update/bin/../lib/gcc/arm-none-eabi/7.3.1/../../../../arm-none-eabi/lib/thumb/v7e-m/fpv4-sp/hard/libc.a(lib_a-mallocr.o)
__malloc_max_total_mem                            /home/asmir/Desktop/Dropbox/MCU/gcc/gcc-arm-none-eabi-7-2018-q2-update/bin/../lib/gcc/arm-none-eabi/7.3.1/../../../../arm-none-eabi/lib/thumb/v7e-m/fpv4-sp/hard/libc.a(lib_a-mallocr.o)
__malloc_sbrk_base                                /home/asmir/Desktop/Dropbox/MCU/gcc/gcc-arm-none-eabi-7-2018-q2-update/bin/../lib/gcc/arm-none-eabi/7.3.1/../../../../arm-none-eabi/lib/thumb/v7e-m/fpv4-sp/hard/libc.a(lib_a-mallocr.o)
                                                  /home/asmir/Desktop/Dropbox/MCU/gcc/gcc-arm-none-eabi-7-2018-q2-update/bin/../lib/gcc/arm-none-eabi/7.3.1/../../../../arm-none-eabi/lib/thumb/v7e-m/fpv4-sp/hard/libc.a(lib_a-freer.o)
__malloc_top_pad                                  /home/asmir/Desktop/Dropbox/MCU/gcc/gcc-arm-none-eabi-7-2018-q2-update/bin/../lib/gcc/arm-none-eabi/7.3.1/../../../../arm-none-eabi/lib/thumb/v7e-m/fpv4-sp/hard/libc.a(lib_a-mallocr.o)
                                                  /home/asmir/Desktop/Dropbox/MCU/gcc/gcc-arm-none-eabi-7-2018-q2-update/bin/../lib/gcc/arm-none-eabi/7.3.1/../../../../arm-none-eabi/lib/thumb/v7e-m/fpv4-sp/hard/libc.a(lib_a-freer.o)
__malloc_trim_threshold                           /home/asmir/Desktop/Dropbox/MCU/gcc/gcc-arm-none-eabi-7-2018-q2-update/bin/../lib/gcc/arm-none-eabi/7.3.1/../../../../arm-none-eabi/lib/thumb/v7e-m/fpv4-sp/hard/libc.a(lib_a-mallocr.o)
                                                  /home/asmir/Desktop/Dropbox/MCU/gcc/gcc-arm-none-eabi-7-2018-q2-update/bin/../lib/gcc/arm-none-eabi/7.3.1/../../../../arm-none-eabi/lib/thumb/v7e-m/fpv4-sp/hard/libc.a(lib_a-freer.o)
__malloc_unlock                                   /home/asmir/Desktop/Dropbox/MCU/gcc/gcc-arm-none-eabi-7-2018-q2-update/bin/../lib/gcc/arm-none-eabi/7.3.1/../../../../arm-none-eabi/lib/thumb/v7e-m/fpv4-sp/hard/libc.a(lib_a-mlock.o)
                                                  /home/asmir/Desktop/Dropbox/MCU/gcc/gcc-arm-none-eabi-7-2018-q2-update/bin/../lib/gcc/arm-none-eabi/7.3.1/../../../../arm-none-eabi/lib/thumb/v7e-m/fpv4-sp/hard/libc.a(lib_a-freer.o)
                                                  /home/asmir/Desktop/Dropbox/MCU/gcc/gcc-arm-none-eabi-7-2018-q2-update/bin/../lib/gcc/arm-none-eabi/7.3.1/../../../../arm-none-eabi/lib/thumb/v7e-m/fpv4-sp/hard/libc.a(lib_a-mallocr.o)
__noncachedata_end__                              /home/asmir/Desktop/Dropbox/MCU/nxp/RT1021/projects/alencon-systems/bootloader-v0.3/build/startup_MIMXRT1021.o
__preinit_array_end                               /home/asmir/Desktop/Dropbox/MCU/gcc/gcc-arm-none-eabi-7-2018-q2-update/bin/../lib/gcc/arm-none-eabi/7.3.1/../../../../arm-none-eabi/lib/thumb/v7e-m/fpv4-sp/hard/libc.a(lib_a-init.o)
__preinit_array_start                             /home/asmir/Desktop/Dropbox/MCU/gcc/gcc-arm-none-eabi-7-2018-q2-update/bin/../lib/gcc/arm-none-eabi/7.3.1/../../../../arm-none-eabi/lib/thumb/v7e-m/fpv4-sp/hard/libc.a(lib_a-init.o)
__register_exitproc                               /home/asmir/Desktop/Dropbox/MCU/gcc/gcc-arm-none-eabi-7-2018-q2-update/bin/../lib/gcc/arm-none-eabi/7.3.1/../../../../arm-none-eabi/lib/thumb/v7e-m/fpv4-sp/hard/libc.a(lib_a-__atexit.o)
                                                  /home/asmir/Desktop/Dropbox/MCU/gcc/gcc-arm-none-eabi-7-2018-q2-update/bin/../lib/gcc/arm-none-eabi/7.3.1/../../../../arm-none-eabi/lib/thumb/v7e-m/fpv4-sp/hard/libc.a(lib_a-atexit.o)
__register_frame_info                             /home/asmir/Desktop/Dropbox/MCU/gcc/gcc-arm-none-eabi-7-2018-q2-update/bin/../lib/gcc/arm-none-eabi/7.3.1/thumb/v7e-m/fpv4-sp/hard/crtbegin.o
__retarget_lock_acquire                           /home/asmir/Desktop/Dropbox/MCU/gcc/gcc-arm-none-eabi-7-2018-q2-update/bin/../lib/gcc/arm-none-eabi/7.3.1/../../../../arm-none-eabi/lib/thumb/v7e-m/fpv4-sp/hard/libc.a(lib_a-lock.o)
__retarget_lock_acquire_recursive                 /home/asmir/Desktop/Dropbox/MCU/gcc/gcc-arm-none-eabi-7-2018-q2-update/bin/../lib/gcc/arm-none-eabi/7.3.1/../../../../arm-none-eabi/lib/thumb/v7e-m/fpv4-sp/hard/libc.a(lib_a-lock.o)
                                                  /home/asmir/Desktop/Dropbox/MCU/gcc/gcc-arm-none-eabi-7-2018-q2-update/bin/../lib/gcc/arm-none-eabi/7.3.1/../../../../arm-none-eabi/lib/thumb/v7e-m/fpv4-sp/hard/libc.a(lib_a-__atexit.o)
                                                  /home/asmir/Desktop/Dropbox/MCU/gcc/gcc-arm-none-eabi-7-2018-q2-update/bin/../lib/gcc/arm-none-eabi/7.3.1/../../../../arm-none-eabi/lib/thumb/v7e-m/fpv4-sp/hard/libc.a(lib_a-__call_atexit.o)
                                                  /home/asmir/Desktop/Dropbox/MCU/gcc/gcc-arm-none-eabi-7-2018-q2-update/bin/../lib/gcc/arm-none-eabi/7.3.1/../../../../arm-none-eabi/lib/thumb/v7e-m/fpv4-sp/hard/libc.a(lib_a-mlock.o)
__retarget_lock_close                             /home/asmir/Desktop/Dropbox/MCU/gcc/gcc-arm-none-eabi-7-2018-q2-update/bin/../lib/gcc/arm-none-eabi/7.3.1/../../../../arm-none-eabi/lib/thumb/v7e-m/fpv4-sp/hard/libc.a(lib_a-lock.o)
__retarget_lock_close_recursive                   /home/asmir/Desktop/Dropbox/MCU/gcc/gcc-arm-none-eabi-7-2018-q2-update/bin/../lib/gcc/arm-none-eabi/7.3.1/../../../../arm-none-eabi/lib/thumb/v7e-m/fpv4-sp/hard/libc.a(lib_a-lock.o)
__retarget_lock_init                              /home/asmir/Desktop/Dropbox/MCU/gcc/gcc-arm-none-eabi-7-2018-q2-update/bin/../lib/gcc/arm-none-eabi/7.3.1/../../../../arm-none-eabi/lib/thumb/v7e-m/fpv4-sp/hard/libc.a(lib_a-lock.o)
__retarget_lock_init_recursive                    /home/asmir/Desktop/Dropbox/MCU/gcc/gcc-arm-none-eabi-7-2018-q2-update/bin/../lib/gcc/arm-none-eabi/7.3.1/../../../../arm-none-eabi/lib/thumb/v7e-m/fpv4-sp/hard/libc.a(lib_a-lock.o)
__retarget_lock_release                           /home/asmir/Desktop/Dropbox/MCU/gcc/gcc-arm-none-eabi-7-2018-q2-update/bin/../lib/gcc/arm-none-eabi/7.3.1/../../../../arm-none-eabi/lib/thumb/v7e-m/fpv4-sp/hard/libc.a(lib_a-lock.o)
__retarget_lock_release_recursive                 /home/asmir/Desktop/Dropbox/MCU/gcc/gcc-arm-none-eabi-7-2018-q2-update/bin/../lib/gcc/arm-none-eabi/7.3.1/../../../../arm-none-eabi/lib/thumb/v7e-m/fpv4-sp/hard/libc.a(lib_a-lock.o)
                                                  /home/asmir/Desktop/Dropbox/MCU/gcc/gcc-arm-none-eabi-7-2018-q2-update/bin/../lib/gcc/arm-none-eabi/7.3.1/../../../../arm-none-eabi/lib/thumb/v7e-m/fpv4-sp/hard/libc.a(lib_a-__atexit.o)
                                                  /home/asmir/Desktop/Dropbox/MCU/gcc/gcc-arm-none-eabi-7-2018-q2-update/bin/../lib/gcc/arm-none-eabi/7.3.1/../../../../arm-none-eabi/lib/thumb/v7e-m/fpv4-sp/hard/libc.a(lib_a-__call_atexit.o)
                                                  /home/asmir/Desktop/Dropbox/MCU/gcc/gcc-arm-none-eabi-7-2018-q2-update/bin/../lib/gcc/arm-none-eabi/7.3.1/../../../../arm-none-eabi/lib/thumb/v7e-m/fpv4-sp/hard/libc.a(lib_a-mlock.o)
__retarget_lock_try_acquire                       /home/asmir/Desktop/Dropbox/MCU/gcc/gcc-arm-none-eabi-7-2018-q2-update/bin/../lib/gcc/arm-none-eabi/7.3.1/../../../../arm-none-eabi/lib/thumb/v7e-m/fpv4-sp/hard/libc.a(lib_a-lock.o)
__retarget_lock_try_acquire_recursive             /home/asmir/Desktop/Dropbox/MCU/gcc/gcc-arm-none-eabi-7-2018-q2-update/bin/../lib/gcc/arm-none-eabi/7.3.1/../../../../arm-none-eabi/lib/thumb/v7e-m/fpv4-sp/hard/libc.a(lib_a-lock.o)
__stack                                           /home/asmir/Desktop/Dropbox/MCU/gcc/gcc-arm-none-eabi-7-2018-q2-update/bin/../lib/gcc/arm-none-eabi/7.3.1/../../../../arm-none-eabi/lib/thumb/v7e-m/fpv4-sp/hard/crt0.o
__udivmoddi4                                      /home/asmir/Desktop/Dropbox/MCU/gcc/gcc-arm-none-eabi-7-2018-q2-update/bin/../lib/gcc/arm-none-eabi/7.3.1/thumb/v7e-m/fpv4-sp/hard/libgcc.a(_udivmoddi4.o)
                                                  /home/asmir/Desktop/Dropbox/MCU/gcc/gcc-arm-none-eabi-7-2018-q2-update/bin/../lib/gcc/arm-none-eabi/7.3.1/thumb/v7e-m/fpv4-sp/hard/libgcc.a(_aeabi_uldivmod.o)
                                                  /home/asmir/Desktop/Dropbox/MCU/gcc/gcc-arm-none-eabi-7-2018-q2-update/bin/../lib/gcc/arm-none-eabi/7.3.1/thumb/v7e-m/fpv4-sp/hard/libgcc.a(_aeabi_ldivmod.o)
_ctype_                                           /home/asmir/Desktop/Dropbox/MCU/gcc/gcc-arm-none-eabi-7-2018-q2-update/bin/../lib/gcc/arm-none-eabi/7.3.1/../../../../arm-none-eabi/lib/thumb/v7e-m/fpv4-sp/hard/libc.a(lib_a-ctype_.o)
                                                  /home/asmir/Desktop/Dropbox/MCU/gcc/gcc-arm-none-eabi-7-2018-q2-update/bin/../lib/gcc/arm-none-eabi/7.3.1/../../../../arm-none-eabi/lib/thumb/v7e-m/fpv4-sp/hard/libc.a(lib_a-locale.o)
_exit                                             /home/asmir/Desktop/Dropbox/MCU/gcc/gcc-arm-none-eabi-7-2018-q2-update/bin/../lib/gcc/arm-none-eabi/7.3.1/../../../../arm-none-eabi/lib/thumb/v7e-m/fpv4-sp/hard/libnosys.a(_exit.o)
                                                  /home/asmir/Desktop/Dropbox/MCU/gcc/gcc-arm-none-eabi-7-2018-q2-update/bin/../lib/gcc/arm-none-eabi/7.3.1/../../../../arm-none-eabi/lib/thumb/v7e-m/fpv4-sp/hard/libc.a(lib_a-exit.o)
_fini                                             /home/asmir/Desktop/Dropbox/MCU/gcc/gcc-arm-none-eabi-7-2018-q2-update/bin/../lib/gcc/arm-none-eabi/7.3.1/thumb/v7e-m/fpv4-sp/hard/crti.o
                                                  /home/asmir/Desktop/Dropbox/MCU/gcc/gcc-arm-none-eabi-7-2018-q2-update/bin/../lib/gcc/arm-none-eabi/7.3.1/../../../../arm-none-eabi/lib/thumb/v7e-m/fpv4-sp/hard/libc.a(lib_a-fini.o)
_flexspi                                          /home/asmir/Desktop/Dropbox/MCU/nxp/RT1021/projects/alencon-systems/bootloader-v0.3/build/startup_MIMXRT1021.o
_free_r                                           /home/asmir/Desktop/Dropbox/MCU/gcc/gcc-arm-none-eabi-7-2018-q2-update/bin/../lib/gcc/arm-none-eabi/7.3.1/../../../../arm-none-eabi/lib/thumb/v7e-m/fpv4-sp/hard/libc.a(lib_a-freer.o)
                                                  /home/asmir/Desktop/Dropbox/MCU/gcc/gcc-arm-none-eabi-7-2018-q2-update/bin/../lib/gcc/arm-none-eabi/7.3.1/../../../../arm-none-eabi/lib/thumb/v7e-m/fpv4-sp/hard/libc.a(lib_a-reent.o)
                                                  /home/asmir/Desktop/Dropbox/MCU/gcc/gcc-arm-none-eabi-7-2018-q2-update/bin/../lib/gcc/arm-none-eabi/7.3.1/../../../../arm-none-eabi/lib/thumb/v7e-m/fpv4-sp/hard/libc.a(lib_a-mallocr.o)
                                                  /home/asmir/Desktop/Dropbox/MCU/gcc/gcc-arm-none-eabi-7-2018-q2-update/bin/../lib/gcc/arm-none-eabi/7.3.1/../../../../arm-none-eabi/lib/thumb/v7e-m/fpv4-sp/hard/libc.a(lib_a-malloc.o)
_global_impure_ptr                                /home/asmir/Desktop/Dropbox/MCU/gcc/gcc-arm-none-eabi-7-2018-q2-update/bin/../lib/gcc/arm-none-eabi/7.3.1/../../../../arm-none-eabi/lib/thumb/v7e-m/fpv4-sp/hard/libc.a(lib_a-impure.o)
                                                  /home/asmir/Desktop/Dropbox/MCU/gcc/gcc-arm-none-eabi-7-2018-q2-update/bin/../lib/gcc/arm-none-eabi/7.3.1/../../../../arm-none-eabi/lib/thumb/v7e-m/fpv4-sp/hard/libc.a(lib_a-__atexit.o)
                                                  /home/asmir/Desktop/Dropbox/MCU/gcc/gcc-arm-none-eabi-7-2018-q2-update/bin/../lib/gcc/arm-none-eabi/7.3.1/../../../../arm-none-eabi/lib/thumb/v7e-m/fpv4-sp/hard/libc.a(lib_a-__call_atexit.o)
                                                  /home/asmir/Desktop/Dropbox/MCU/gcc/gcc-arm-none-eabi-7-2018-q2-update/bin/../lib/gcc/arm-none-eabi/7.3.1/../../../../arm-none-eabi/lib/thumb/v7e-m/fpv4-sp/hard/libc.a(lib_a-exit.o)
_impure_ptr                                       /home/asmir/Desktop/Dropbox/MCU/gcc/gcc-arm-none-eabi-7-2018-q2-update/bin/../lib/gcc/arm-none-eabi/7.3.1/../../../../arm-none-eabi/lib/thumb/v7e-m/fpv4-sp/hard/libc.a(lib_a-impure.o)
                                                  /home/asmir/Desktop/Dropbox/MCU/gcc/gcc-arm-none-eabi-7-2018-q2-update/bin/../lib/gcc/arm-none-eabi/7.3.1/../../../../arm-none-eabi/lib/thumb/v7e-m/fpv4-sp/hard/libc.a(lib_a-wctomb_r.o)
                                                  /home/asmir/Desktop/Dropbox/MCU/gcc/gcc-arm-none-eabi-7-2018-q2-update/bin/../lib/gcc/arm-none-eabi/7.3.1/../../../../arm-none-eabi/lib/thumb/v7e-m/fpv4-sp/hard/libc.a(lib_a-reent.o)
                                                  /home/asmir/Desktop/Dropbox/MCU/gcc/gcc-arm-none-eabi-7-2018-q2-update/bin/../lib/gcc/arm-none-eabi/7.3.1/../../../../arm-none-eabi/lib/thumb/v7e-m/fpv4-sp/hard/libc.a(lib_a-mbtowc_r.o)
                                                  /home/asmir/Desktop/Dropbox/MCU/gcc/gcc-arm-none-eabi-7-2018-q2-update/bin/../lib/gcc/arm-none-eabi/7.3.1/../../../../arm-none-eabi/lib/thumb/v7e-m/fpv4-sp/hard/libc.a(lib_a-locale.o)
                                                  /home/asmir/Desktop/Dropbox/MCU/gcc/gcc-arm-none-eabi-7-2018-q2-update/bin/../lib/gcc/arm-none-eabi/7.3.1/../../../../arm-none-eabi/lib/thumb/v7e-m/fpv4-sp/hard/libc.a(lib_a-malloc.o)
                                                  /home/asmir/Desktop/Dropbox/MCU/gcc/gcc-arm-none-eabi-7-2018-q2-update/bin/../lib/gcc/arm-none-eabi/7.3.1/../../../../arm-none-eabi/lib/thumb/v7e-m/fpv4-sp/hard/libc.a(lib_a-errno.o)
_init                                             /home/asmir/Desktop/Dropbox/MCU/gcc/gcc-arm-none-eabi-7-2018-q2-update/bin/../lib/gcc/arm-none-eabi/7.3.1/thumb/v7e-m/fpv4-sp/hard/crti.o
                                                  /home/asmir/Desktop/Dropbox/MCU/gcc/gcc-arm-none-eabi-7-2018-q2-update/bin/../lib/gcc/arm-none-eabi/7.3.1/../../../../arm-none-eabi/lib/thumb/v7e-m/fpv4-sp/hard/libc.a(lib_a-init.o)
_mainCRTStartup                                   /home/asmir/Desktop/Dropbox/MCU/gcc/gcc-arm-none-eabi-7-2018-q2-update/bin/../lib/gcc/arm-none-eabi/7.3.1/../../../../arm-none-eabi/lib/thumb/v7e-m/fpv4-sp/hard/crt0.o
_malloc_r                                         /home/asmir/Desktop/Dropbox/MCU/gcc/gcc-arm-none-eabi-7-2018-q2-update/bin/../lib/gcc/arm-none-eabi/7.3.1/../../../../arm-none-eabi/lib/thumb/v7e-m/fpv4-sp/hard/libc.a(lib_a-mallocr.o)
                                                  /home/asmir/Desktop/Dropbox/MCU/gcc/gcc-arm-none-eabi-7-2018-q2-update/bin/../lib/gcc/arm-none-eabi/7.3.1/../../../../arm-none-eabi/lib/thumb/v7e-m/fpv4-sp/hard/libc.a(lib_a-malloc.o)
_malloc_trim_r                                    /home/asmir/Desktop/Dropbox/MCU/gcc/gcc-arm-none-eabi-7-2018-q2-update/bin/../lib/gcc/arm-none-eabi/7.3.1/../../../../arm-none-eabi/lib/thumb/v7e-m/fpv4-sp/hard/libc.a(lib_a-freer.o)
_mbtowc_r                                         /home/asmir/Desktop/Dropbox/MCU/gcc/gcc-arm-none-eabi-7-2018-q2-update/bin/../lib/gcc/arm-none-eabi/7.3.1/../../../../arm-none-eabi/lib/thumb/v7e-m/fpv4-sp/hard/libc.a(lib_a-mbtowc_r.o)
_reclaim_reent                                    /home/asmir/Desktop/Dropbox/MCU/gcc/gcc-arm-none-eabi-7-2018-q2-update/bin/../lib/gcc/arm-none-eabi/7.3.1/../../../../arm-none-eabi/lib/thumb/v7e-m/fpv4-sp/hard/libc.a(lib_a-reent.o)
_sbrk                                             /home/asmir/Desktop/Dropbox/MCU/nxp/RT1021/projects/alencon-systems/bootloader-v0.3/build/fsl_sbrk.o
                                                  /home/asmir/Desktop/Dropbox/MCU/gcc/gcc-arm-none-eabi-7-2018-q2-update/bin/../lib/gcc/arm-none-eabi/7.3.1/../../../../arm-none-eabi/lib/thumb/v7e-m/fpv4-sp/hard/libc.a(lib_a-sbrkr.o)
_sbrk_r                                           /home/asmir/Desktop/Dropbox/MCU/gcc/gcc-arm-none-eabi-7-2018-q2-update/bin/../lib/gcc/arm-none-eabi/7.3.1/../../../../arm-none-eabi/lib/thumb/v7e-m/fpv4-sp/hard/libc.a(lib_a-sbrkr.o)
                                                  /home/asmir/Desktop/Dropbox/MCU/gcc/gcc-arm-none-eabi-7-2018-q2-update/bin/../lib/gcc/arm-none-eabi/7.3.1/../../../../arm-none-eabi/lib/thumb/v7e-m/fpv4-sp/hard/libc.a(lib_a-freer.o)
                                                  /home/asmir/Desktop/Dropbox/MCU/gcc/gcc-arm-none-eabi-7-2018-q2-update/bin/../lib/gcc/arm-none-eabi/7.3.1/../../../../arm-none-eabi/lib/thumb/v7e-m/fpv4-sp/hard/libc.a(lib_a-mallocr.o)
_setlocale_r                                      /home/asmir/Desktop/Dropbox/MCU/gcc/gcc-arm-none-eabi-7-2018-q2-update/bin/../lib/gcc/arm-none-eabi/7.3.1/../../../../arm-none-eabi/lib/thumb/v7e-m/fpv4-sp/hard/libc.a(lib_a-locale.o)
_start                                            /home/asmir/Desktop/Dropbox/MCU/gcc/gcc-arm-none-eabi-7-2018-q2-update/bin/../lib/gcc/arm-none-eabi/7.3.1/../../../../arm-none-eabi/lib/thumb/v7e-m/fpv4-sp/hard/crt0.o
_wctomb_r                                         /home/asmir/Desktop/Dropbox/MCU/gcc/gcc-arm-none-eabi-7-2018-q2-update/bin/../lib/gcc/arm-none-eabi/7.3.1/../../../../arm-none-eabi/lib/thumb/v7e-m/fpv4-sp/hard/libc.a(lib_a-wctomb_r.o)
atexit                                            /home/asmir/Desktop/Dropbox/MCU/gcc/gcc-arm-none-eabi-7-2018-q2-update/bin/../lib/gcc/arm-none-eabi/7.3.1/../../../../arm-none-eabi/lib/thumb/v7e-m/fpv4-sp/hard/libc.a(lib_a-atexit.o)
                                                  /home/asmir/Desktop/Dropbox/MCU/gcc/gcc-arm-none-eabi-7-2018-q2-update/bin/../lib/gcc/arm-none-eabi/7.3.1/../../../../arm-none-eabi/lib/thumb/v7e-m/fpv4-sp/hard/libc.a(lib_a-__call_atexit.o)
                                                  /home/asmir/Desktop/Dropbox/MCU/gcc/gcc-arm-none-eabi-7-2018-q2-update/bin/../lib/gcc/arm-none-eabi/7.3.1/../../../../arm-none-eabi/lib/thumb/v7e-m/fpv4-sp/hard/crt0.o
catStrMISC                                        /home/asmir/Desktop/Dropbox/MCU/nxp/RT1021/projects/alencon-systems/bootloader-v0.3/build/misc.o
chk4TimeoutSYSTIM                                 /home/asmir/Desktop/Dropbox/MCU/nxp/RT1021/projects/alencon-systems/bootloader-v0.3/build/delay.o
cleanup_glue                                      /home/asmir/Desktop/Dropbox/MCU/gcc/gcc-arm-none-eabi-7-2018-q2-update/bin/../lib/gcc/arm-none-eabi/7.3.1/../../../../arm-none-eabi/lib/thumb/v7e-m/fpv4-sp/hard/libc.a(lib_a-reent.o)
cmpStrMISC                                        /home/asmir/Desktop/Dropbox/MCU/nxp/RT1021/projects/alencon-systems/bootloader-v0.3/build/misc.o
cmpStrWithLenMISC                                 /home/asmir/Desktop/Dropbox/MCU/nxp/RT1021/projects/alencon-systems/bootloader-v0.3/build/misc.o
cpyStrMISC                                        /home/asmir/Desktop/Dropbox/MCU/nxp/RT1021/projects/alencon-systems/bootloader-v0.3/build/misc.o
customLUT                                         /home/asmir/Desktop/Dropbox/MCU/nxp/RT1021/projects/alencon-systems/bootloader-v0.3/build/flexspi_nor_flash_ops.o
dcd_data                                          /home/asmir/Desktop/Dropbox/MCU/nxp/RT1021/projects/alencon-systems/bootloader-v0.3/build/dcd.o
                                                  /home/asmir/Desktop/Dropbox/MCU/nxp/RT1021/projects/alencon-systems/bootloader-v0.3/build/fsl_flexspi_nor_boot.o
dcdc_id                                           /home/asmir/Desktop/Dropbox/MCU/nxp/RT1021/projects/alencon-systems/bootloader-v0.3/build/bootloader.o
deinitLPUART1                                     /home/asmir/Desktop/Dropbox/MCU/nxp/RT1021/projects/alencon-systems/bootloader-v0.3/build/lpuart.o
delay_ms                                          /home/asmir/Desktop/Dropbox/MCU/nxp/RT1021/projects/alencon-systems/bootloader-v0.3/build/delay.o
delay_us                                          /home/asmir/Desktop/Dropbox/MCU/nxp/RT1021/projects/alencon-systems/bootloader-v0.3/build/delay.o
deviceconfig                                      /home/asmir/Desktop/Dropbox/MCU/nxp/RT1021/projects/alencon-systems/bootloader-v0.3/build/flexspi_nor_flash_ops.o
eMBClose                                          /home/asmir/Desktop/Dropbox/MCU/nxp/RT1021/projects/alencon-systems/bootloader-v0.3/build/mb.o
                                                  /home/asmir/Desktop/Dropbox/MCU/nxp/RT1021/projects/alencon-systems/bootloader-v0.3/build/AlenconModbus.o
eMBDisable                                        /home/asmir/Desktop/Dropbox/MCU/nxp/RT1021/projects/alencon-systems/bootloader-v0.3/build/mb.o
                                                  /home/asmir/Desktop/Dropbox/MCU/nxp/RT1021/projects/alencon-systems/bootloader-v0.3/build/AlenconModbus.o
eMBEnable                                         /home/asmir/Desktop/Dropbox/MCU/nxp/RT1021/projects/alencon-systems/bootloader-v0.3/build/mb.o
                                                  /home/asmir/Desktop/Dropbox/MCU/nxp/RT1021/projects/alencon-systems/bootloader-v0.3/build/AlenconModbus.o
eMBFuncReadCoils                                  /home/asmir/Desktop/Dropbox/MCU/nxp/RT1021/projects/alencon-systems/bootloader-v0.3/build/mbfunccoils.o
                                                  /home/asmir/Desktop/Dropbox/MCU/nxp/RT1021/projects/alencon-systems/bootloader-v0.3/build/mb.o
eMBFuncReadDiscreteInputs                         /home/asmir/Desktop/Dropbox/MCU/nxp/RT1021/projects/alencon-systems/bootloader-v0.3/build/mbfuncdisc.o
                                                  /home/asmir/Desktop/Dropbox/MCU/nxp/RT1021/projects/alencon-systems/bootloader-v0.3/build/mb.o
eMBFuncReadHoldingRegister                        /home/asmir/Desktop/Dropbox/MCU/nxp/RT1021/projects/alencon-systems/bootloader-v0.3/build/mbfuncholding.o
                                                  /home/asmir/Desktop/Dropbox/MCU/nxp/RT1021/projects/alencon-systems/bootloader-v0.3/build/mb.o
eMBFuncReadInputRegister                          /home/asmir/Desktop/Dropbox/MCU/nxp/RT1021/projects/alencon-systems/bootloader-v0.3/build/mbfuncinput.o
                                                  /home/asmir/Desktop/Dropbox/MCU/nxp/RT1021/projects/alencon-systems/bootloader-v0.3/build/mb.o
eMBFuncReadWriteMultipleHoldingRegister           /home/asmir/Desktop/Dropbox/MCU/nxp/RT1021/projects/alencon-systems/bootloader-v0.3/build/mbfuncholding.o
                                                  /home/asmir/Desktop/Dropbox/MCU/nxp/RT1021/projects/alencon-systems/bootloader-v0.3/build/mb.o
eMBFuncReportSlaveID                              /home/asmir/Desktop/Dropbox/MCU/nxp/RT1021/projects/alencon-systems/bootloader-v0.3/build/mbfuncother.o
                                                  /home/asmir/Desktop/Dropbox/MCU/nxp/RT1021/projects/alencon-systems/bootloader-v0.3/build/mb.o
eMBFuncWriteCoil                                  /home/asmir/Desktop/Dropbox/MCU/nxp/RT1021/projects/alencon-systems/bootloader-v0.3/build/mbfunccoils.o
                                                  /home/asmir/Desktop/Dropbox/MCU/nxp/RT1021/projects/alencon-systems/bootloader-v0.3/build/mb.o
eMBFuncWriteHoldingRegister                       /home/asmir/Desktop/Dropbox/MCU/nxp/RT1021/projects/alencon-systems/bootloader-v0.3/build/mbfuncholding.o
                                                  /home/asmir/Desktop/Dropbox/MCU/nxp/RT1021/projects/alencon-systems/bootloader-v0.3/build/mb.o
eMBFuncWriteMultipleCoils                         /home/asmir/Desktop/Dropbox/MCU/nxp/RT1021/projects/alencon-systems/bootloader-v0.3/build/mbfunccoils.o
                                                  /home/asmir/Desktop/Dropbox/MCU/nxp/RT1021/projects/alencon-systems/bootloader-v0.3/build/mb.o
eMBFuncWriteMultipleHoldingRegister               /home/asmir/Desktop/Dropbox/MCU/nxp/RT1021/projects/alencon-systems/bootloader-v0.3/build/mbfuncholding.o
                                                  /home/asmir/Desktop/Dropbox/MCU/nxp/RT1021/projects/alencon-systems/bootloader-v0.3/build/mb.o
eMBInit                                           /home/asmir/Desktop/Dropbox/MCU/nxp/RT1021/projects/alencon-systems/bootloader-v0.3/build/mb.o
                                                  /home/asmir/Desktop/Dropbox/MCU/nxp/RT1021/projects/alencon-systems/bootloader-v0.3/build/AlenconModbus.o
eMBPoll                                           /home/asmir/Desktop/Dropbox/MCU/nxp/RT1021/projects/alencon-systems/bootloader-v0.3/build/mb.o
                                                  /home/asmir/Desktop/Dropbox/MCU/nxp/RT1021/projects/alencon-systems/bootloader-v0.3/build/AlenconModbus.o
eMBRTUInit                                        /home/asmir/Desktop/Dropbox/MCU/nxp/RT1021/projects/alencon-systems/bootloader-v0.3/build/DCDC_mbrtu.o
                                                  /home/asmir/Desktop/Dropbox/MCU/nxp/RT1021/projects/alencon-systems/bootloader-v0.3/build/mb.o
eMBRTUReceive                                     /home/asmir/Desktop/Dropbox/MCU/nxp/RT1021/projects/alencon-systems/bootloader-v0.3/build/DCDC_mbrtu.o
                                                  /home/asmir/Desktop/Dropbox/MCU/nxp/RT1021/projects/alencon-systems/bootloader-v0.3/build/mb.o
eMBRTUSend                                        /home/asmir/Desktop/Dropbox/MCU/nxp/RT1021/projects/alencon-systems/bootloader-v0.3/build/DCDC_mbrtu.o
                                                  /home/asmir/Desktop/Dropbox/MCU/nxp/RT1021/projects/alencon-systems/bootloader-v0.3/build/mb.o
eMBRTUStart                                       /home/asmir/Desktop/Dropbox/MCU/nxp/RT1021/projects/alencon-systems/bootloader-v0.3/build/DCDC_mbrtu.o
                                                  /home/asmir/Desktop/Dropbox/MCU/nxp/RT1021/projects/alencon-systems/bootloader-v0.3/build/mb.o
eMBRTUStop                                        /home/asmir/Desktop/Dropbox/MCU/nxp/RT1021/projects/alencon-systems/bootloader-v0.3/build/DCDC_mbrtu.o
                                                  /home/asmir/Desktop/Dropbox/MCU/nxp/RT1021/projects/alencon-systems/bootloader-v0.3/build/mb.o
eMBRegCoilsCB                                     /home/asmir/Desktop/Dropbox/MCU/nxp/RT1021/projects/alencon-systems/bootloader-v0.3/build/AlenconModbus.o
                                                  /home/asmir/Desktop/Dropbox/MCU/nxp/RT1021/projects/alencon-systems/bootloader-v0.3/build/mbfunccoils.o
eMBRegDiscreteCB                                  /home/asmir/Desktop/Dropbox/MCU/nxp/RT1021/projects/alencon-systems/bootloader-v0.3/build/AlenconModbus.o
                                                  /home/asmir/Desktop/Dropbox/MCU/nxp/RT1021/projects/alencon-systems/bootloader-v0.3/build/mbfuncdisc.o
eMBRegHoldingCB                                   /home/asmir/Desktop/Dropbox/MCU/nxp/RT1021/projects/alencon-systems/bootloader-v0.3/build/AlenconModbus.o
                                                  /home/asmir/Desktop/Dropbox/MCU/nxp/RT1021/projects/alencon-systems/bootloader-v0.3/build/mbfuncholding.o
eMBRegInputCB                                     /home/asmir/Desktop/Dropbox/MCU/nxp/RT1021/projects/alencon-systems/bootloader-v0.3/build/AlenconModbus.o
                                                  /home/asmir/Desktop/Dropbox/MCU/nxp/RT1021/projects/alencon-systems/bootloader-v0.3/build/mbfuncinput.o
eMBRegisterCB                                     /home/asmir/Desktop/Dropbox/MCU/nxp/RT1021/projects/alencon-systems/bootloader-v0.3/build/mb.o
eMBSetSlaveID                                     /home/asmir/Desktop/Dropbox/MCU/nxp/RT1021/projects/alencon-systems/bootloader-v0.3/build/mbfuncother.o
                                                  /home/asmir/Desktop/Dropbox/MCU/nxp/RT1021/projects/alencon-systems/bootloader-v0.3/build/AlenconModbus.o
eeprom_data1                                      /home/asmir/Desktop/Dropbox/MCU/nxp/RT1021/projects/alencon-systems/bootloader-v0.3/build/hal_eeprom.o
eeprom_data2                                      /home/asmir/Desktop/Dropbox/MCU/nxp/RT1021/projects/alencon-systems/bootloader-v0.3/build/hal_eeprom.o
end                                               /home/asmir/Desktop/Dropbox/MCU/nxp/RT1021/projects/alencon-systems/bootloader-v0.3/build/fsl_sbrk.o
enetPllConfig_BOARD_BootClockRUN                  /home/asmir/Desktop/Dropbox/MCU/nxp/RT1021/projects/alencon-systems/bootloader-v0.3/build/clock_config.o
errno                                             /home/asmir/Desktop/Dropbox/MCU/gcc/gcc-arm-none-eabi-7-2018-q2-update/bin/../lib/gcc/arm-none-eabi/7.3.1/../../../../arm-none-eabi/lib/thumb/v7e-m/fpv4-sp/hard/libc.a(lib_a-reent.o)
                                                  /home/asmir/Desktop/Dropbox/MCU/gcc/gcc-arm-none-eabi-7-2018-q2-update/bin/../lib/gcc/arm-none-eabi/7.3.1/../../../../arm-none-eabi/lib/thumb/v7e-m/fpv4-sp/hard/libc.a(lib_a-sbrkr.o)
error_flags                                       /home/asmir/Desktop/Dropbox/MCU/nxp/RT1021/projects/alencon-systems/bootloader-v0.3/build/uart.o
exit                                              /home/asmir/Desktop/Dropbox/MCU/gcc/gcc-arm-none-eabi-7-2018-q2-update/bin/../lib/gcc/arm-none-eabi/7.3.1/../../../../arm-none-eabi/lib/thumb/v7e-m/fpv4-sp/hard/libc.a(lib_a-exit.o)
                                                  /home/asmir/Desktop/Dropbox/MCU/gcc/gcc-arm-none-eabi-7-2018-q2-update/bin/../lib/gcc/arm-none-eabi/7.3.1/../../../../arm-none-eabi/lib/thumb/v7e-m/fpv4-sp/hard/crt0.o
firmware_status_e                                 /home/asmir/Desktop/Dropbox/MCU/nxp/RT1021/projects/alencon-systems/bootloader-v0.3/build/AlenconModbusBootloader.o
flexspi_nor_disable_cache                         /home/asmir/Desktop/Dropbox/MCU/nxp/RT1021/projects/alencon-systems/bootloader-v0.3/build/flexspi_nor_flash_ops.o
flexspi_nor_enable_cache                          /home/asmir/Desktop/Dropbox/MCU/nxp/RT1021/projects/alencon-systems/bootloader-v0.3/build/flexspi_nor_flash_ops.o
flexspi_nor_enable_quad_mode                      /home/asmir/Desktop/Dropbox/MCU/nxp/RT1021/projects/alencon-systems/bootloader-v0.3/build/flexspi_nor_flash_ops.o
                                                  /home/asmir/Desktop/Dropbox/MCU/nxp/RT1021/projects/alencon-systems/bootloader-v0.3/build/hal_eeprom.o
flexspi_nor_erase_chip                            /home/asmir/Desktop/Dropbox/MCU/nxp/RT1021/projects/alencon-systems/bootloader-v0.3/build/flexspi_nor_flash_ops.o
flexspi_nor_flash_erase_sector                    /home/asmir/Desktop/Dropbox/MCU/nxp/RT1021/projects/alencon-systems/bootloader-v0.3/build/flexspi_nor_flash_ops.o
                                                  /home/asmir/Desktop/Dropbox/MCU/nxp/RT1021/projects/alencon-systems/bootloader-v0.3/build/hal_eeprom.o
                                                  /home/asmir/Desktop/Dropbox/MCU/nxp/RT1021/projects/alencon-systems/bootloader-v0.3/build/flash.o
flexspi_nor_flash_init                            /home/asmir/Desktop/Dropbox/MCU/nxp/RT1021/projects/alencon-systems/bootloader-v0.3/build/flexspi_nor_flash_ops.o
                                                  /home/asmir/Desktop/Dropbox/MCU/nxp/RT1021/projects/alencon-systems/bootloader-v0.3/build/hal_eeprom.o
flexspi_nor_flash_page_program                    /home/asmir/Desktop/Dropbox/MCU/nxp/RT1021/projects/alencon-systems/bootloader-v0.3/build/flexspi_nor_flash_ops.o
                                                  /home/asmir/Desktop/Dropbox/MCU/nxp/RT1021/projects/alencon-systems/bootloader-v0.3/build/hal_eeprom.o
flexspi_nor_flash_program                         /home/asmir/Desktop/Dropbox/MCU/nxp/RT1021/projects/alencon-systems/bootloader-v0.3/build/flexspi_nor_flash_ops.o
                                                  /home/asmir/Desktop/Dropbox/MCU/nxp/RT1021/projects/alencon-systems/bootloader-v0.3/build/hal_eeprom.o
                                                  /home/asmir/Desktop/Dropbox/MCU/nxp/RT1021/projects/alencon-systems/bootloader-v0.3/build/flash.o
flexspi_nor_get_vendor_id                         /home/asmir/Desktop/Dropbox/MCU/nxp/RT1021/projects/alencon-systems/bootloader-v0.3/build/flexspi_nor_flash_ops.o
flexspi_nor_wait_bus_busy                         /home/asmir/Desktop/Dropbox/MCU/nxp/RT1021/projects/alencon-systems/bootloader-v0.3/build/flexspi_nor_flash_ops.o
flexspi_nor_write_enable                          /home/asmir/Desktop/Dropbox/MCU/nxp/RT1021/projects/alencon-systems/bootloader-v0.3/build/flexspi_nor_flash_ops.o
free                                              /home/asmir/Desktop/Dropbox/MCU/gcc/gcc-arm-none-eabi-7-2018-q2-update/bin/../lib/gcc/arm-none-eabi/7.3.1/../../../../arm-none-eabi/lib/thumb/v7e-m/fpv4-sp/hard/libc.a(lib_a-malloc.o)
                                                  /home/asmir/Desktop/Dropbox/MCU/gcc/gcc-arm-none-eabi-7-2018-q2-update/bin/../lib/gcc/arm-none-eabi/7.3.1/../../../../arm-none-eabi/lib/thumb/v7e-m/fpv4-sp/hard/libc.a(lib_a-__call_atexit.o)
                                                  /home/asmir/Desktop/Dropbox/MCU/nxp/RT1021/projects/alencon-systems/bootloader-v0.3/build/fsl_common.o
g_DEBUG_INFO                                      /home/asmir/Desktop/Dropbox/MCU/nxp/RT1021/projects/alencon-systems/bootloader-v0.3/build/debug.o
g_RS485_FIFO                                      /home/asmir/Desktop/Dropbox/MCU/nxp/RT1021/projects/alencon-systems/bootloader-v0.3/build/RS485Serial.o
g_boot_data                                       /home/asmir/Desktop/Dropbox/MCU/nxp/RT1021/projects/alencon-systems/bootloader-v0.3/build/fsl_flexspi_nor_boot.o
g_lpuart1_cnt                                     /home/asmir/Desktop/Dropbox/MCU/nxp/RT1021/projects/alencon-systems/bootloader-v0.3/build/lpuart.o
g_lpuart1_stat                                    /home/asmir/Desktop/Dropbox/MCU/nxp/RT1021/projects/alencon-systems/bootloader-v0.3/build/lpuart.o
g_lpuart2_cnt                                     /home/asmir/Desktop/Dropbox/MCU/nxp/RT1021/projects/alencon-systems/bootloader-v0.3/build/lpuart.o
g_lpuart2_data                                    /home/asmir/Desktop/Dropbox/MCU/nxp/RT1021/projects/alencon-systems/bootloader-v0.3/build/lpuart.o
g_rtcXtalFreq                                     /home/asmir/Desktop/Dropbox/MCU/nxp/RT1021/projects/alencon-systems/bootloader-v0.3/build/fsl_clock.o
                                                  /home/asmir/Desktop/Dropbox/MCU/nxp/RT1021/projects/alencon-systems/bootloader-v0.3/build/clock_config.o
g_xtalFreq                                        /home/asmir/Desktop/Dropbox/MCU/nxp/RT1021/projects/alencon-systems/bootloader-v0.3/build/fsl_clock.o
                                                  /home/asmir/Desktop/Dropbox/MCU/nxp/RT1021/projects/alencon-systems/bootloader-v0.3/build/clock_config.o
                                                  /home/asmir/Desktop/Dropbox/MCU/nxp/RT1021/projects/alencon-systems/bootloader-v0.3/build/board.o
getDNumMISC                                       /home/asmir/Desktop/Dropbox/MCU/nxp/RT1021/projects/alencon-systems/bootloader-v0.3/build/misc.o
getElapsedTimeSYSTIM                              /home/asmir/Desktop/Dropbox/MCU/nxp/RT1021/projects/alencon-systems/bootloader-v0.3/build/delay.o
getSYSTIM                                         /home/asmir/Desktop/Dropbox/MCU/nxp/RT1021/projects/alencon-systems/bootloader-v0.3/build/delay.o
                                                  /home/asmir/Desktop/Dropbox/MCU/nxp/RT1021/projects/alencon-systems/bootloader-v0.3/build/debug.o
getStr4AddrMISC                                   /home/asmir/Desktop/Dropbox/MCU/nxp/RT1021/projects/alencon-systems/bootloader-v0.3/build/misc.o
getStr4NumMISC                                    /home/asmir/Desktop/Dropbox/MCU/nxp/RT1021/projects/alencon-systems/bootloader-v0.3/build/misc.o
                                                  /home/asmir/Desktop/Dropbox/MCU/nxp/RT1021/projects/alencon-systems/bootloader-v0.3/build/lpuart.o
                                                  /home/asmir/Desktop/Dropbox/MCU/nxp/RT1021/projects/alencon-systems/bootloader-v0.3/build/debug.o
getStrMISC                                        /home/asmir/Desktop/Dropbox/MCU/nxp/RT1021/projects/alencon-systems/bootloader-v0.3/build/misc.o
hal_EEPROM_EraseAll                               /home/asmir/Desktop/Dropbox/MCU/nxp/RT1021/projects/alencon-systems/bootloader-v0.3/build/hal_eeprom.o
hal_EEPROM_ErasePage                              /home/asmir/Desktop/Dropbox/MCU/nxp/RT1021/projects/alencon-systems/bootloader-v0.3/build/hal_eeprom.o
                                                  /home/asmir/Desktop/Dropbox/MCU/nxp/RT1021/projects/alencon-systems/bootloader-v0.3/build/nvm_objects.o
hal_EEPROM_Init                                   /home/asmir/Desktop/Dropbox/MCU/nxp/RT1021/projects/alencon-systems/bootloader-v0.3/build/hal_eeprom.o
                                                  /home/asmir/Desktop/Dropbox/MCU/nxp/RT1021/projects/alencon-systems/bootloader-v0.3/build/nvm_objects.o
                                                  /home/asmir/Desktop/Dropbox/MCU/nxp/RT1021/projects/alencon-systems/bootloader-v0.3/build/eeprom.o
                                                  /home/asmir/Desktop/Dropbox/MCU/nxp/RT1021/projects/alencon-systems/bootloader-v0.3/build/flash.o
hal_EEPROM_Read                                   /home/asmir/Desktop/Dropbox/MCU/nxp/RT1021/projects/alencon-systems/bootloader-v0.3/build/hal_eeprom.o
                                                  /home/asmir/Desktop/Dropbox/MCU/nxp/RT1021/projects/alencon-systems/bootloader-v0.3/build/eeprom.o
hal_EEPROM_Write                                  /home/asmir/Desktop/Dropbox/MCU/nxp/RT1021/projects/alencon-systems/bootloader-v0.3/build/hal_eeprom.o
                                                  /home/asmir/Desktop/Dropbox/MCU/nxp/RT1021/projects/alencon-systems/bootloader-v0.3/build/eeprom.o
hal_EEPROM_WritePage                              /home/asmir/Desktop/Dropbox/MCU/nxp/RT1021/projects/alencon-systems/bootloader-v0.3/build/hal_eeprom.o
hal_EEPROM_WritePartialPage                       /home/asmir/Desktop/Dropbox/MCU/nxp/RT1021/projects/alencon-systems/bootloader-v0.3/build/hal_eeprom.o
                                                  /home/asmir/Desktop/Dropbox/MCU/nxp/RT1021/projects/alencon-systems/bootloader-v0.3/build/nvm_objects.o
hal_Timing_Init                                   /home/asmir/Desktop/Dropbox/MCU/nxp/RT1021/projects/alencon-systems/bootloader-v0.3/build/timing.o
hal_UART_DataAvailable                            /home/asmir/Desktop/Dropbox/MCU/nxp/RT1021/projects/alencon-systems/bootloader-v0.3/build/hal_uart.o
                                                  /home/asmir/Desktop/Dropbox/MCU/nxp/RT1021/projects/alencon-systems/bootloader-v0.3/build/uart.o
hal_UART_Disable                                  /home/asmir/Desktop/Dropbox/MCU/nxp/RT1021/projects/alencon-systems/bootloader-v0.3/build/hal_uart.o
                                                  /home/asmir/Desktop/Dropbox/MCU/nxp/RT1021/projects/alencon-systems/bootloader-v0.3/build/bootloader.o
hal_UART_DisableRxInterrupt                       /home/asmir/Desktop/Dropbox/MCU/nxp/RT1021/projects/alencon-systems/bootloader-v0.3/build/hal_uart.o
hal_UART_DisableTxInterrupt                       /home/asmir/Desktop/Dropbox/MCU/nxp/RT1021/projects/alencon-systems/bootloader-v0.3/build/hal_uart.o
                                                  /home/asmir/Desktop/Dropbox/MCU/nxp/RT1021/projects/alencon-systems/bootloader-v0.3/build/uart.o
hal_UART_Enable                                   /home/asmir/Desktop/Dropbox/MCU/nxp/RT1021/projects/alencon-systems/bootloader-v0.3/build/hal_uart.o
hal_UART_EnableInterrupts                         /home/asmir/Desktop/Dropbox/MCU/nxp/RT1021/projects/alencon-systems/bootloader-v0.3/build/hal_uart.o
hal_UART_EnableRxInterrupt                        /home/asmir/Desktop/Dropbox/MCU/nxp/RT1021/projects/alencon-systems/bootloader-v0.3/build/hal_uart.o
hal_UART_EnableTxInterrupt                        /home/asmir/Desktop/Dropbox/MCU/nxp/RT1021/projects/alencon-systems/bootloader-v0.3/build/hal_uart.o
                                                  /home/asmir/Desktop/Dropbox/MCU/nxp/RT1021/projects/alencon-systems/bootloader-v0.3/build/uart.o
hal_UART_Init                                     /home/asmir/Desktop/Dropbox/MCU/nxp/RT1021/projects/alencon-systems/bootloader-v0.3/build/hal_uart.o
                                                  /home/asmir/Desktop/Dropbox/MCU/nxp/RT1021/projects/alencon-systems/bootloader-v0.3/build/uart.o
hal_UART_RxByte                                   /home/asmir/Desktop/Dropbox/MCU/nxp/RT1021/projects/alencon-systems/bootloader-v0.3/build/hal_uart.o
                                                  /home/asmir/Desktop/Dropbox/MCU/nxp/RT1021/projects/alencon-systems/bootloader-v0.3/build/uart.o
hal_UART_SpaceAvailable                           /home/asmir/Desktop/Dropbox/MCU/nxp/RT1021/projects/alencon-systems/bootloader-v0.3/build/hal_uart.o
                                                  /home/asmir/Desktop/Dropbox/MCU/nxp/RT1021/projects/alencon-systems/bootloader-v0.3/build/uart.o
hal_UART_TxByte                                   /home/asmir/Desktop/Dropbox/MCU/nxp/RT1021/projects/alencon-systems/bootloader-v0.3/build/hal_uart.o
                                                  /home/asmir/Desktop/Dropbox/MCU/nxp/RT1021/projects/alencon-systems/bootloader-v0.3/build/uart.o
hal_UART_TxInterruptEnabled                       /home/asmir/Desktop/Dropbox/MCU/nxp/RT1021/projects/alencon-systems/bootloader-v0.3/build/hal_uart.o
                                                  /home/asmir/Desktop/Dropbox/MCU/nxp/RT1021/projects/alencon-systems/bootloader-v0.3/build/uart.o
hardware_init                                     /home/asmir/Desktop/Dropbox/MCU/nxp/RT1021/projects/alencon-systems/bootloader-v0.3/build/hardware.o
                                                  /home/asmir/Desktop/Dropbox/MCU/nxp/RT1021/projects/alencon-systems/bootloader-v0.3/build/bootloader.o
hardware_init_hook                                /home/asmir/Desktop/Dropbox/MCU/gcc/gcc-arm-none-eabi-7-2018-q2-update/bin/../lib/gcc/arm-none-eabi/7.3.1/../../../../arm-none-eabi/lib/thumb/v7e-m/fpv4-sp/hard/crt0.o
holding_registers                                 /home/asmir/Desktop/Dropbox/MCU/nxp/RT1021/projects/alencon-systems/bootloader-v0.3/build/AlenconModbus.o
holding_registers_n                               /home/asmir/Desktop/Dropbox/MCU/nxp/RT1021/projects/alencon-systems/bootloader-v0.3/build/AlenconModbus.o
idle_task                                         /home/asmir/Desktop/Dropbox/MCU/nxp/RT1021/projects/alencon-systems/bootloader-v0.3/build/task.o
image_vector_table                                /home/asmir/Desktop/Dropbox/MCU/nxp/RT1021/projects/alencon-systems/bootloader-v0.3/build/fsl_flexspi_nor_boot.o
initDEBUG                                         /home/asmir/Desktop/Dropbox/MCU/nxp/RT1021/projects/alencon-systems/bootloader-v0.3/build/debug.o
                                                  /home/asmir/Desktop/Dropbox/MCU/nxp/RT1021/projects/alencon-systems/bootloader-v0.3/build/main.o
initLPUART1                                       /home/asmir/Desktop/Dropbox/MCU/nxp/RT1021/projects/alencon-systems/bootloader-v0.3/build/lpuart.o
                                                  /home/asmir/Desktop/Dropbox/MCU/nxp/RT1021/projects/alencon-systems/bootloader-v0.3/build/debug.o
initLPUART2                                       /home/asmir/Desktop/Dropbox/MCU/nxp/RT1021/projects/alencon-systems/bootloader-v0.3/build/lpuart.o
initSYSTEM                                        /home/asmir/Desktop/Dropbox/MCU/nxp/RT1021/projects/alencon-systems/bootloader-v0.3/build/systemclk.o
                                                  /home/asmir/Desktop/Dropbox/MCU/nxp/RT1021/projects/alencon-systems/bootloader-v0.3/build/main.o
initSYSTIM                                        /home/asmir/Desktop/Dropbox/MCU/nxp/RT1021/projects/alencon-systems/bootloader-v0.3/build/delay.o
                                                  /home/asmir/Desktop/Dropbox/MCU/nxp/RT1021/projects/alencon-systems/bootloader-v0.3/build/main.o
input_sources                                     /home/asmir/Desktop/Dropbox/MCU/nxp/RT1021/projects/alencon-systems/bootloader-v0.3/build/AlenconModbus.o
input_sources_n                                   /home/asmir/Desktop/Dropbox/MCU/nxp/RT1021/projects/alencon-systems/bootloader-v0.3/build/AlenconModbus.o
jump_to_app_timestamp                             /home/asmir/Desktop/Dropbox/MCU/nxp/RT1021/projects/alencon-systems/bootloader-v0.3/build/AlenconModbusBootloader.o
last_erase_address                                /home/asmir/Desktop/Dropbox/MCU/nxp/RT1021/projects/alencon-systems/bootloader-v0.3/build/AlenconModbusBootloader.o
lenStrMISC                                        /home/asmir/Desktop/Dropbox/MCU/nxp/RT1021/projects/alencon-systems/bootloader-v0.3/build/misc.o
main                                              /home/asmir/Desktop/Dropbox/MCU/nxp/RT1021/projects/alencon-systems/bootloader-v0.3/build/main.o
                                                  /home/asmir/Desktop/Dropbox/MCU/nxp/RT1021/projects/alencon-systems/bootloader-v0.3/build/startup_MIMXRT1021.o
                                                  /home/asmir/Desktop/Dropbox/MCU/gcc/gcc-arm-none-eabi-7-2018-q2-update/bin/../lib/gcc/arm-none-eabi/7.3.1/../../../../arm-none-eabi/lib/thumb/v7e-m/fpv4-sp/hard/crt0.o
malloc                                            /home/asmir/Desktop/Dropbox/MCU/gcc/gcc-arm-none-eabi-7-2018-q2-update/bin/../lib/gcc/arm-none-eabi/7.3.1/../../../../arm-none-eabi/lib/thumb/v7e-m/fpv4-sp/hard/libc.a(lib_a-malloc.o)
                                                  /home/asmir/Desktop/Dropbox/MCU/gcc/gcc-arm-none-eabi-7-2018-q2-update/bin/../lib/gcc/arm-none-eabi/7.3.1/../../../../arm-none-eabi/lib/thumb/v7e-m/fpv4-sp/hard/libc.a(lib_a-__atexit.o)
                                                  /home/asmir/Desktop/Dropbox/MCU/nxp/RT1021/projects/alencon-systems/bootloader-v0.3/build/fsl_common.o
memcmp                                            /home/asmir/Desktop/Dropbox/MCU/gcc/gcc-arm-none-eabi-7-2018-q2-update/bin/../lib/gcc/arm-none-eabi/7.3.1/../../../../arm-none-eabi/lib/thumb/v7e-m/fpv4-sp/hard/libc.a(lib_a-memcmp.o)
                                                  /home/asmir/Desktop/Dropbox/MCU/nxp/RT1021/projects/alencon-systems/bootloader-v0.3/build/AlenconModbusBootloader.o
                                                  /home/asmir/Desktop/Dropbox/MCU/nxp/RT1021/projects/alencon-systems/bootloader-v0.3/build/nvm_objects.o
memcpy                                            /home/asmir/Desktop/Dropbox/MCU/gcc/gcc-arm-none-eabi-7-2018-q2-update/bin/../lib/gcc/arm-none-eabi/7.3.1/../../../../arm-none-eabi/lib/thumb/v7e-m/fpv4-sp/hard/libc.a(lib_a-memcpy.o)
                                                  /home/asmir/Desktop/Dropbox/MCU/nxp/RT1021/projects/alencon-systems/bootloader-v0.3/build/AlenconModbusBootloader.o
                                                  /home/asmir/Desktop/Dropbox/MCU/nxp/RT1021/projects/alencon-systems/bootloader-v0.3/build/AlenconModbus.o
                                                  /home/asmir/Desktop/Dropbox/MCU/nxp/RT1021/projects/alencon-systems/bootloader-v0.3/build/mbfuncother.o
                                                  /home/asmir/Desktop/Dropbox/MCU/nxp/RT1021/projects/alencon-systems/bootloader-v0.3/build/list.o
                                                  /home/asmir/Desktop/Dropbox/MCU/nxp/RT1021/projects/alencon-systems/bootloader-v0.3/build/buffer.o
                                                  /home/asmir/Desktop/Dropbox/MCU/nxp/RT1021/projects/alencon-systems/bootloader-v0.3/build/flexspi_nor_flash_ops.o
memset                                            /home/asmir/Desktop/Dropbox/MCU/gcc/gcc-arm-none-eabi-7-2018-q2-update/bin/../lib/gcc/arm-none-eabi/7.3.1/../../../../arm-none-eabi/lib/thumb/v7e-m/fpv4-sp/hard/libc.a(lib_a-memset.o)
                                                  /home/asmir/Desktop/Dropbox/MCU/nxp/RT1021/projects/alencon-systems/bootloader-v0.3/build/nvm_objects.o
                                                  /home/asmir/Desktop/Dropbox/MCU/nxp/RT1021/projects/alencon-systems/bootloader-v0.3/build/flexspi_nor_flash_ops.o
                                                  /home/asmir/Desktop/Dropbox/MCU/nxp/RT1021/projects/alencon-systems/bootloader-v0.3/build/fsl_flexspi.o
                                                  /home/asmir/Desktop/Dropbox/MCU/gcc/gcc-arm-none-eabi-7-2018-q2-update/bin/../lib/gcc/arm-none-eabi/7.3.1/../../../../arm-none-eabi/lib/thumb/v7e-m/fpv4-sp/hard/crt0.o
my_address                                        /home/asmir/Desktop/Dropbox/MCU/nxp/RT1021/projects/alencon-systems/bootloader-v0.3/build/bootloader.o
printDEBUG                                        /home/asmir/Desktop/Dropbox/MCU/nxp/RT1021/projects/alencon-systems/bootloader-v0.3/build/debug.o
                                                  /home/asmir/Desktop/Dropbox/MCU/nxp/RT1021/projects/alencon-systems/bootloader-v0.3/build/AlenconModbusBootloader.o
                                                  /home/asmir/Desktop/Dropbox/MCU/nxp/RT1021/projects/alencon-systems/bootloader-v0.3/build/RS485Serial.o
                                                  /home/asmir/Desktop/Dropbox/MCU/nxp/RT1021/projects/alencon-systems/bootloader-v0.3/build/bootloader.o
                                                  /home/asmir/Desktop/Dropbox/MCU/nxp/RT1021/projects/alencon-systems/bootloader-v0.3/build/main.o
printLPUART1                                      /home/asmir/Desktop/Dropbox/MCU/nxp/RT1021/projects/alencon-systems/bootloader-v0.3/build/lpuart.o
                                                  /home/asmir/Desktop/Dropbox/MCU/nxp/RT1021/projects/alencon-systems/bootloader-v0.3/build/debug.o
prveMBError2Exception                             /home/asmir/Desktop/Dropbox/MCU/nxp/RT1021/projects/alencon-systems/bootloader-v0.3/build/mbutils.o
                                                  /home/asmir/Desktop/Dropbox/MCU/nxp/RT1021/projects/alencon-systems/bootloader-v0.3/build/mbfuncinput.o
                                                  /home/asmir/Desktop/Dropbox/MCU/nxp/RT1021/projects/alencon-systems/bootloader-v0.3/build/mbfuncholding.o
                                                  /home/asmir/Desktop/Dropbox/MCU/nxp/RT1021/projects/alencon-systems/bootloader-v0.3/build/mbfuncdisc.o
                                                  /home/asmir/Desktop/Dropbox/MCU/nxp/RT1021/projects/alencon-systems/bootloader-v0.3/build/mbfunccoils.o
putDNumMISC                                       /home/asmir/Desktop/Dropbox/MCU/nxp/RT1021/projects/alencon-systems/bootloader-v0.3/build/misc.o
putcharLPUART1                                    /home/asmir/Desktop/Dropbox/MCU/nxp/RT1021/projects/alencon-systems/bootloader-v0.3/build/lpuart.o
                                                  /home/asmir/Desktop/Dropbox/MCU/nxp/RT1021/projects/alencon-systems/bootloader-v0.3/build/debug.o
putcharLPUART2                                    /home/asmir/Desktop/Dropbox/MCU/nxp/RT1021/projects/alencon-systems/bootloader-v0.3/build/lpuart.o
pxMBFrameCBByteReceived                           /home/asmir/Desktop/Dropbox/MCU/nxp/RT1021/projects/alencon-systems/bootloader-v0.3/build/mb.o
pxMBFrameCBReceiveFSMCur                          /home/asmir/Desktop/Dropbox/MCU/nxp/RT1021/projects/alencon-systems/bootloader-v0.3/build/mb.o
pxMBFrameCBTransmitFSMCur                         /home/asmir/Desktop/Dropbox/MCU/nxp/RT1021/projects/alencon-systems/bootloader-v0.3/build/mb.o
pxMBFrameCBTransmitterEmpty                       /home/asmir/Desktop/Dropbox/MCU/nxp/RT1021/projects/alencon-systems/bootloader-v0.3/build/mb.o
pxMBPortCBTimerExpired                            /home/asmir/Desktop/Dropbox/MCU/nxp/RT1021/projects/alencon-systems/bootloader-v0.3/build/mb.o
                                                  /home/asmir/Desktop/Dropbox/MCU/nxp/RT1021/projects/alencon-systems/bootloader-v0.3/build/mbporttimer.o
qspiflash_config                                  /home/asmir/Desktop/Dropbox/MCU/nxp/RT1021/projects/alencon-systems/bootloader-v0.3/build/evkmimxrt1020_flexspi_nor_config.o
ramFunc                                           /home/asmir/Desktop/Dropbox/MCU/nxp/RT1021/projects/alencon-systems/bootloader-v0.3/build/AlenconModbusBootloader.o
receive_buffer                                    /home/asmir/Desktop/Dropbox/MCU/nxp/RT1021/projects/alencon-systems/bootloader-v0.3/build/subsys.o
receiverList1                                     /home/asmir/Desktop/Dropbox/MCU/nxp/RT1021/projects/alencon-systems/bootloader-v0.3/build/uart.o
receiverList2                                     /home/asmir/Desktop/Dropbox/MCU/nxp/RT1021/projects/alencon-systems/bootloader-v0.3/build/uart.o
receiver_array1                                   /home/asmir/Desktop/Dropbox/MCU/nxp/RT1021/projects/alencon-systems/bootloader-v0.3/build/uart.o
receiver_array2                                   /home/asmir/Desktop/Dropbox/MCU/nxp/RT1021/projects/alencon-systems/bootloader-v0.3/build/uart.o
rollover_time                                     /home/asmir/Desktop/Dropbox/MCU/nxp/RT1021/projects/alencon-systems/bootloader-v0.3/build/timing.o
rx1                                               /home/asmir/Desktop/Dropbox/MCU/nxp/RT1021/projects/alencon-systems/bootloader-v0.3/build/uart.o
rx2                                               /home/asmir/Desktop/Dropbox/MCU/nxp/RT1021/projects/alencon-systems/bootloader-v0.3/build/uart.o
rx_buffer_array1                                  /home/asmir/Desktop/Dropbox/MCU/nxp/RT1021/projects/alencon-systems/bootloader-v0.3/build/uart.o
rx_buffer_array2                                  /home/asmir/Desktop/Dropbox/MCU/nxp/RT1021/projects/alencon-systems/bootloader-v0.3/build/uart.o
rx_flags                                          /home/asmir/Desktop/Dropbox/MCU/nxp/RT1021/projects/alencon-systems/bootloader-v0.3/build/uart.o
setlocale                                         /home/asmir/Desktop/Dropbox/MCU/gcc/gcc-arm-none-eabi-7-2018-q2-update/bin/../lib/gcc/arm-none-eabi/7.3.1/../../../../arm-none-eabi/lib/thumb/v7e-m/fpv4-sp/hard/libc.a(lib_a-locale.o)
software_init_hook                                /home/asmir/Desktop/Dropbox/MCU/gcc/gcc-arm-none-eabi-7-2018-q2-update/bin/../lib/gcc/arm-none-eabi/7.3.1/../../../../arm-none-eabi/lib/thumb/v7e-m/fpv4-sp/hard/crt0.o
sprintLPUART1                                     /home/asmir/Desktop/Dropbox/MCU/nxp/RT1021/projects/alencon-systems/bootloader-v0.3/build/lpuart.o
                                                  /home/asmir/Desktop/Dropbox/MCU/nxp/RT1021/projects/alencon-systems/bootloader-v0.3/build/debug.o
str_app_ok                                        /home/asmir/Desktop/Dropbox/MCU/nxp/RT1021/projects/alencon-systems/bootloader-v0.3/build/AlenconModbusBootloader.o
strcasecmp                                        /home/asmir/Desktop/Dropbox/MCU/gcc/gcc-arm-none-eabi-7-2018-q2-update/bin/../lib/gcc/arm-none-eabi/7.3.1/../../../../arm-none-eabi/lib/thumb/v7e-m/fpv4-sp/hard/libc.a(lib_a-strcasecmp.o)
                                                  /home/asmir/Desktop/Dropbox/MCU/nxp/RT1021/projects/alencon-systems/bootloader-v0.3/build/AlenconModbusBootloader.o
                                                  /home/asmir/Desktop/Dropbox/MCU/nxp/RT1021/projects/alencon-systems/bootloader-v0.3/build/subsys.o
strcmp                                            /home/asmir/Desktop/Dropbox/MCU/gcc/gcc-arm-none-eabi-7-2018-q2-update/bin/../lib/gcc/arm-none-eabi/7.3.1/../../../../arm-none-eabi/lib/thumb/v7e-m/fpv4-sp/hard/libc.a(lib_a-strcmp.o)
                                                  /home/asmir/Desktop/Dropbox/MCU/gcc/gcc-arm-none-eabi-7-2018-q2-update/bin/../lib/gcc/arm-none-eabi/7.3.1/../../../../arm-none-eabi/lib/thumb/v7e-m/fpv4-sp/hard/libc.a(lib_a-locale.o)
strlen                                            /home/asmir/Desktop/Dropbox/MCU/gcc/gcc-arm-none-eabi-7-2018-q2-update/bin/../lib/gcc/arm-none-eabi/7.3.1/../../../../arm-none-eabi/lib/thumb/v7e-m/fpv4-sp/hard/libc.a(lib_a-strlen.o)
                                                  /home/asmir/Desktop/Dropbox/MCU/nxp/RT1021/projects/alencon-systems/bootloader-v0.3/build/subsys.o
subsys_uart                                       /home/asmir/Desktop/Dropbox/MCU/nxp/RT1021/projects/alencon-systems/bootloader-v0.3/build/bootloader.o
sys                                               /home/asmir/Desktop/Dropbox/MCU/nxp/RT1021/projects/alencon-systems/bootloader-v0.3/build/subsys.o
sysPllConfig_BOARD_BootClockRUN                   /home/asmir/Desktop/Dropbox/MCU/nxp/RT1021/projects/alencon-systems/bootloader-v0.3/build/clock_config.o
task_list                                         /home/asmir/Desktop/Dropbox/MCU/nxp/RT1021/projects/alencon-systems/bootloader-v0.3/build/task.o
task_list_array                                   /home/asmir/Desktop/Dropbox/MCU/nxp/RT1021/projects/alencon-systems/bootloader-v0.3/build/task.o
task_list_links                                   /home/asmir/Desktop/Dropbox/MCU/nxp/RT1021/projects/alencon-systems/bootloader-v0.3/build/task.o
time_ms                                           /home/asmir/Desktop/Dropbox/MCU/nxp/RT1021/projects/alencon-systems/bootloader-v0.3/build/timing.o
                                                  /home/asmir/Desktop/Dropbox/MCU/nxp/RT1021/projects/alencon-systems/bootloader-v0.3/build/DCDC_mbrtu.o
time_ms_ungated                                   /home/asmir/Desktop/Dropbox/MCU/nxp/RT1021/projects/alencon-systems/bootloader-v0.3/build/timing.o
timer_enabled                                     /home/asmir/Desktop/Dropbox/MCU/nxp/RT1021/projects/alencon-systems/bootloader-v0.3/build/timing.o
tx1                                               /home/asmir/Desktop/Dropbox/MCU/nxp/RT1021/projects/alencon-systems/bootloader-v0.3/build/uart.o
tx2                                               /home/asmir/Desktop/Dropbox/MCU/nxp/RT1021/projects/alencon-systems/bootloader-v0.3/build/uart.o
txLPUART2                                         /home/asmir/Desktop/Dropbox/MCU/nxp/RT1021/projects/alencon-systems/bootloader-v0.3/build/lpuart.o
tx_buffer_array1                                  /home/asmir/Desktop/Dropbox/MCU/nxp/RT1021/projects/alencon-systems/bootloader-v0.3/build/uart.o
tx_buffer_array2                                  /home/asmir/Desktop/Dropbox/MCU/nxp/RT1021/projects/alencon-systems/bootloader-v0.3/build/uart.o
uart                                              /home/asmir/Desktop/Dropbox/MCU/nxp/RT1021/projects/alencon-systems/bootloader-v0.3/build/uart.o
ucRTUBuf                                          /home/asmir/Desktop/Dropbox/MCU/nxp/RT1021/projects/alencon-systems/bootloader-v0.3/build/DCDC_mbrtu.o
ucSlaveID                                         /home/asmir/Desktop/Dropbox/MCU/nxp/RT1021/projects/alencon-systems/bootloader-v0.3/build/AlenconModbus.o
usMBCRC16                                         /home/asmir/Desktop/Dropbox/MCU/nxp/RT1021/projects/alencon-systems/bootloader-v0.3/build/mbcrc.o
                                                  /home/asmir/Desktop/Dropbox/MCU/nxp/RT1021/projects/alencon-systems/bootloader-v0.3/build/DCDC_mbrtu.o
usb1PllConfig_BOARD_BootClockRUN                  /home/asmir/Desktop/Dropbox/MCU/nxp/RT1021/projects/alencon-systems/bootloader-v0.3/build/clock_config.o
vMBPortClose                                      /home/asmir/Desktop/Dropbox/MCU/nxp/RT1021/projects/alencon-systems/bootloader-v0.3/build/mbportother.o
                                                  /home/asmir/Desktop/Dropbox/MCU/nxp/RT1021/projects/alencon-systems/bootloader-v0.3/build/mb.o
vMBPortEnterCritical                              /home/asmir/Desktop/Dropbox/MCU/nxp/RT1021/projects/alencon-systems/bootloader-v0.3/build/mbportother.o
                                                  /home/asmir/Desktop/Dropbox/MCU/nxp/RT1021/projects/alencon-systems/bootloader-v0.3/build/DCDC_mbrtu.o
                                                  /home/asmir/Desktop/Dropbox/MCU/nxp/RT1021/projects/alencon-systems/bootloader-v0.3/build/mb.o
vMBPortExitCritical                               /home/asmir/Desktop/Dropbox/MCU/nxp/RT1021/projects/alencon-systems/bootloader-v0.3/build/mbportother.o
                                                  /home/asmir/Desktop/Dropbox/MCU/nxp/RT1021/projects/alencon-systems/bootloader-v0.3/build/DCDC_mbrtu.o
                                                  /home/asmir/Desktop/Dropbox/MCU/nxp/RT1021/projects/alencon-systems/bootloader-v0.3/build/mb.o
vMBPortSerialClose                                /home/asmir/Desktop/Dropbox/MCU/nxp/RT1021/projects/alencon-systems/bootloader-v0.3/build/DCDC_mbrtu.o
                                                  /home/asmir/Desktop/Dropbox/MCU/nxp/RT1021/projects/alencon-systems/bootloader-v0.3/build/mbportother.o
vMBPortTimerClose                                 /home/asmir/Desktop/Dropbox/MCU/nxp/RT1021/projects/alencon-systems/bootloader-v0.3/build/mbporttimer.o
                                                  /home/asmir/Desktop/Dropbox/MCU/nxp/RT1021/projects/alencon-systems/bootloader-v0.3/build/mbportother.o
vMBPortTimersDelay                                /home/asmir/Desktop/Dropbox/MCU/nxp/RT1021/projects/alencon-systems/bootloader-v0.3/build/mbporttimer.o
                                                  /home/asmir/Desktop/Dropbox/MCU/nxp/RT1021/projects/alencon-systems/bootloader-v0.3/build/mb.o
vMBPortTimersDisable                              /home/asmir/Desktop/Dropbox/MCU/nxp/RT1021/projects/alencon-systems/bootloader-v0.3/build/mbporttimer.o
                                                  /home/asmir/Desktop/Dropbox/MCU/nxp/RT1021/projects/alencon-systems/bootloader-v0.3/build/DCDC_mbrtu.o
vMBPortTimersEnable                               /home/asmir/Desktop/Dropbox/MCU/nxp/RT1021/projects/alencon-systems/bootloader-v0.3/build/mbporttimer.o
                                                  /home/asmir/Desktop/Dropbox/MCU/nxp/RT1021/projects/alencon-systems/bootloader-v0.3/build/DCDC_mbrtu.o
vMBPortTimersService                              /home/asmir/Desktop/Dropbox/MCU/nxp/RT1021/projects/alencon-systems/bootloader-v0.3/build/mbporttimer.o
                                                  /home/asmir/Desktop/Dropbox/MCU/nxp/RT1021/projects/alencon-systems/bootloader-v0.3/build/AlenconModbus.o
xMBPortEventGet                                   /home/asmir/Desktop/Dropbox/MCU/nxp/RT1021/projects/alencon-systems/bootloader-v0.3/build/mbportevent.o
                                                  /home/asmir/Desktop/Dropbox/MCU/nxp/RT1021/projects/alencon-systems/bootloader-v0.3/build/mb.o
xMBPortEventInit                                  /home/asmir/Desktop/Dropbox/MCU/nxp/RT1021/projects/alencon-systems/bootloader-v0.3/build/mbportevent.o
                                                  /home/asmir/Desktop/Dropbox/MCU/nxp/RT1021/projects/alencon-systems/bootloader-v0.3/build/mb.o
xMBPortEventPost                                  /home/asmir/Desktop/Dropbox/MCU/nxp/RT1021/projects/alencon-systems/bootloader-v0.3/build/mbportevent.o
                                                  /home/asmir/Desktop/Dropbox/MCU/nxp/RT1021/projects/alencon-systems/bootloader-v0.3/build/DCDC_mbrtu.o
                                                  /home/asmir/Desktop/Dropbox/MCU/nxp/RT1021/projects/alencon-systems/bootloader-v0.3/build/mb.o
xMBPortSerialInit                                 /home/asmir/Desktop/Dropbox/MCU/nxp/RT1021/projects/alencon-systems/bootloader-v0.3/build/DCDC_mbrtu.o
xMBPortTimersInit                                 /home/asmir/Desktop/Dropbox/MCU/nxp/RT1021/projects/alencon-systems/bootloader-v0.3/build/mbporttimer.o
                                                  /home/asmir/Desktop/Dropbox/MCU/nxp/RT1021/projects/alencon-systems/bootloader-v0.3/build/DCDC_mbrtu.o
xMBRTUReceiveFSM                                  /home/asmir/Desktop/Dropbox/MCU/nxp/RT1021/projects/alencon-systems/bootloader-v0.3/build/DCDC_mbrtu.o
                                                  /home/asmir/Desktop/Dropbox/MCU/nxp/RT1021/projects/alencon-systems/bootloader-v0.3/build/AlenconModbus.o
                                                  /home/asmir/Desktop/Dropbox/MCU/nxp/RT1021/projects/alencon-systems/bootloader-v0.3/build/mb.o
xMBRTUTimerT35Expired                             /home/asmir/Desktop/Dropbox/MCU/nxp/RT1021/projects/alencon-systems/bootloader-v0.3/build/DCDC_mbrtu.o
                                                  /home/asmir/Desktop/Dropbox/MCU/nxp/RT1021/projects/alencon-systems/bootloader-v0.3/build/mb.o
xMBRTUTransmitFSM                                 /home/asmir/Desktop/Dropbox/MCU/nxp/RT1021/projects/alencon-systems/bootloader-v0.3/build/DCDC_mbrtu.o
                                                  /home/asmir/Desktop/Dropbox/MCU/nxp/RT1021/projects/alencon-systems/bootloader-v0.3/build/mb.o
xMBUtilGetBits                                    /home/asmir/Desktop/Dropbox/MCU/nxp/RT1021/projects/alencon-systems/bootloader-v0.3/build/mbutils.o
xMBUtilSetBits                                    /home/asmir/Desktop/Dropbox/MCU/nxp/RT1021/projects/alencon-systems/bootloader-v0.3/build/mbutils.o
